LX51 LINKER/LOCATER V4.66.1.0                                                           08/07/2017  15:30:51  PAGE 1


LX51 LINKER/LOCATER V4.66.1.0, INVOKED BY:
C:\KEIL_V4\C51\BIN\LX51.EXE .\Library\Source\FU68xx_System.LIB, .\User\Source\Ftech_BLDC2.3.1.LIB, .\obj\Interrupt.obj, 
>> .\obj\main.obj, .\obj\MC_init.obj, .\obj\MC_UserInterface_layer.obj, .\obj\MC_MotorFunction_layer.obj, .\obj\MC_Motor
>> Cotrol_layer.obj, .\obj\MC_MotorDriver_layer.obj, .\obj\MC_Key.obj, .\obj\MC_PwmIn.obj, .\obj\MC_Beep.obj, .\obj\MC_L
>> ed.obj, .\obj\fu68xx_Sys.obj, .\obj\fu68xx_Dmc.obj, .\obj\fu68xx_MCadc.obj, .\obj\fu68xx_MCamp.obj, .\obj\fu68xx_MCcm
>> p.obj, .\obj\fu68xx_MCflash.obj, .\obj\fu68xx_MChall.obj, .\obj\fu68xx_MClpf.obj, .\obj\fu68xx_MCmdu.obj, .\obj\fu68x
>> x_MCpid.obj, .\obj\fu68xx_MCspi.obj, .\obj\fu68xx_MCtime.obj, .\obj\fu68xx_MCuart.obj TO .\obj\Ftech_BLDC PRINT (.\ob
>> j\Ftech_BLDC.map) DISABLEWARNING (16) REMOVEUNUSED


CPU MODE:     8051 MODE
MEMORY MODEL: LARGE WITH FLOATING POINT ARITHMETIC


INPUT MODULES INCLUDED:
  .\obj\Interrupt.obj (INTERRUPT)
         COMMENT TYPE 0: C51 V9.52.0.0
  .\obj\main.obj (MAIN)
         COMMENT TYPE 0: C51 V9.52.0.0
  .\obj\MC_init.obj (MC_INIT)
         COMMENT TYPE 0: C51 V9.52.0.0
  .\obj\MC_UserInterface_layer.obj (MC_USERINTERFACE_LAYER)
         COMMENT TYPE 0: C51 V9.52.0.0
  .\obj\MC_MotorFunction_layer.obj (MC_MOTORFUNCTION_LAYER)
         COMMENT TYPE 0: C51 V9.52.0.0
  .\obj\MC_MotorCotrol_layer.obj (MC_MOTORCOTROL_LAYER)
         COMMENT TYPE 0: C51 V9.52.0.0
  .\obj\MC_MotorDriver_layer.obj (MC_MOTORDRIVER_LAYER)
         COMMENT TYPE 0: C51 V9.52.0.0
  .\obj\MC_Key.obj (MC_KEY)
         COMMENT TYPE 0: C51 V9.52.0.0
  .\obj\MC_PwmIn.obj (MC_PWMIN)
         COMMENT TYPE 0: C51 V9.52.0.0
  .\obj\MC_Beep.obj (MC_BEEP)
         COMMENT TYPE 0: C51 V9.52.0.0
  .\obj\MC_Led.obj (MC_LED)
         COMMENT TYPE 0: C51 V9.52.0.0
  .\obj\fu68xx_Sys.obj (FU68XX_SYS)
         COMMENT TYPE 0: C51 V9.52.0.0
  .\obj\fu68xx_Dmc.obj (FU68XX_DMC)
         COMMENT TYPE 0: C51 V9.52.0.0
  .\obj\fu68xx_MCadc.obj (FU68XX_MCADC)
         COMMENT TYPE 0: C51 V9.52.0.0
  .\obj\fu68xx_MCamp.obj (FU68XX_MCAMP)
         COMMENT TYPE 0: C51 V9.52.0.0
  .\obj\fu68xx_MCcmp.obj (FU68XX_MCCMP)
         COMMENT TYPE 0: C51 V9.52.0.0
  .\obj\fu68xx_MCflash.obj (FU68XX_MCFLASH)
         COMMENT TYPE 0: C51 V9.52.0.0
  .\obj\fu68xx_MChall.obj (FU68XX_MCHALL)
         COMMENT TYPE 0: C51 V9.52.0.0
  .\obj\fu68xx_MClpf.obj (FU68XX_MCLPF)
         COMMENT TYPE 0: C51 V9.52.0.0
  .\obj\fu68xx_MCmdu.obj (FU68XX_MCMDU)
         COMMENT TYPE 0: C51 V9.52.0.0
  .\obj\fu68xx_MCpid.obj (FU68XX_MCPID)
         COMMENT TYPE 0: C51 V9.52.0.0
  .\obj\fu68xx_MCspi.obj (FU68XX_MCSPI)
         COMMENT TYPE 0: C51 V9.52.0.0
  .\obj\fu68xx_MCtime.obj (FU68XX_MCTIME)
         COMMENT TYPE 0: C51 V9.52.0.0
  .\obj\fu68xx_MCuart.obj (FU68XX_MCUART)
         COMMENT TYPE 0: C51 V9.52.0.0
  .\Library\Source\FU68xx_System.LIB (FU68XX_SYSTEM)
         COMMENT TYPE 0: C51 V9.54
  .\User\Source\Ftech_BLDC2.3.1.LIB (FTECH_BLDCV2_3_1)
LX51 LINKER/LOCATER V4.66.1.0                                                         08/07/2017  15:30:51  PAGE 2


         COMMENT TYPE 0: C51 V9.52.0.0
  C:\KEIL_V4\C51\LIB\C51FPL.LIB (?C?FPADD)
         COMMENT TYPE 1: A51 / ASM51 Assembler
  C:\KEIL_V4\C51\LIB\C51FPL.LIB (?C?FPMUL)
         COMMENT TYPE 1: A51 / ASM51 Assembler
  C:\KEIL_V4\C51\LIB\C51FPL.LIB (?C?FPDIV)
         COMMENT TYPE 1: A51 / ASM51 Assembler
  C:\KEIL_V4\C51\LIB\C51FPL.LIB (?C?FPCMP)
         COMMENT TYPE 1: A51 / ASM51 Assembler
  C:\KEIL_V4\C51\LIB\C51FPL.LIB (?C?FCAST)
         COMMENT TYPE 1: A51 / ASM51 Assembler
  C:\KEIL_V4\C51\LIB\C51FPL.LIB (?C?CASTF)
         COMMENT TYPE 1: A51 / ASM51 Assembler
  C:\KEIL_V4\C51\LIB\C51FPL.LIB (?C?FPGETOPN)
         COMMENT TYPE 1: A51 / ASM51 Assembler
  C:\KEIL_V4\C51\LIB\C51L.LIB (?C_STARTUP)
         COMMENT TYPE 1: A51 / ASM51 Assembler
  C:\KEIL_V4\C51\LIB\C51L.LIB (?C?IILDX)
         COMMENT TYPE 1: A51 / ASM51 Assembler
  C:\KEIL_V4\C51\LIB\C51L.LIB (?C?ILDPTR)
         COMMENT TYPE 1: A51 / ASM51 Assembler
  C:\KEIL_V4\C51\LIB\C51L.LIB (?C?ILDOPTR)
         COMMENT TYPE 1: A51 / ASM51 Assembler
  C:\KEIL_V4\C51\LIB\C51L.LIB (?C?ISTOPTR)
         COMMENT TYPE 1: A51 / ASM51 Assembler
  C:\KEIL_V4\C51\LIB\C51L.LIB (?C?LADD)
         COMMENT TYPE 1: A51 / ASM51 Assembler
  C:\KEIL_V4\C51\LIB\C51L.LIB (?C?LSUB)
         COMMENT TYPE 1: A51 / ASM51 Assembler
  C:\KEIL_V4\C51\LIB\C51L.LIB (?C?ULDIV)
         COMMENT TYPE 1: A51 / ASM51 Assembler
  C:\KEIL_V4\C51\LIB\C51L.LIB (?C?LNEG)
         COMMENT TYPE 1: A51 / ASM51 Assembler
  C:\KEIL_V4\C51\LIB\C51L.LIB (?C?SLCMP)
         COMMENT TYPE 1: A51 / ASM51 Assembler
  C:\KEIL_V4\C51\LIB\C51L.LIB (?C?ULCMP)
         COMMENT TYPE 1: A51 / ASM51 Assembler
  C:\KEIL_V4\C51\LIB\C51L.LIB (?C?ULSHR)
         COMMENT TYPE 1: A51 / ASM51 Assembler
  C:\KEIL_V4\C51\LIB\C51L.LIB (?C?SLSHR)
         COMMENT TYPE 1: A51 / ASM51 Assembler
  C:\KEIL_V4\C51\LIB\C51L.LIB (?C?LSHL)
         COMMENT TYPE 1: A51 / ASM51 Assembler
  C:\KEIL_V4\C51\LIB\C51L.LIB (?C?LLDXDATA)
         COMMENT TYPE 1: A51 / ASM51 Assembler
  C:\KEIL_V4\C51\LIB\C51L.LIB (?C?LLDXDATA0)
         COMMENT TYPE 1: A51 / ASM51 Assembler
  C:\KEIL_V4\C51\LIB\C51L.LIB (?C?LSTXDATA)
         COMMENT TYPE 1: A51 / ASM51 Assembler
  C:\KEIL_V4\C51\LIB\C51L.LIB (?C?LSTKXDATA)
         COMMENT TYPE 1: A51 / ASM51 Assembler
  C:\KEIL_V4\C51\LIB\C51L.LIB (?C?CCASE)
         COMMENT TYPE 1: A51 / ASM51 Assembler
  C:\KEIL_V4\C51\LIB\C51L.LIB (?C?LIMUL)
         COMMENT TYPE 1: A51 / ASM51 Assembler
  C:\KEIL_V4\C51\LIB\C51L.LIB (?C_INIT)
         COMMENT TYPE 1: A51 / ASM51 Assembler


ACTIVE MEMORY CLASSES OF MODULE:  .\obj\Ftech_BLDC (INTERRUPT)

BASE        START       END         USED      MEMORY CLASS
==========================================================
C:000000H   C:000000H   C:00FFFFH   003111H   CODE
X:000000H   X:000000H   X:00FFFFH   000283H   XDATA
LX51 LINKER/LOCATER V4.66.1.0                                                         08/07/2017  15:30:51  PAGE 3


C:000000H   C:000000H   C:00FFFFH   00002FH   CONST
I:000020H.0 I:000020H.0 I:00002FH.7 000000H.4 BIT
I:000000H   I:000000H   I:0000FFH   000029H   IDATA
I:000000H   I:000000H   I:00007FH   000008H   DATA


MEMORY MAP OF MODULE:  .\obj\Ftech_BLDC (INTERRUPT)


START     STOP      LENGTH    ALIGN  RELOC    MEMORY CLASS   SEGMENT NAME
=========================================================================

* * * * * * * * * * *   D A T A   M E M O R Y   * * * * * * * * * * * * *
000000H   000007H   000008H   ---    AT..     DATA           "REG BANK 0"
000008H.0 00001FH.7 000018H.0 ---    ---      **GAP**
000020H.0 000020H.1 000000H.2 BIT    UNIT     BIT            ?BI?FU68XX_MCMDU
000020H.2 000020H.3 000000H.2 BIT    UNIT     BIT            _BIT_GROUP_
000020H.4 000020H   000000H.4 ---    ---      **GAP**
000021H   000048H   000028H   BYTE   UNIT     IDATA          ?ID?FU68XX_MCPID
000049H   000049H   000001H   BYTE   UNIT     IDATA          ?STACK

* * * * * * * * * * *   C O D E   M E M O R Y   * * * * * * * * * * * * *
000000H   000002H   000003H   ---    OFFS..   CODE           ?CO??C_STARTUP?0
000003H   000005H   000003H   BYTE   OFFS..   CODE           ?INTERRUPT?00003
000006H   000029H   000024H   BYTE   UNIT     CODE           ?PR?SYSTEMINIT?FU68XX_SYS
00002AH   00002AH   000001H   BYTE   UNIT     CODE           ?PR?DRV_STB3CALC?MC_MOTORFUNCTION_LAYER
00002BH   00002DH   000003H   BYTE   OFFS..   CODE           ?INTERRUPT?0002B
00002EH   00002EH   000001H   BYTE   UNIT     CODE           ?PR?LED_SHOW?MC_LED
00002FH   000032H   000004H   ---    ---      **GAP**
000033H   000035H   000003H   BYTE   OFFS..   CODE           ?INTERRUPT?00033
000036H   00003AH   000005H   ---    ---      **GAP**
00003BH   00003DH   000003H   BYTE   OFFS..   CODE           ?INTERRUPT?0003B
00003EH   00004AH   00000DH   BYTE   UNIT     CODE           ?PR?CMP_ISR?INTERRUPT
00004BH   00004DH   000003H   BYTE   OFFS..   CODE           ?INTERRUPT?0004B
00004EH   000052H   000005H   ---    ---      **GAP**
000053H   000055H   000003H   BYTE   OFFS..   CODE           ?INTERRUPT?00053
000056H   0006D1H   00067CH   BYTE   UNIT     CODE           ?C?LIB_CODE
0006D2H   000A52H   000381H   BYTE   UNIT     CODE           ?PR?PWMINONOFFSWITCH?MC_PWMIN
000A53H   000CBEH   00026CH   BYTE   UNIT     CODE           ?PR?DRV_BEMFTIM1PDAPP?FTECH_BLDCV2_3_1
000CBFH   000EAFH   0001F1H   BYTE   UNIT     CODE           ?PR?MCL_OPENLOOP?MC_MOTORCOTROL_LAYER
000EB0H   00105FH   0001B0H   BYTE   UNIT     CODE           ?PR?MDUAPP?FU68XX_DMC
001060H   001205H   0001A6H   BYTE   UNIT     CODE           ?PR?PWMININIT?MC_PWMIN
001206H   001356H   000151H   BYTE   UNIT     CODE           ?PR?DRV_SECTIONCHEAK?FTECH_BLDCV2_3_1
001357H   00149DH   000147H   BYTE   UNIT     CODE           ?PR?TIM23_ISR?INTERRUPT
00149EH   0015AEH   000111H   BYTE   UNIT     CODE           ?PR?ADCINIT?FU68XX_MCADC
0015AFH   0016AFH   000101H   BYTE   UNIT     CODE           ?PR?MCL_FAILURE?MC_MOTORCOTROL_LAYER
0016B0H   0017A7H   0000F8H   BYTE   UNIT     CODE           ?PR?TIM1_CONFIG?FU68XX_MCTIME
0017A8H   001896H   0000EFH   BYTE   UNIT     CODE           ?PR?MCL_STRACK?MC_MOTORCOTROL_LAYER
001897H   00197FH   0000E9H   BYTE   UNIT     CODE           ?PR?TIM1_ISR?INTERRUPT
001980H   001A5FH   0000E0H   BYTE   UNIT     CODE           ?PR?ADCGETVALUE?FU68XX_MCADC
001A60H   001B3AH   0000DBH   BYTE   UNIT     CODE           ?PR?_BEEPTONE?MC_BEEP
001B3BH   001C11H   0000D7H   BYTE   UNIT     CODE           ?PR?MCL_PRECHARGE?MC_MOTORCOTROL_LAYER
001C12H   001CE3H   0000D2H   BYTE   UNIT     CODE           ?PR?_DRV_BEMFDELAYANGLE?FTECH_BLDCV2_3_1
001CE4H   001DB1H   0000CEH   BYTE   UNIT     CODE           ?PR?UI?MC_USERINTERFACE_LAYER
001DB2H   001E6EH   0000BDH   BYTE   UNIT     CODE           ?PR?MCL_ALIGNMENT?MC_MOTORCOTROL_LAYER
001E6FH   001F27H   0000B9H   BYTE   UNIT     CODE           ?PR?BEMFINIT?MC_INIT
001F28H   001FE0H   0000B9H   BYTE   UNIT     CODE           ?PR?_DRV_DUTYRAMPCALE?MC_MOTORDRIVER_LAYER
001FE1H   002095H   0000B5H   BYTE   UNIT     CODE           ?PR?MCL_STOP?MC_MOTORCOTROL_LAYER
002096H   002141H   0000ACH   BYTE   UNIT     CODE           ?PR?BEEPRESPONSE?MC_BEEP
002142H   0021E6H   0000A5H   BYTE   UNIT     CODE           ?PR?SYSTICK_1MS?MC_MOTORCOTROL_LAYER
0021E7H   002288H   0000A2H   BYTE   UNIT     CODE           ?PR?_MDU_DIV_U32?FU68XX_MCMDU
002289H   002320H   000098H   BYTE   UNIT     CODE           ?PR?MCL_MODULEINIT?MC_INIT
002321H   0023B5H   000095H   BYTE   UNIT     CODE           ?PR?ADC_CONFIG?FU68XX_MCADC
0023B6H   002448H   000093H   BYTE   UNIT     CODE           ?PR?MCL_CHKPOWERSTAGE?MC_MOTORCOTROL_LAYER
002449H   0024D9H   000091H   BYTE   UNIT     CODE           ?PR?MAINISR?MC_MOTORCOTROL_LAYER
LX51 LINKER/LOCATER V4.66.1.0                                                         08/07/2017  15:30:51  PAGE 4


0024DAH   002565H   00008CH   BYTE   UNIT     CODE           ?C_C51STARTUP
002566H   0025DEH   000079H   BYTE   UNIT     CODE           ?PR?CMP_CONFIG?FU68XX_MCCMP
0025DFH   002655H   000077H   BYTE   UNIT     CODE           ?PR?MCL_NORMAL?MC_MOTORCOTROL_LAYER
002656H   0026C7H   000072H   BYTE   UNIT     CODE           ?PR?_DRV_BEMFMASKANGLE?FTECH_BLDCV2_3_1
0026C8H   002735H   00006EH   BYTE   UNIT     CODE           ?PR?BEMFDEFAULT?MC_INIT
002736H   0027A3H   00006EH   BYTE   UNIT     CODE           ?PR?TIM3_CONFIG?FU68XX_MCTIME
0027A4H   002810H   00006DH   BYTE   UNIT     CODE           ?PR?MCL_MOTORC?MC_MOTORCOTROL_LAYER
002811H   00287BH   00006BH   BYTE   UNIT     CODE           ?PR?_FAULT_LED?MC_LED
00287CH   0028E2H   000067H   BYTE   UNIT     CODE           ?PR?TIM45_ISR?INTERRUPT
0028E3H   002948H   000066H   BYTE   UNIT     CODE           ?PR?BEEPPERFORM?MC_BEEP
002949H   0029A9H   000061H   BYTE   UNIT     CODE           ?PR?ADC_ISR?INTERRUPT
0029AAH   002A04H   00005BH   BYTE   UNIT     CODE           ?PR?DRIVER_INIT?FU68XX_SYS
002A05H   002A5DH   000059H   BYTE   UNIT     CODE           ?PR?MCL_CHKSYSSTAGE?MC_MOTORCOTROL_LAYER
002A5EH   002AB3H   000056H   BYTE   UNIT     CODE           ?PR?_MDU_MULA_U32?FU68XX_MCMDU
002AB4H   002B01H   00004EH   BYTE   UNIT     CODE           ?PR?MCL_MODULEDEFAULT?MC_INIT
002B02H   002B4FH   00004EH   BYTE   UNIT     CODE           ?PR?_DRV_COMMUTATION?MC_MOTORDRIVER_LAYER
002B50H   002B9CH   00004DH   BYTE   UNIT     CODE           ?PR?SOFTWAREINIT?MC_INIT
002B9DH   002BE5H   000049H   BYTE   UNIT     CODE           ?PR?KEY_FILTRATE?MC_KEY
002BE6H   002C2BH   000046H   BYTE   UNIT     CODE           ?PR?PWMINIT?MC_INIT
002C2CH   002C70H   000045H   BYTE   UNIT     CODE           ?PR?_VREFCONFIG?FU68XX_SYSTEM
002C71H   002CB1H   000041H   BYTE   UNIT     CODE           ?PR?_MDU_DIV_U16?FU68XX_MCMDU
002CB2H   002CF1H   000040H   BYTE   UNIT     CODE           ?PR?TIMNMSDEFAULT?MC_INIT
002CF2H   002D31H   000040H   BYTE   UNIT     CODE           ?PR?TIM4_CONFIG?FU68XX_MCTIME
002D32H   002D6FH   00003EH   BYTE   UNIT     CODE           ?PR?DRV_SETSTEP?MC_MOTORDRIVER_LAYER
002D70H   002DADH   00003EH   BYTE   UNIT     CODE           ?PR?DRV_BEMFTIM1RUAPP?FTECH_BLDCV2_3_1
002DAEH   002DEAH   00003DH   BYTE   UNIT     CODE           ?PR?_FU68XX_PWM_UPDATE?MC_MOTORDRIVER_LAYER
002DEBH   002E24H   00003AH   BYTE   UNIT     CODE           ?PR?KEY_INIT?MC_KEY
002E25H   002E5EH   00003AH   BYTE   UNIT     CODE           ?PR?_MDU_MULA_U16?FU68XX_MCMDU
002E5FH   002E95H   000037H   BYTE   UNIT     CODE           ?PR?PDEVENTPERIODCALC?FU68XX_DMC
002E96H   002EC9H   000034H   BYTE   UNIT     CODE           ?PR?TIM2_CONFIG?FU68XX_MCTIME
002ECAH   002EF3H   00002AH   BYTE   UNIT     CODE           ?PR?MCL_READY?MC_MOTORCOTROL_LAYER
002EF4H   002F1DH   00002AH   BYTE   UNIT     CODE           ?PR?ADCGETCONVERSIONVALUE?FU68XX_MCADC
002F1EH   002F41H   000024H   BYTE   UNIT     CODE           ?PR?_LPF?FU68XX_MCLPF
002F42H   002F65H   000024H   BYTE   UNIT     CODE           ?PR?_MC_LPF?FU68XX_MCLPF
002F66H   002F84H   00001FH   BYTE   UNIT     CODE           ?PR?MCL_STALLRESTART?MC_MOTORFUNCTION_LAYER
002F85H   002FA3H   00001FH   BYTE   UNIT     CODE           ?PR?MCL_INIT?MC_MOTORCOTROL_LAYER
002FA4H   002FC1H   00001EH   BYTE   UNIT     CODE           ?PR?MAIN?MAIN
002FC2H   002FDFH   00001EH   BYTE   UNIT     CODE           ?PR?VHALFCONFIG?FU68XX_SYSTEM
002FE0H   002FFDH   00001EH   BYTE   UNIT     CODE           ?PR?_DRV_BEMFPHASECHOICE?FTECH_BLDCV2_3_1
002FFEH   00301AH   00001DH   BYTE   UNIT     CODE           ?PR?INTERRUPT_CONFIG?MC_INIT
00301BH   003037H   00001DH   BYTE   UNIT     CODE           ?PR?_DELAYUS?MC_INIT
003038H   003052H   00001BH   BYTE   UNIT     CODE           ?PR?GPIO_CONFIG?MC_INIT
003053H   00306BH   000019H   BYTE   UNIT     CODE           ?PR?_BEEPREQUESTFUN?MC_BEEP
00306CH   003083H   000018H   BYTE   UNIT     CODE           ?PR?AMP_CONFIG?FU68XX_MCAMP
003084H   003099H   000016H   BYTE   UNIT     CODE           ?PR?FU68XX_XRAM_ERASE?FU68XX_SYS
00309AH   0030AFH   000016H   BYTE   UNIT     CODE           ?C_INITSEG
0030B0H   0030C3H   000014H   BYTE   UNIT     CODE           ?PR?MDUCONTROLINIT?FU68XX_DMC
0030C4H   0030D4H   000011H   BYTE   UNIT     CODE           ?PR?_DELAY?MC_INIT
0030D5H   0030E5H   000011H   BYTE   UNIT     CODE           ?PR?HALL_INIT?FU68XX_MCHALL
0030E6H   0030F3H   00000EH   BYTE   UNIT     CODE           ?PR?MCL_MOTORRESTART?MC_MOTORFUNCTION_LAYER
0030F4H   0030FFH   00000CH   BYTE   UNIT     CODE           ?PR?BEEPINIT?MC_BEEP
003100H   00310BH   00000CH   BYTE   UNIT     CODE           ?PR?MDUINIT?FU68XX_DMC
00310CH   003116H   00000BH   BYTE   UNIT     CODE           ?PR?KEY_CONFIG?MC_KEY
003117H   00311EH   000008H   BYTE   UNIT     CODE           ?PR?LVW_ISR?INTERRUPT
00311FH   003136H   000018H   BYTE   UNIT     CONST          ?CO?FTECH_BLDCV2_3_1
003137H   003146H   000010H   BYTE   UNIT     CONST          ?CO?MC_INIT
003147H   00314DH   000007H   BYTE   UNIT     CONST          ?CO?MC_BEEP

* * * * * * * * * * *  X D A T A   M E M O R Y  * * * * * * * * * * * * *
000000H   00013CH   00013DH   BYTE   UNIT     XDATA          ?XD?MC_MOTORCOTROL_LAYER
00013DH   0001EAH   0000AEH   BYTE   UNIT     XDATA          ?XD?MC_MOTORDRIVER_LAYER
0001EBH   00021FH   000035H   BYTE   UNIT     XDATA          _XDATA_GROUP_
000220H   000245H   000026H   BYTE   UNIT     XDATA          ?XD?FU68XX_DMC
000246H   000261H   00001CH   BYTE   UNIT     XDATA          ?XD?MC_PWMIN
000262H   000272H   000011H   BYTE   UNIT     XDATA          ?XD?MC_KEY
LX51 LINKER/LOCATER V4.66.1.0                                                         08/07/2017  15:30:51  PAGE 5


000273H   000278H   000006H   BYTE   UNIT     XDATA          ?XD?MC_MOTORFUNCTION_LAYER
000279H   00027EH   000006H   BYTE   UNIT     XDATA          ?XD?FU68XX_MCFLASH
00027FH   000280H   000002H   BYTE   UNIT     XDATA          ?XD?MC_BEEP
000281H   000281H   000001H   BYTE   UNIT     XDATA          ?XD?MC_USERINTERFACE_LAYER
000282H   000282H   000001H   BYTE   UNIT     XDATA          ?XD?FU68XX_MCLPF

* * * * * * * * *   R E M O V E D     S E G M E N T S   * * * * * * * *
   *DEL*:           000090H   BYTE   UNIT     CODE           ?PR?HALLINIT?MC_INIT
   *DEL*:           000110H   BYTE   UNIT     CODE           ?PR?_DRV_POWERTHERMCALC?MC_MOTORFUNCTION_LAYER
   *DEL*:           000004H   BYTE   UNIT     XDATA          ?XD?_DRV_POWERTHERMCALC?MC_MOTORFUNCTION_LAYER
   *DEL*:           000020H   BYTE   UNIT     CODE           ?PR?MCL_NOLOADCALE?MC_MOTORFUNCTION_LAYER
   *DEL*:           000038H   BYTE   UNIT     CODE           ?PR?DRV_POWERCLOSEDCALC?MC_MOTORFUNCTION_LAYER
   *DEL*:           00004BH   BYTE   UNIT     CODE           ?PR?DRV_BEMFSETFRFUN?MC_MOTORFUNCTION_LAYER
   *DEL*:           00001DH   BYTE   UNIT     CODE           ?PR?MCL_BKIN_IRQHANDLER?MC_MOTORCOTROL_LAYER
   *DEL*:           000052H   BYTE   UNIT     CODE           ?PR?_DRV_SPEEDRAMPCALE?MC_MOTORDRIVER_LAYER
   *DEL*:           000002H   BYTE   UNIT     XDATA          ?XD?_DRV_SPEEDRAMPCALE?MC_MOTORDRIVER_LAYER
   *DEL*:           000054H   BYTE   UNIT     CODE           ?PR?_DRV_HALLDRIVED?MC_MOTORDRIVER_LAYER
   *DEL*:           00035EH   BYTE   UNIT     CODE           ?PR?_DRV_SELFINSPECTION?MC_MOTORDRIVER_LAYER
   *DEL*:           00000FH   BYTE   UNIT     XDATA          ?XD?_DRV_SELFINSPECTION?MC_MOTORDRIVER_LAYER
   *DEL*:           000001H   BYTE   UNIT     CODE           ?PR?PWMSCAN?MC_PWMIN
   *DEL*:           000001H   BYTE   UNIT     CODE           ?PR?FASTADCONVERT?FU68XX_MCADC
   *DEL*:           000001H   BYTE   UNIT     XDATA          ?XD?FASTADCONVERT?FU68XX_MCADC
   *DEL*:           0000E2H   BYTE   UNIT     CODE           ?PR?ADCGETFASTVALUE?FU68XX_MCADC
   *DEL*:           000006H   BYTE   UNIT     XDATA          ?XD?ADCGETFASTVALUE?FU68XX_MCADC
   *DEL*:           00009AH   BYTE   UNIT     CODE           ?PR?FLASH_GETADDRESS?FU68XX_MCFLASH
   *DEL*:           000001H   BYTE   UNIT     XDATA          ?XD?FLASH_GETADDRESS?FU68XX_MCFLASH
   *DEL*:           000050H   BYTE   UNIT     CODE           ?PR?FLASH_ERASEPAGEROM?FU68XX_MCFLASH
   *DEL*:           000066H   BYTE   UNIT     CODE           ?PR?_FLASH_KEYWRITEVALUE?FU68XX_MCFLASH
   *DEL*:           000002H   BYTE   UNIT     XDATA          ?XD?_FLASH_KEYWRITEVALUE?FU68XX_MCFLASH
   *DEL*:           000037H   BYTE   UNIT     CODE           ?PR?HALL_IRQHANDLER?FU68XX_MCHALL
   *DEL*:           000010H   BYTE   UNIT     CONST          ?CO?FU68XX_MCHALL
   *DEL*:           00000AH   BYTE   UNIT     CODE           ?PR?MDU_INIT?FU68XX_MCMDU
   *DEL*:           00001CH   BYTE   UNIT     CODE           ?PR?_MDU_MUL_U16?FU68XX_MCMDU
   *DEL*:           000030H   BYTE   UNIT     CODE           ?PR?_MDU_MUL_U32?FU68XX_MCMDU
   *DEL*:           00001CH   BYTE   UNIT     CODE           ?PR?_MDU_MUL_S16?FU68XX_MCMDU
   *DEL*:           000030H   BYTE   UNIT     CODE           ?PR?_MDU_MUL_S32?FU68XX_MCMDU
   *DEL*:           00003AH   BYTE   UNIT     CODE           ?PR?_MDU_MULA_S16?FU68XX_MCMDU
   *DEL*:           000056H   BYTE   UNIT     CODE           ?PR?_MDU_MULA_S32?FU68XX_MCMDU
   *DEL*:           000007H   BYTE   UNIT     XDATA          ?XD?_MDU_MULA_S32?FU68XX_MCMDU
   *DEL*:           000026H   BYTE   UNIT     CODE           ?PR?PID_CONFIG?FU68XX_MCPID
   *DEL*:           000028H   BYTE   UNIT     CODE           ?PR?PID_SPDINIT?FU68XX_MCPID
   *DEL*:           000028H   BYTE   UNIT     CODE           ?PR?PID_ISINIT?FU68XX_MCPID
   *DEL*:           00008FH   BYTE   UNIT     CODE           ?PR?_PID_CALC?FU68XX_MCPID
   *DEL*:           00004BH   BYTE   UNIT     CODE           ?PR?SPI_CONFIG?FU68XX_MCSPI
   *DEL*:           000053H   BYTE   UNIT     CODE           ?PR?_SPI_SENDDATA?FU68XX_MCSPI
   *DEL*:           000001H   BYTE   UNIT     CODE           ?PR?USRT_CONFIG?FU68XX_MCUART
   *DEL*:           000025H   BYTE   UNIT     CODE           ?PR?_UART_SENDDATA?FU68XX_MCUART
   *DEL*:           00001BH   BYTE   UNIT     CODE           ?PR?INTERNALFASTCLOCKCONFIG?FU68XX_SYSTEM
   *DEL*:           000000H.1 BIT    UNIT     BIT            ?BI?INTERNALFASTCLOCKCONFIG?FU68XX_SYSTEM
   *DEL*:           00000FH   BYTE   UNIT     CODE           ?PR?SYSTEMFASTCLOCKCONFIG?FU68XX_SYSTEM
   *DEL*:           000000H.1 BIT    UNIT     BIT            ?BI?SYSTEMFASTCLOCKCONFIG?FU68XX_SYSTEM
   *DEL*:           000016H   BYTE   UNIT     CODE           ?PR?EXTERNALSLOWCLOCKCONFIG?FU68XX_SYSTEM
   *DEL*:           000000H.1 BIT    UNIT     BIT            ?BI?EXTERNALSLOWCLOCKCONFIG?FU68XX_SYSTEM
   *DEL*:           00000FH   BYTE   UNIT     CODE           ?PR?LVDPOWERDOWNDETECTCONFIG?FU68XX_SYSTEM
   *DEL*:           000000H.1 BIT    UNIT     BIT            ?BI?LVDPOWERDOWNDETECTCONFIG?FU68XX_SYSTEM
   *DEL*:           00000FH   BYTE   UNIT     CODE           ?PR?LVDPOWERDOWNWARNIECONFIG?FU68XX_SYSTEM
   *DEL*:           000000H.1 BIT    UNIT     BIT            ?BI?LVDPOWERDOWNWARNIECONFIG?FU68XX_SYSTEM
   *DEL*:           000037H   BYTE   UNIT     CODE           ?PR?_WATCHDOGCONFIG?FU68XX_SYSTEM
   *DEL*:           000000H.1 BIT    UNIT     BIT            ?BI?_WATCHDOGCONFIG?FU68XX_SYSTEM
   *DEL*:           000008H   BYTE   UNIT     CODE           ?PR?WATCHDOGREFRESH?FU68XX_SYSTEM
   *DEL*:           000031H   BYTE   UNIT     CODE           ?PR?_FLASH_SECTOR_ERASE?FU68XX_SYSTEM
   *DEL*:           000000H.1 BIT    UNIT     BIT            ?BI?_FLASH_SECTOR_ERASE?FU68XX_SYSTEM
   *DEL*:           000030H   BYTE   UNIT     CODE           ?PR?_FLASH_SECTOR_WRITE?FU68XX_SYSTEM
   *DEL*:           000000H.1 BIT    UNIT     BIT            ?BI?_FLASH_SECTOR_WRITE?FU68XX_SYSTEM
   *DEL*:           00015CH   BYTE   UNIT     CODE           ?PR?_DRV_HALLDRIVES?FTECH_BLDCV2_3_1
LX51 LINKER/LOCATER V4.66.1.0                                                         08/07/2017  15:30:51  PAGE 6





OVERLAY MAP OF MODULE:   .\obj\Ftech_BLDC (INTERRUPT)


FUNCTION/MODULE                                BIT_GROUP   XDATA_GROUP
--> CALLED FUNCTION/MODULE                    START  STOP  START  STOP
======================================================================
TIM1_ISR/INTERRUPT                            ----- -----  ----- -----
  +--> DRV_BEMFTIM1PDAPP/FTECH_BLDCV2_3_1
  +--> DRV_BEMFTIM1RUAPP/FTECH_BLDCV2_3_1

DRV_BEMFTIM1PDAPP/FTECH_BLDCV2_3_1            ----- -----  ----- -----
  +--> DRV_SECTIONCHEAK/FTECH_BLDCV2_3_1
  +--> DRV_SETSTEP/MC_MOTORDRIVER_LAYER
  +--> _DRV_COMMUTATION/MC_MOTORDRIVER_LAYER
  +--> _DRV_BEMFPHASECHOICE/FTECH_BLDCV2_3_1
  +--> PDEVENTPERIODCALC/FU68XX_DMC
  +--> _DRV_BEMFDELAYANGLE/FTECH_BLDCV2_3_1

DRV_SECTIONCHEAK/FTECH_BLDCV2_3_1             ----- -----  ----- -----
  +--> ?CO?FTECH_BLDCV2_3_1

?CO?FTECH_BLDCV2_3_1                          ----- -----  ----- -----

DRV_SETSTEP/MC_MOTORDRIVER_LAYER              ----- -----  ----- -----

_DRV_COMMUTATION/MC_MOTORDRIVER_LAYER         ----- -----  ----- -----
  +--> ?CO?MC_INIT

?CO?MC_INIT                                   ----- -----  ----- -----

_DRV_BEMFPHASECHOICE/FTECH_BLDCV2_3_1         ----- -----  ----- -----
  +--> ?CO?FTECH_BLDCV2_3_1

PDEVENTPERIODCALC/FU68XX_DMC                  ----- -----  ----- -----
  +--> DRV_STB3CALC/MC_MOTORFUNCTION_LAYER

DRV_STB3CALC/MC_MOTORFUNCTION_LAYER           ----- -----  ----- -----

_DRV_BEMFDELAYANGLE/FTECH_BLDCV2_3_1          ----- -----  ----- -----
  +--> _DRV_COMMUTATION/MC_MOTORDRIVER_LAYER
  +--> _DRV_BEMFMASKANGLE/FTECH_BLDCV2_3_1

_DRV_BEMFMASKANGLE/FTECH_BLDCV2_3_1           ----- -----  ----- -----
  +--> _DRV_BEMFPHASECHOICE/FTECH_BLDCV2_3_1

DRV_BEMFTIM1RUAPP/FTECH_BLDCV2_3_1            ----- -----  ----- -----
  +--> _DRV_BEMFMASKANGLE/FTECH_BLDCV2_3_1
  +--> _DRV_BEMFPHASECHOICE/FTECH_BLDCV2_3_1

*** NEW ROOT ********************************

TIM23_ISR/INTERRUPT                           ----- -----  01EBH 01FCH
  +--> MDUAPP/FU68XX_DMC
  +--> _MDU_DIV_U16/FU68XX_MCMDU

MDUAPP/FU68XX_DMC                             ----- -----  ----- -----
  +--> _MDU_MULA_U16/FU68XX_MCMDU
  +--> _MDU_DIV_U32/FU68XX_MCMDU
  +--> _MDU_MULA_U32/FU68XX_MCMDU

_MDU_MULA_U16/FU68XX_MCMDU                    ----- -----  ----- -----

LX51 LINKER/LOCATER V4.66.1.0                                                         08/07/2017  15:30:51  PAGE 7


_MDU_DIV_U32/FU68XX_MCMDU                     ----- -----  01FDH 0208H

_MDU_MULA_U32/FU68XX_MCMDU                    ----- -----  01FDH 0203H

_MDU_DIV_U16/FU68XX_MCMDU                     ----- -----  ----- -----

*** NEW ROOT ********************************

TIM45_ISR/INTERRUPT                           ----- -----  ----- -----
  +--> MAINISR/MC_MOTORCOTROL_LAYER
  +--> KEY_FILTRATE/MC_KEY
  +--> PWMINONOFFSWITCH/MC_PWMIN

MAINISR/MC_MOTORCOTROL_LAYER                  ----- -----  ----- -----
  +--> SYSTICK_1MS/MC_MOTORCOTROL_LAYER
  +--> MCL_CHKSYSSTAGE/MC_MOTORCOTROL_LAYER
  +--> MCL_CHKPOWERSTAGE/MC_MOTORCOTROL_LAYER
  +--> _DRV_DUTYRAMPCALE/MC_MOTORDRIVER_LAYER
  +--> _FU68XX_PWM_UPDATE/MC_MOTORDRIVER_LAYER

SYSTICK_1MS/MC_MOTORCOTROL_LAYER              ----- -----  ----- -----

MCL_CHKSYSSTAGE/MC_MOTORCOTROL_LAYER          ----- -----  ----- -----

MCL_CHKPOWERSTAGE/MC_MOTORCOTROL_LAYER        ----- -----  ----- -----

_DRV_DUTYRAMPCALE/MC_MOTORDRIVER_LAYER        ----- -----  0209H 020AH

_FU68XX_PWM_UPDATE/MC_MOTORDRIVER_LAYER       ----- -----  0211H 0212H

KEY_FILTRATE/MC_KEY                           ----- -----  ----- -----

PWMINONOFFSWITCH/MC_PWMIN                     ----- -----  0209H 020CH
  +--> _BEEPREQUESTFUN/MC_BEEP

_BEEPREQUESTFUN/MC_BEEP                       ----- -----  ----- -----

*** NEW ROOT ********************************

ADC_ISR/INTERRUPT                             ----- -----  ----- -----
  +--> ADCGETVALUE/FU68XX_MCADC

ADCGETVALUE/FU68XX_MCADC                      ----- -----  020DH 020EH
  +--> _MC_LPF/FU68XX_MCLPF

_MC_LPF/FU68XX_MCLPF                          ----- -----  020FH 0210H
  +--> _LPF/FU68XX_MCLPF

_LPF/FU68XX_MCLPF                             ----- -----  ----- -----

*** NEW ROOT ********************************

CMP_ISR/INTERRUPT                             ----- -----  ----- -----

*** NEW ROOT ********************************

LVW_ISR/INTERRUPT                             ----- -----  ----- -----

*** NEW ROOT ********************************

?C_C51STARTUP                                 ----- -----  ----- -----
  +--> MAIN/MAIN
  +--> ?C_INITSEG

MAIN/MAIN                                     ----- -----  ----- -----
LX51 LINKER/LOCATER V4.66.1.0                                                         08/07/2017  15:30:51  PAGE 8


  +--> SYSTEMINIT/FU68XX_SYS
  +--> SOFTWAREINIT/MC_INIT
  +--> MCL_MODULEINIT/MC_INIT
  +--> UI/MC_USERINTERFACE_LAYER
  +--> MCL_MOTORC/MC_MOTORCOTROL_LAYER

SYSTEMINIT/FU68XX_SYS                         ----- -----  ----- -----
  +--> FU68XX_XRAM_ERASE/FU68XX_SYS
  +--> DRIVER_INIT/FU68XX_SYS
  +--> _VREFCONFIG/FU68XX_SYSTEM
  +--> VHALFCONFIG/FU68XX_SYSTEM

FU68XX_XRAM_ERASE/FU68XX_SYS                  ----- -----  ----- -----

DRIVER_INIT/FU68XX_SYS                        ----- -----  0211H 0214H

_VREFCONFIG/FU68XX_SYSTEM                     20H.2 20H.2  ----- -----

VHALFCONFIG/FU68XX_SYSTEM                     20H.2 20H.3  ----- -----

SOFTWAREINIT/MC_INIT                          ----- -----  ----- -----
  +--> GPIO_CONFIG/MC_INIT
  +--> TIM1_CONFIG/FU68XX_MCTIME
  +--> TIM2_CONFIG/FU68XX_MCTIME
  +--> TIM3_CONFIG/FU68XX_MCTIME
  +--> TIM4_CONFIG/FU68XX_MCTIME
  +--> ADC_CONFIG/FU68XX_MCADC
  +--> CMP_CONFIG/FU68XX_MCCMP
  +--> AMP_CONFIG/FU68XX_MCAMP
  +--> KEY_CONFIG/MC_KEY
  +--> HALL_INIT/FU68XX_MCHALL
  +--> MDUINIT/FU68XX_DMC
  +--> PWMININIT/MC_PWMIN
  +--> INTERRUPT_CONFIG/MC_INIT

GPIO_CONFIG/MC_INIT                           ----- -----  ----- -----

TIM1_CONFIG/FU68XX_MCTIME                     ----- -----  0211H 0211H

TIM2_CONFIG/FU68XX_MCTIME                     ----- -----  ----- -----

TIM3_CONFIG/FU68XX_MCTIME                     ----- -----  ----- -----

TIM4_CONFIG/FU68XX_MCTIME                     ----- -----  ----- -----

ADC_CONFIG/FU68XX_MCADC                       ----- -----  ----- -----

CMP_CONFIG/FU68XX_MCCMP                       ----- -----  ----- -----

AMP_CONFIG/FU68XX_MCAMP                       ----- -----  ----- -----

KEY_CONFIG/MC_KEY                             ----- -----  ----- -----

HALL_INIT/FU68XX_MCHALL                       ----- -----  ----- -----

MDUINIT/FU68XX_DMC                            ----- -----  ----- -----
  +--> MDUCONTROLINIT/FU68XX_DMC

MDUCONTROLINIT/FU68XX_DMC                     ----- -----  ----- -----

PWMININIT/MC_PWMIN                            ----- -----  0211H 0214H

INTERRUPT_CONFIG/MC_INIT                      ----- -----  ----- -----

MCL_MODULEINIT/MC_INIT                        ----- -----  ----- -----
LX51 LINKER/LOCATER V4.66.1.0                                                         08/07/2017  15:30:51  PAGE 9


  +--> ADCINIT/FU68XX_MCADC
  +--> PWMINIT/MC_INIT
  +--> BEMFINIT/MC_INIT

ADCINIT/FU68XX_MCADC                          ----- -----  ----- -----

PWMINIT/MC_INIT                               ----- -----  ----- -----

BEMFINIT/MC_INIT                              ----- -----  ----- -----

UI/MC_USERINTERFACE_LAYER                     ----- -----  ----- -----
  +--> _FAULT_LED/MC_LED
  +--> LED_SHOW/MC_LED
  +--> ADCGETCONVERSIONVALUE/FU68XX_MCADC
  +--> BEEPRESPONSE/MC_BEEP

_FAULT_LED/MC_LED                             ----- -----  ----- -----

LED_SHOW/MC_LED                               ----- -----  ----- -----

ADCGETCONVERSIONVALUE/FU68XX_MCADC            ----- -----  0211H 0216H

BEEPRESPONSE/MC_BEEP                          ----- -----  ----- -----
  +--> _BEEPTONE/MC_BEEP
  +--> _DELAYUS/MC_INIT
  +--> BEEPPERFORM/MC_BEEP

_BEEPTONE/MC_BEEP                             ----- -----  0217H 021FH
  +--> ?CO?MC_BEEP
  +--> _DELAY/MC_INIT

?CO?MC_BEEP                                   ----- -----  ----- -----

_DELAY/MC_INIT                                ----- -----  ----- -----

_DELAYUS/MC_INIT                              ----- -----  ----- -----
  +--> _DELAY/MC_INIT

BEEPPERFORM/MC_BEEP                           ----- -----  0211H 0216H
  +--> _BEEPTONE/MC_BEEP
  +--> _DELAYUS/MC_INIT

MCL_MOTORC/MC_MOTORCOTROL_LAYER               ----- -----  ----- -----
  +--> MCL_INIT/MC_MOTORCOTROL_LAYER
  +--> MCL_STOP/MC_MOTORCOTROL_LAYER
  +--> MCL_READY/MC_MOTORCOTROL_LAYER
  +--> MCL_STRACK/MC_MOTORCOTROL_LAYER
  +--> MCL_PRECHARGE/MC_MOTORCOTROL_LAYER
  +--> MCL_ALIGNMENT/MC_MOTORCOTROL_LAYER
  +--> MCL_OPENLOOP/MC_MOTORCOTROL_LAYER
  +--> MCL_NORMAL/MC_MOTORCOTROL_LAYER
  +--> MCL_FAILURE/MC_MOTORCOTROL_LAYER

MCL_INIT/MC_MOTORCOTROL_LAYER                 ----- -----  0211H 0211H
  +--> MCL_MODULEINIT/MC_INIT
  +--> _BEEPREQUESTFUN/MC_BEEP

MCL_STOP/MC_MOTORCOTROL_LAYER                 ----- -----  ----- -----
  +--> _FU68XX_PWM_UPDATE/MC_MOTORDRIVER_LAYER
  +--> _DRV_BEMFPHASECHOICE/FTECH_BLDCV2_3_1

MCL_READY/MC_MOTORCOTROL_LAYER                ----- -----  ----- -----
  +--> MCL_MODULEDEFAULT/MC_INIT

MCL_MODULEDEFAULT/MC_INIT                     ----- -----  ----- -----
LX51 LINKER/LOCATER V4.66.1.0                                                         08/07/2017  15:30:51  PAGE 10


  +--> BEMFDEFAULT/MC_INIT
  +--> TIMNMSDEFAULT/MC_INIT
  +--> KEY_INIT/MC_KEY
  +--> BEEPINIT/MC_BEEP

BEMFDEFAULT/MC_INIT                           ----- -----  ----- -----

TIMNMSDEFAULT/MC_INIT                         ----- -----  ----- -----

KEY_INIT/MC_KEY                               ----- -----  ----- -----

BEEPINIT/MC_BEEP                              ----- -----  ----- -----

MCL_STRACK/MC_MOTORCOTROL_LAYER               ----- -----  ----- -----
  +--> _DRV_BEMFPHASECHOICE/FTECH_BLDCV2_3_1

MCL_PRECHARGE/MC_MOTORCOTROL_LAYER            ----- -----  ----- -----
  +--> _FU68XX_PWM_UPDATE/MC_MOTORDRIVER_LAYER

MCL_ALIGNMENT/MC_MOTORCOTROL_LAYER            ----- -----  ----- -----
  +--> _FU68XX_PWM_UPDATE/MC_MOTORDRIVER_LAYER
  +--> _DRV_BEMFPHASECHOICE/FTECH_BLDCV2_3_1

MCL_OPENLOOP/MC_MOTORCOTROL_LAYER             ----- -----  ----- -----
  +--> _DRV_BEMFPHASECHOICE/FTECH_BLDCV2_3_1
  +--> DRV_SETSTEP/MC_MOTORDRIVER_LAYER
  +--> _DRV_COMMUTATION/MC_MOTORDRIVER_LAYER

MCL_NORMAL/MC_MOTORCOTROL_LAYER               ----- -----  ----- -----

MCL_FAILURE/MC_MOTORCOTROL_LAYER              ----- -----  ----- -----
  +--> MCL_MOTORRESTART/MC_MOTORFUNCTION_LAYER
  +--> MCL_STALLRESTART/MC_MOTORFUNCTION_LAYER

MCL_MOTORRESTART/MC_MOTORFUNCTION_LAYER       ----- -----  ----- -----

MCL_STALLRESTART/MC_MOTORFUNCTION_LAYER       ----- -----  ----- -----
  +--> MCL_MOTORRESTART/MC_MOTORFUNCTION_LAYER

?C_INITSEG                                    ----- -----  ----- -----



PUBLIC SYMBOLS OF MODULE:  .\obj\Ftech_BLDC (INTERRUPT)


      VALUE       CLASS    TYPE      PUBLIC SYMBOL NAME
      =================================================
      02000217H   XDATA    BYTE      ?_BeepTone?BYTE
*DEL*:00000000H   XDATA    BYTE      ?_Drv_SelfInspection?BYTE
      020001FDH   XDATA    BYTE      ?_MDU_DIV_U32?BYTE
*DEL*:00000000H   XDATA    BYTE      ?_MDU_MULA_S32?BYTE
      020001FDH   XDATA    BYTE      ?_MDU_MULA_U32?BYTE
      00000020H.2 BIT      BIT       ?_VREFConfig?BIT
*DEL*:00000000H.0 BIT      BIT       ?_WatchDogConfig?BIT
      010003ABH   CODE     ---       ?C?CASTF
      0100067FH   CODE     ---       ?C?CCASE
      00000000H   NUMBER   ---       ?C?CODESEG
      01000377H   CODE     ---       ?C?FCASTC
      01000372H   CODE     ---       ?C?FCASTI
      0100036DH   CODE     ---       ?C?FCASTL
      0100005DH   CODE     ---       ?C?FPADD
      010002F6H   CODE     ---       ?C?FPCMP
      010002F4H   CODE     ---       ?C?FPCMP3
      01000257H   CODE     ---       ?C?FPDIV
LX51 LINKER/LOCATER V4.66.1.0                                                         08/07/2017  15:30:51  PAGE 11


      010003E2H   CODE     ---       ?C?FPGETOPN2
      0100014EH   CODE     ---       ?C?FPMUL
      01000417H   CODE     ---       ?C?FPNANRESULT
      01000421H   CODE     ---       ?C?FPOVERFLOW
      010003F9H   CODE     ---       ?C?FPRESULT
      0100040DH   CODE     ---       ?C?FPRESULT2
      01000059H   CODE     ---       ?C?FPSUB
      0100041EH   CODE     ---       ?C?FPUNDERFLOW
      0100042CH   CODE     ---       ?C?IILDX
      0100046DH   CODE     ---       ?C?ILDOPTR
      01000442H   CODE     ---       ?C?ILDPTR
      010004A5H   CODE     ---       ?C?ISTOPTR
      010004D2H   CODE     ---       ?C?LADD
      010006A5H   CODE     ---       ?C?LIMUL
      0100062AH   CODE     ---       ?C?LLDXDATA
      01000636H   CODE     ---       ?C?LLDXDATA0
      010005BBH   CODE     ---       ?C?LNEG
      01000617H   CODE     ---       ?C?LSHL
      0100064EH   CODE     ---       ?C?LSTKXDATA
      01000642H   CODE     ---       ?C?LSTXDATA
      010004DFH   CODE     ---       ?C?LSUB
      010005C9H   CODE     ---       ?C?SLCMP
      01000603H   CODE     ---       ?C?SLSHR
      010005DFH   CODE     ---       ?C?ULCMP
      01000529H   CODE     ---       ?C?ULDIV
      010005F0H   CODE     ---       ?C?ULSHR
      00000000H   NUMBER   ---       ?C?XDATASEG
      01002521H   CODE     ---       ?C_START
      01000000H   CODE     ---       ?C_STARTUP
*DEL*:00000000H.0 BIT      BIT       ?ExternalSlowClockConfig?BIT
*DEL*:00000000H.0 BIT      BIT       ?InternalFastClockConfig?BIT
*DEL*:00000000H.0 BIT      BIT       ?LVDPowerDownDetectConfig?BIT
*DEL*:00000000H.0 BIT      BIT       ?LVDPowerDownWarnIEConfig?BIT
*DEL*:00000000H.0 BIT      BIT       ?SystemFastClockConfig?BIT
      00000020H.2 BIT      BIT       ?VHALFConfig?BIT
      01003053H   CODE     ---       _BeepRequestFun
      01001A6CH   CODE     ---       _BeepTone
      010030C4H   CODE     ---       _Delay
      0100301BH   CODE     ---       _Delayus
      01001C12H   CODE     ---       _Drv_BemfdelayAngle
      01002656H   CODE     ---       _Drv_BemfMaskAngle
      01002FE0H   CODE     ---       _Drv_BemfPhaseChoice
      01002B02H   CODE     ---       _Drv_Commutation
      01001F28H   CODE     ---       _Drv_DutyRampCale
*DEL*:00000000H   CODE     ---       _Drv_HallDriveD
*DEL*:00000000H   CODE     ---       _Drv_HallDriveS
*DEL*:00000000H   CODE     ---       _Drv_PowerThermCalc
*DEL*:00000000H   CODE     ---       _Drv_SelfInspection
*DEL*:00000000H   CODE     ---       _Drv_SpeedRampCale
      01002811H   CODE     ---       _Fault_Led
*DEL*:00000000H   CODE     ---       _Flash_KeyWriteValue
*DEL*:00000000H   CODE     ---       _Flash_Sector_Erase
*DEL*:00000000H   CODE     ---       _Flash_Sector_Write
      01002DAEH   CODE     ---       _Fu68xx_PWM_Update
      01002F1EH   CODE     ---       _LPF
      01002F42H   CODE     ---       _MC_LPF
      01002C71H   CODE     ---       _MDU_DIV_U16
      010021E7H   CODE     ---       _MDU_DIV_U32
*DEL*:00000000H   CODE     ---       _MDU_MUL_S16
*DEL*:00000000H   CODE     ---       _MDU_MUL_S32
*DEL*:00000000H   CODE     ---       _MDU_MUL_U16
*DEL*:00000000H   CODE     ---       _MDU_MUL_U32
*DEL*:00000000H   CODE     ---       _MDU_MULA_S16
*DEL*:00000000H   CODE     ---       _MDU_MULA_S32
      01002E25H   CODE     ---       _MDU_MULA_U16
LX51 LINKER/LOCATER V4.66.1.0                                                         08/07/2017  15:30:51  PAGE 12


      01002A5EH   CODE     ---       _MDU_MULA_U32
*DEL*:00000000H   CODE     ---       _Pid_calc
*DEL*:00000000H   CODE     ---       _SPI_SendData
*DEL*:00000000H   CODE     ---       _UART_SendData
      01002C2CH   CODE     ---       _VREFConfig
*DEL*:00000000H   CODE     ---       _WatchDogConfig
*SFR* 000000D0H.6 DATA     BIT       AC
*SFR* 000000E0H   DATA     BYTE      ACC
      01002321H   CODE     ---       ADC_Config
      01002949H   CODE     ---       ADC_ISR
      01002EF4H   CODE     ---       ADCGetConversionValue
*DEL*:00000000H   CODE     ---       ADCGetFastValue
      01001980H   CODE     ---       ADCGetValue
      0100149EH   CODE     ---       ADCInit
      0100306CH   CODE     ---       AMP_Config
*SFR* 000000F0H   DATA     BYTE      B
      0200027FH   XDATA    ---       Beep
      010030F4H   CODE     ---       BeepInit
      01003147H   CONST    ---       BeepNote
      010028E3H   CODE     ---       Beepperform
      01002096H   CODE     ---       BeepResponse
      0100312FH   CONST    ---       BEMF2SECTION
      010026C8H   CODE     ---       BemfDefault
      01001E6FH   CODE     ---       Bemfinit
      01002566H   CODE     ---       CMP_Config
*SFR* 000000D5H   DATA     BYTE      CMP_CR0
*SFR* 000000D6H   DATA     BYTE      CMP_CR1
*SFR* 000000DAH   DATA     BYTE      CMP_CR2
      0100003EH   CODE     ---       CMP_ISR
*SFR* 000000D7H   DATA     BYTE      CMP_SR
      02000000H   XDATA    ---       Ctl
*SFR* 000000D0H.7 DATA     BIT       CY
*SFR* 00000082H   DATA     WORD      DP
*SFR* 00000083H   DATA     BYTE      DPH
*SFR* 00000082H   DATA     BYTE      DPL
      010029AAH   CODE     ---       Driver_Init
      0200013DH   XDATA    ---       Drv
*DEL*:00000000H   CODE     ---       Drv_BemfSetFRFun
      01000A53H   CODE     ---       Drv_BemfTim1PDapp
      01002D70H   CODE     ---       Drv_BemfTim1RUapp
*SFR* 000000F8H   DATA     BYTE      DRV_OUT
*DEL*:00000000H   CODE     ---       Drv_PowerClosedCalc
      01003137H   CONST    ---       DRV_SECTION2OCM
      01001206H   CODE     ---       Drv_SectionCheak
      01002D32H   CODE     ---       Drv_SetStep
      0100002AH   CODE     ---       Drv_Stb3Calc
*SFR* 000000A8H.7 DATA     BIT       EA
*SFR* 000000A8H.4 DATA     BIT       ES0
*SFR* 000000D9H   DATA     BYTE      EVT_FILT
*SFR* 000000A8H   DATA     BIT       EX0
*SFR* 000000A8H.2 DATA     BIT       EX1
*DEL*:00000000H   CODE     ---       ExternalSlowClockConfig
*SFR* 000000D0H.5 DATA     BIT       F0
*SFR* 000000D0H.1 DATA     BIT       F1
*DEL*:00000000H   CODE     ---       FastADConvert
      00000020H.0 BIT      BIT       FlagMDUDIV
      00000020H.1 BIT      BIT       FlagMDUMUL
*DEL*:00000000H   CODE     ---       Flash_ErasePageRom
*DEL*:00000000H   CODE     ---       Flash_GetAddress
*SFR* 00000084H   DATA     BYTE      FLKEY
*SFR* 000000E8H   DATA     BYTE      FOC_SET0
*SFR* 000000E9H   DATA     BYTE      FOC_SET1
*SFR* 000000E8H.7 DATA     BIT       FOCEN
      01003084H   CODE     ---       fu68xx_xram_erase
*SFR* 00000080H   DATA     BIT       GP00
LX51 LINKER/LOCATER V4.66.1.0                                                         08/07/2017  15:30:51  PAGE 13


*SFR* 00000080H.1 DATA     BIT       GP01
*SFR* 00000080H.2 DATA     BIT       GP02
*SFR* 00000080H.3 DATA     BIT       GP03
*SFR* 00000080H.4 DATA     BIT       GP04
*SFR* 00000080H.5 DATA     BIT       GP05
*SFR* 00000080H.6 DATA     BIT       GP06
*SFR* 00000080H.7 DATA     BIT       GP07
*SFR* 00000090H   DATA     BIT       GP10
*SFR* 00000090H.1 DATA     BIT       GP11
*SFR* 00000090H.2 DATA     BIT       GP12
*SFR* 00000090H.3 DATA     BIT       GP13
*SFR* 00000090H.4 DATA     BIT       GP14
*SFR* 00000090H.5 DATA     BIT       GP15
*SFR* 00000090H.6 DATA     BIT       GP16
*SFR* 00000090H.7 DATA     BIT       GP17
*SFR* 000000A0H   DATA     BIT       GP20
*SFR* 000000A0H.1 DATA     BIT       GP21
*SFR* 000000A0H.2 DATA     BIT       GP22
*SFR* 000000A0H.3 DATA     BIT       GP23
*SFR* 000000A0H.4 DATA     BIT       GP24
*SFR* 000000A0H.5 DATA     BIT       GP25
*SFR* 000000A0H.6 DATA     BIT       GP26
*SFR* 000000A0H.7 DATA     BIT       GP27
*SFR* 000000B0H   DATA     BIT       GP30
*SFR* 000000B0H.1 DATA     BIT       GP31
*SFR* 000000B0H.2 DATA     BIT       GP32
*SFR* 000000B0H.3 DATA     BIT       GP33
*SFR* 000000B0H.4 DATA     BIT       GP34
*SFR* 000000B0H.5 DATA     BIT       GP35
*SFR* 000000B0H.6 DATA     BIT       GP36
*SFR* 000000B0H.7 DATA     BIT       GP37
      01003038H   CODE     ---       GPIO_Config
*DEL*:00000008H   CONST    ---       HALL2SECTIONCCW
*DEL*:00000000H   CONST    ---       HALL2SECTIONCW
      010030D5H   CODE     ---       Hall_Init
*DEL*:00000000H   CODE     ---       Hall_IRQHandler
*DEL*:00000000H   CODE     ---       Hallinit
*SFR* 000000A8H   DATA     BYTE      IE
*SFR* 00000088H.2 DATA     BIT       IF0
*DEL*:00000000H   CODE     ---       InternalFastClockConfig
      01002FFEH   CODE     ---       Interrupt_Config
*SFR* 000000B8H   DATA     BYTE      IP0
*SFR* 000000C0H   DATA     BYTE      IP1
*SFR* 000000C8H   DATA     BYTE      IP2
*SFR* 000000D8H   DATA     BYTE      IP3
*SFR* 00000088H   DATA     BIT       IT00
*SFR* 00000088H.1 DATA     BIT       IT01
*SFR* 00000088H.3 DATA     BIT       IT10
*SFR* 00000088H.4 DATA     BIT       IT11
      0100310CH   CODE     ---       Key_Config
      01002B9DH   CODE     ---       Key_Filtrate
      01002DEBH   CODE     ---       Key_init
      0100002EH   CODE     ---       LED_show
      02000282H   XDATA    BYTE      LPF_DONE
*SFR* 000000DCH   DATA     WORD      LPF_K
*SFR* 000000DDH   DATA     BYTE      LPF_KH
*SFR* 000000DCH   DATA     BYTE      LPF_KL
*SFR* 000000DEH   DATA     WORD      LPF_X
*SFR* 000000DFH   DATA     BYTE      LPF_XH
*SFR* 000000DEH   DATA     BYTE      LPF_XL
*SFR* 000000E6H   DATA     WORD      LPF_Y
*SFR* 000000E7H   DATA     BYTE      LPF_YH
*SFR* 000000E6H   DATA     BYTE      LPF_YL
*DEL*:00000000H   CODE     ---       LVDPowerDownDetectConfig
*DEL*:00000000H   CODE     ---       LVDPowerDownWarnIEConfig
LX51 LINKER/LOCATER V4.66.1.0                                                         08/07/2017  15:30:51  PAGE 14


*SFR* 000000DBH   DATA     BYTE      LVSR
      01003117H   CODE     ---       LVW_ISR
      01002FA4H   CODE     ---       main
      01002449H   CODE     ---       MainISR
*SFR* 000000A8H.5 DATA     BIT       MCDIE
*SFR* 00000088H.6 DATA     BIT       MCDIF
      01001DB2H   CODE     ---       MCL_Alignment
*DEL*:00000000H   CODE     ---       MCL_BKIN_IRQHandler
      010023B6H   CODE     ---       MCL_ChkPowerStage
      01002A05H   CODE     ---       MCL_ChkSysStage
      010015AFH   CODE     ---       MCL_Failure
      01002F85H   CODE     ---       MCL_Init
      01002AB4H   CODE     ---       MCL_ModuleDefault
      01002289H   CODE     ---       MCL_ModuleInit
      010027A4H   CODE     ---       MCL_MotorC
      010030E6H   CODE     ---       Mcl_MotorRestart
*DEL*:00000000H   CODE     ---       Mcl_NoloadCale
      010025DFH   CODE     ---       MCL_Normal
      01000CBFH   CODE     ---       MCL_OpenLoop
      01001B3BH   CODE     ---       MCL_Precharge
      01002ECAH   CODE     ---       MCL_Ready
      01002F66H   CODE     ---       Mcl_StallRestart
      01001FE1H   CODE     ---       MCL_Stop
      010017A8H   CODE     ---       MCL_Strack
*SFR* 000000C4H   DATA     BYTE      MD_DA0
*SFR* 000000C5H   DATA     BYTE      MD_DA1
*SFR* 000000C6H   DATA     BYTE      MD_DA2
*SFR* 000000C7H   DATA     BYTE      MD_DA3
*SFR* 000000C6H   DATA     WORD      MD_DAH
*SFR* 000000C4H   DATA     WORD      MD_DAL
*SFR* 000000CCH   DATA     BYTE      MD_DB0
*SFR* 000000CDH   DATA     BYTE      MD_DB1
*SFR* 000000CEH   DATA     BYTE      MD_DB2
*SFR* 000000CFH   DATA     BYTE      MD_DB3
*SFR* 000000CEH   DATA     WORD      MD_DBH
*SFR* 000000CCH   DATA     WORD      MD_DBL
*SFR* 000000C2H   DATA     WORD      MD_MA
*SFR* 000000C3H   DATA     BYTE      MD_MAH
*SFR* 000000C2H   DATA     BYTE      MD_MAL
*SFR* 000000CAH   DATA     WORD      MD_MB
*SFR* 000000CBH   DATA     BYTE      MD_MBH
*SFR* 000000CAH   DATA     BYTE      MD_MBL
*SFR* 000000C1H   DATA     BYTE      MD_MODE
*DEL*:00000000H   CODE     ---       MDU_Init
      01000EB0H   CODE     ---       MDUAPP
      02000220H   XDATA    ---       MDUControl
      010030B0H   CODE     ---       MDUControlInit
      01003100H   CODE     ---       MDUInit
*SFR* 00000098H.6 DATA     BIT       MOD0
*SFR* 00000098H.7 DATA     BIT       MOD1
*SFR* 000000F8H.7 DATA     BIT       MOE
      0200027AH   XDATA    BYTE      OffsetRomAddressCur
      02000279H   XDATA    BYTE      OffsetRomAddressTar
*SFR* 000000F8H.6 DATA     BIT       OIS4
*SFR* 000000F8H   DATA     BIT       OISUH
*SFR* 000000F8H.1 DATA     BIT       OISUL
*SFR* 000000F8H.2 DATA     BIT       OISVH
*SFR* 000000F8H.3 DATA     BIT       OISVL
*SFR* 000000F8H.4 DATA     BIT       OISWH
*SFR* 000000F8H.5 DATA     BIT       OISWL
*SFR* 000000F1H   DATA     BYTE      OSC_CFG
*SFR* 000000D0H.2 DATA     BIT       OV
*SFR* 000000D0H   DATA     BIT       P
*SFR* 00000080H   DATA     BYTE      P0
*SFR* 000000FCH   DATA     BYTE      P0_OE
LX51 LINKER/LOCATER V4.66.1.0                                                         08/07/2017  15:30:51  PAGE 15


*SFR* 00000090H   DATA     BYTE      P1
*SFR* 000000FDH   DATA     BYTE      P1_OE
*SFR* 000000D1H   DATA     BYTE      P1IE
*SFR* 000000D2H   DATA     BYTE      P1IF
*SFR* 000000A0H   DATA     BYTE      P2
*SFR* 000000FEH   DATA     BYTE      P2_OE
*SFR* 000000D3H   DATA     BYTE      P2IE
*SFR* 000000D4H   DATA     BYTE      P2IF
*SFR* 000000B0H   DATA     BYTE      P3
*SFR* 000000FFH   DATA     BYTE      P3_OE
*SFR* 000000C0H.4 DATA     BIT       PADC0
*SFR* 000000C0H.5 DATA     BIT       PADC1
      0200027DH   XDATA    ---       PageRomAddress
*SFR* 000000C0H.6 DATA     BIT       PCMP0
*SFR* 000000C0H.7 DATA     BIT       PCMP1
*SFR* 00000087H   DATA     BYTE      PCON
      01002E5FH   CODE     ---       PDEventPeriodCalc
*SFR* 000000B8H.6 DATA     BIT       PFOC0
*SFR* 000000B8H.7 DATA     BIT       PFOC1
*SFR* 000000D8H.2 DATA     BIT       PI2C0
*SFR* 000000D8H.3 DATA     BIT       PI2C1
*SFR* 000000EAH   DATA     WORD      PI_EK
*SFR* 000000EBH   DATA     BYTE      PI_EKH
*SFR* 000000EAH   DATA     BYTE      PI_EKL
*SFR* 000000F2H   DATA     WORD      PI_KI
*SFR* 000000F3H   DATA     BYTE      PI_KIH
*SFR* 000000F2H   DATA     BYTE      PI_KIL
*SFR* 000000EEH   DATA     WORD      PI_KP
*SFR* 000000EFH   DATA     BYTE      PI_KPH
*SFR* 000000EEH   DATA     BYTE      PI_KPL
*SFR* 000000ECH   DATA     WORD      PI_UK
*SFR* 000000EDH   DATA     BYTE      PI_UKH
*SFR* 000000ECH   DATA     BYTE      PI_UKL
*SFR* 000000F4H   DATA     WORD      PI_UKMAX
*SFR* 000000F5H   DATA     BYTE      PI_UKMAXH
*SFR* 000000F4H   DATA     BYTE      PI_UKMAXL
*SFR* 000000F6H   DATA     WORD      PI_UKMIN
*SFR* 000000F7H   DATA     BYTE      PI_UKMINH
*SFR* 000000F6H   DATA     BYTE      PI_UKMINL
*DEL*:00000000H   CODE     ---       Pid_Config
      00000035H   IDATA    ---       pid_is
*DEL*:00000000H   CODE     ---       Pid_IsInit
      00000021H   IDATA    ---       pid_spd
*DEL*:00000000H   CODE     ---       Pid_SpdInit
*SFR* 000000F9H   DATA     BYTE      PL_CR
*SFR* 000000B8H   DATA     BIT       PLVW0
*SFR* 000000B8H.1 DATA     BIT       PLVW1
*SFR* 000000D8H.6 DATA     BIT       PMCD0
*SFR* 000000D8H.7 DATA     BIT       PMCD1
      02000273H   XDATA    ---       Power
*SFR* 000000C8H   DATA     BIT       PRTC0
*SFR* 000000C8H.1 DATA     BIT       PRTC1
*SFR* 00000085H   DATA     BYTE      PSCTL
*SFR* 000000D8H.4 DATA     BIT       PSPI0
*SFR* 000000D8H.5 DATA     BIT       PSPI1
*SFR* 000000D0H   DATA     BYTE      PSW
*SFR* 000000C0H   DATA     BIT       PTIM00
*SFR* 000000C0H.1 DATA     BIT       PTIM01
*SFR* 000000C0H.2 DATA     BIT       PTIM10
*SFR* 000000C0H.3 DATA     BIT       PTIM11
*SFR* 000000C8H.2 DATA     BIT       PTIM230
*SFR* 000000C8H.3 DATA     BIT       PTIM231
*SFR* 000000C8H.4 DATA     BIT       PTIM450
*SFR* 000000C8H.5 DATA     BIT       PTIM451
*SFR* 000000C8H.6 DATA     BIT       PTSD0
LX51 LINKER/LOCATER V4.66.1.0                                                         08/07/2017  15:30:51  PAGE 16


*SFR* 000000C8H.7 DATA     BIT       PTSD1
*SFR* 000000D8H   DATA     BIT       PUART0
*SFR* 000000D8H.1 DATA     BIT       PUART1
      02000246H   XDATA    ---       PWMINCtl
      01001060H   CODE     ---       PWMINInit
      01002BE6H   CODE     ---       PWMinit
      010006D2H   CODE     ---       PWMINOnOffSwitch
      02000261H   XDATA    BYTE      PwmInResetFlag
*DEL*:00000000H   CODE     ---       PWMScan
*SFR* 000000B8H.2 DATA     BIT       PX00
*SFR* 000000B8H.3 DATA     BIT       PX01
*SFR* 000000B8H.4 DATA     BIT       PX10
*SFR* 000000B8H.5 DATA     BIT       PX11
*SFR* 00000098H.2 DATA     BIT       RB8
      0200027BH   XDATA    BYTE      ReadRomValue
*SFR* 00000098H.4 DATA     BIT       REN
*SFR* 00000098H   DATA     BIT       RI
*SFR* 000000D0H.3 DATA     BIT       RS0
*SFR* 000000D0H.4 DATA     BIT       RS1
*SFR* 000000C9H   DATA     BYTE      RSTSRC
*SFR* 000000A8H.6 DATA     BIT       RTCIE
*SFR* 00000098H.5 DATA     BIT       SM2
      01002B50H   CODE     ---       SoftwareInit
*SFR* 00000081H   DATA     BYTE      SP
*DEL*:00000000H   CODE     ---       SPI_Config
*SFR* 000000A8H.3 DATA     BIT       SPIIE
*SFR* 000000E4H   DATA     WORD      SV_ANGLE
*SFR* 000000E5H   DATA     BYTE      SV_ANGLEH
*SFR* 000000E4H   DATA     BYTE      SV_ANGLEL
*SFR* 000000E1H   DATA     BYTE      SV_CR
*SFR* 000000E2H   DATA     WORD      SV_US
*SFR* 000000E3H   DATA     BYTE      SV_USH
*SFR* 000000E2H   DATA     BYTE      SV_USL
*DEL*:00000000H   CODE     ---       SystemFastClockConfig
      01000006H   CODE     ---       SystemInit
      01002142H   CODE     ---       SysTick_1ms
*SFR* 00000098H.3 DATA     BIT       TB8
*SFR* 00000088H   DATA     BYTE      TCON
*SFR* 00000098H.1 DATA     BIT       TI
*SFR* 000000B6H   DATA     WORD      TIM0_CCR1
*SFR* 000000B7H   DATA     BYTE      TIM0_CCR1H
*SFR* 000000B6H   DATA     BYTE      TIM0_CCR1L
*SFR* 000000BAH   DATA     WORD      TIM0_CCR2
*SFR* 000000BBH   DATA     BYTE      TIM0_CCR2H
*SFR* 000000BAH   DATA     BYTE      TIM0_CCR2L
*SFR* 000000BCH   DATA     WORD      TIM0_CCR3
*SFR* 000000BDH   DATA     BYTE      TIM0_CCR3H
*SFR* 000000BCH   DATA     BYTE      TIM0_CCR3L
*SFR* 000000BEH   DATA     WORD      TIM0_CCR4
*SFR* 000000BFH   DATA     BYTE      TIM0_CCR4H
*SFR* 000000BEH   DATA     BYTE      TIM0_CCR4L
*SFR* 000000B9H   DATA     BYTE      TIM0_IER
*SFR* 000000B1H   DATA     BYTE      TIM0_SR1
      010016B0H   CODE     ---       TIM1_Config
      01001897H   CODE     ---       TIM1_ISR
      01003127H   CONST    ---       TIM1CRO_CCW
      0100311FH   CONST    ---       TIM1CRO_CW
      01001357H   CODE     ---       TIM23_ISR
*SFR* 000000B4H   DATA     WORD      TIM2_ADTR
*SFR* 000000B5H   DATA     BYTE      TIM2_ADTRH
*SFR* 000000B4H   DATA     BYTE      TIM2_ADTRL
*SFR* 000000AEH   DATA     WORD      TIM2_ARR
*SFR* 000000AFH   DATA     BYTE      TIM2_ARRH
*SFR* 000000AEH   DATA     BYTE      TIM2_ARRL
*SFR* 000000B2H   DATA     WORD      TIM2_CMTR
LX51 LINKER/LOCATER V4.66.1.0                                                         08/07/2017  15:30:51  PAGE 17


*SFR* 000000B3H   DATA     BYTE      TIM2_CMTRH
*SFR* 000000B2H   DATA     BYTE      TIM2_CMTRL
*SFR* 000000AAH   DATA     WORD      TIM2_CNTR
*SFR* 000000ABH   DATA     BYTE      TIM2_CNTRH
*SFR* 000000AAH   DATA     BYTE      TIM2_CNTRL
      01002E96H   CODE     ---       TIM2_Config
*SFR* 000000A1H   DATA     BYTE      TIM2_CR0
*SFR* 000000A9H   DATA     BYTE      TIM2_CR1
*SFR* 000000ACH   DATA     WORD      TIM2_DR
*SFR* 000000ADH   DATA     BYTE      TIM2_DRH
*SFR* 000000ACH   DATA     BYTE      TIM2_DRL
*SFR* 000000A6H   DATA     WORD      TIM3_ARR
*SFR* 000000A7H   DATA     BYTE      TIM3_ARRH
*SFR* 000000A6H   DATA     BYTE      TIM3_ARRL
*SFR* 000000A2H   DATA     WORD      TIM3_CNTR
*SFR* 000000A3H   DATA     BYTE      TIM3_CNTRH
*SFR* 000000A2H   DATA     BYTE      TIM3_CNTRL
      01002736H   CODE     ---       TIM3_Config
*SFR* 0000009CH   DATA     BYTE      TIM3_CR0
*SFR* 0000009DH   DATA     BYTE      TIM3_CR1
*SFR* 000000A4H   DATA     WORD      TIM3_DR
*SFR* 000000A5H   DATA     BYTE      TIM3_DRH
*SFR* 000000A4H   DATA     BYTE      TIM3_DRL
      0100287CH   CODE     ---       TIM45_ISR
*SFR* 00000096H   DATA     WORD      TIM4_ARR
*SFR* 00000097H   DATA     BYTE      TIM4_ARRH
*SFR* 00000096H   DATA     BYTE      TIM4_ARRL
*SFR* 00000092H   DATA     WORD      TIM4_CNTR
*SFR* 00000093H   DATA     BYTE      TIM4_CNTRH
*SFR* 00000092H   DATA     BYTE      TIM4_CNTRL
      01002CF2H   CODE     ---       TIM4_Config
*SFR* 0000009EH   DATA     BYTE      TIM4_CR0
*SFR* 0000009FH   DATA     BYTE      TIM4_CR1
*SFR* 00000094H   DATA     WORD      TIM4_DR
*SFR* 00000095H   DATA     BYTE      TIM4_DRH
*SFR* 00000094H   DATA     BYTE      TIM4_DRL
*SFR* 0000008EH   DATA     WORD      TIM5_ARR
*SFR* 0000008FH   DATA     BYTE      TIM5_ARRH
*SFR* 0000008EH   DATA     BYTE      TIM5_ARRL
*SFR* 0000008AH   DATA     WORD      TIM5_CNTR
*SFR* 0000008BH   DATA     BYTE      TIM5_CNTRH
*SFR* 0000008AH   DATA     BYTE      TIM5_CNTRL
*SFR* 00000089H   DATA     BYTE      TIM5_CR0
*SFR* 00000091H   DATA     BYTE      TIM5_CR1
*SFR* 0000008CH   DATA     WORD      TIM5_DR
*SFR* 0000008DH   DATA     BYTE      TIM5_DRH
*SFR* 0000008CH   DATA     BYTE      TIM5_DRL
      01002CB2H   CODE     ---       TimNmsDefault
*SFR* 000000A8H.1 DATA     BIT       TSDIE
*SFR* 00000088H.5 DATA     BIT       TSDIF
      02000272H   XDATA    BYTE      u8KeyForbid
      02000281H   XDATA    ---       Uc
      01001CE4H   CODE     ---       UI
*DEL*:00000000H   CODE     ---       USRT_Config
*SFR* 0000009AH   DATA     WORD      UT_BAUD
*SFR* 0000009BH   DATA     BYTE      UT_BAUDH
*SFR* 0000009AH   DATA     BYTE      UT_BAUDL
*SFR* 00000098H   DATA     BYTE      UT_CR
*SFR* 00000099H   DATA     BYTE      UT_DR
      01002FC2H   CODE     ---       VHALFConfig
*DEL*:00000000H   CODE     ---       WatchDogRefresh
      0200027CH   XDATA    BYTE      WriteRomValue
      02000262H   XDATA    ---       X0
      02000266H   XDATA    ---       X1
      0200026AH   XDATA    ---       X2
LX51 LINKER/LOCATER V4.66.1.0                                                         08/07/2017  15:30:51  PAGE 18


      0200026EH   XDATA    ---       X3



SYMBOL TABLE OF MODULE:  .\obj\Ftech_BLDC (INTERRUPT)

      VALUE       REP       CLASS    TYPE      SYMBOL NAME
      ====================================================
      ---         MODULE    ---      ---       INTERRUPT
      01003117H   PUBLIC    CODE     ---       LVW_ISR
      0100003EH   PUBLIC    CODE     ---       CMP_ISR
      01002949H   PUBLIC    CODE     ---       ADC_ISR
      0100287CH   PUBLIC    CODE     ---       TIM45_ISR
      01001357H   PUBLIC    CODE     ---       TIM23_ISR
      01001897H   PUBLIC    CODE     ---       TIM1_ISR
      000000E2H   SFRSYM    DATA     BYTE      SV_USL
      000000ABH   SFRSYM    DATA     BYTE      TIM2_CNTRH
      000000B0H.4 SFRSYM    DATA     BIT       GP34
      000000A0H.5 SFRSYM    DATA     BIT       GP25
      00000090H.6 SFRSYM    DATA     BIT       GP16
      00000080H.7 SFRSYM    DATA     BIT       GP07
      00000088H.1 SFRSYM    DATA     BIT       IT01
      00000088H.3 SFRSYM    DATA     BIT       IT10
      000000F6H   SFRSYM    DATA     WORD      PI_UKMIN
      000000C2H   SFRSYM    DATA     WORD      MD_MA
      000000A3H   SFRSYM    DATA     BYTE      TIM3_CNTRH
      000000B0H.5 SFRSYM    DATA     BIT       GP35
      000000A0H.6 SFRSYM    DATA     BIT       GP26
      00000090H.7 SFRSYM    DATA     BIT       GP17
      00000080H   SFRSYM    DATA     BYTE      P0
      00000088H.4 SFRSYM    DATA     BIT       IT11
      000000CAH   SFRSYM    DATA     WORD      MD_MB
      00000093H   SFRSYM    DATA     BYTE      TIM4_CNTRH
      000000B0H.6 SFRSYM    DATA     BIT       GP36
      000000A0H.7 SFRSYM    DATA     BIT       GP27
      00000090H   SFRSYM    DATA     BYTE      P1
      000000D9H   SFRSYM    DATA     BYTE      EVT_FILT
      000000F4H   SFRSYM    DATA     WORD      PI_UKMAX
      0000008BH   SFRSYM    DATA     BYTE      TIM5_CNTRH
      000000B2H   SFRSYM    DATA     BYTE      TIM2_CMTRL
      000000B0H.7 SFRSYM    DATA     BIT       GP37
      000000A0H   SFRSYM    DATA     BYTE      P2
      000000AAH   SFRSYM    DATA     BYTE      TIM2_CNTRL
      000000B0H   SFRSYM    DATA     BYTE      P3
      000000A2H   SFRSYM    DATA     BYTE      TIM3_CNTRL
      000000D0H.6 SFRSYM    DATA     BIT       AC
      00000092H   SFRSYM    DATA     BYTE      TIM4_CNTRL
      0000008AH   SFRSYM    DATA     BYTE      TIM5_CNTRL
      000000B6H   SFRSYM    DATA     WORD      TIM0_CCR1
      000000A8H.7 SFRSYM    DATA     BIT       EA
      000000D5H   SFRSYM    DATA     BYTE      CMP_CR0
      000000BAH   SFRSYM    DATA     WORD      TIM0_CCR2
      000000D6H   SFRSYM    DATA     BYTE      CMP_CR1
      000000BCH   SFRSYM    DATA     WORD      TIM0_CCR3
      00000085H   SFRSYM    DATA     BYTE      PSCTL
      000000DAH   SFRSYM    DATA     BYTE      CMP_CR2
      000000BEH   SFRSYM    DATA     WORD      TIM0_CCR4
      000000B8H.2 SFRSYM    DATA     BIT       PX00
      000000EAH   SFRSYM    DATA     WORD      PI_EK
      000000F8H   SFRSYM    DATA     BIT       OISUH
      000000B8H.3 SFRSYM    DATA     BIT       PX01
      000000B8H.4 SFRSYM    DATA     BIT       PX10
      000000F8H.2 SFRSYM    DATA     BIT       OISVH
      000000B8H.5 SFRSYM    DATA     BIT       PX11
      000000F8H.4 SFRSYM    DATA     BIT       OISWH
LX51 LINKER/LOCATER V4.66.1.0                                                         08/07/2017  15:30:51  PAGE 19


      000000DCH   SFRSYM    DATA     WORD      LPF_K
      000000F2H   SFRSYM    DATA     WORD      PI_KI
      000000F8H.1 SFRSYM    DATA     BIT       OISUL
      000000A8H   SFRSYM    DATA     BYTE      IE
      000000F8H.3 SFRSYM    DATA     BIT       OISVL
      000000F8H.5 SFRSYM    DATA     BIT       OISWL
      000000D1H   SFRSYM    DATA     BYTE      P1IE
      00000098H.6 SFRSYM    DATA     BIT       MOD0
      000000D3H   SFRSYM    DATA     BYTE      P2IE
      000000D2H   SFRSYM    DATA     BYTE      P1IF
      000000F9H   SFRSYM    DATA     BYTE      PL_CR
      00000098H.7 SFRSYM    DATA     BIT       MOD1
      000000D4H   SFRSYM    DATA     BYTE      P2IF
      000000ACH   SFRSYM    DATA     WORD      TIM2_DR
      00000082H   SFRSYM    DATA     WORD      DP
      000000EEH   SFRSYM    DATA     WORD      PI_KP
      000000A4H   SFRSYM    DATA     WORD      TIM3_DR
      00000094H   SFRSYM    DATA     WORD      TIM4_DR
      0000008CH   SFRSYM    DATA     WORD      TIM5_DR
      000000F1H   SFRSYM    DATA     BYTE      OSC_CFG
      000000C1H   SFRSYM    DATA     BYTE      MD_MODE
      000000ECH   SFRSYM    DATA     WORD      PI_UK
      000000DEH   SFRSYM    DATA     WORD      LPF_X
      00000098H   SFRSYM    DATA     BIT       RI
      000000E6H   SFRSYM    DATA     WORD      LPF_Y
      000000C0H   SFRSYM    DATA     BIT       PTIM00
      000000D0H.7 SFRSYM    DATA     BIT       CY
      00000098H.1 SFRSYM    DATA     BIT       TI
      000000C0H.1 SFRSYM    DATA     BIT       PTIM01
      000000C0H.2 SFRSYM    DATA     BIT       PTIM10
      000000C0H.3 SFRSYM    DATA     BIT       PTIM11
      000000E1H   SFRSYM    DATA     BYTE      SV_CR
      00000098H   SFRSYM    DATA     BYTE      UT_CR
      00000099H   SFRSYM    DATA     BYTE      UT_DR
      000000F8H.6 SFRSYM    DATA     BIT       OIS4
      00000081H   SFRSYM    DATA     BYTE      SP
      000000D0H.2 SFRSYM    DATA     BIT       OV
      000000C4H   SFRSYM    DATA     BYTE      MD_DA0
      0000009AH   SFRSYM    DATA     WORD      UT_BAUD
      000000CCH   SFRSYM    DATA     BYTE      MD_DB0
      000000C5H   SFRSYM    DATA     BYTE      MD_DA1
      000000CDH   SFRSYM    DATA     BYTE      MD_DB1
      000000C6H   SFRSYM    DATA     BYTE      MD_DA2
      000000CEH   SFRSYM    DATA     BYTE      MD_DB2
      000000C7H   SFRSYM    DATA     BYTE      MD_DA3
      000000B4H   SFRSYM    DATA     WORD      TIM2_ADTR
      000000CFH   SFRSYM    DATA     BYTE      MD_DB3
      000000AFH   SFRSYM    DATA     BYTE      TIM2_ARRH
      000000A7H   SFRSYM    DATA     BYTE      TIM3_ARRH
      00000097H   SFRSYM    DATA     BYTE      TIM4_ARRH
      0000008FH   SFRSYM    DATA     BYTE      TIM5_ARRH
      000000AEH   SFRSYM    DATA     BYTE      TIM2_ARRL
      000000A6H   SFRSYM    DATA     BYTE      TIM3_ARRL
      00000087H   SFRSYM    DATA     BYTE      PCON
      000000E2H   SFRSYM    DATA     WORD      SV_US
      00000096H   SFRSYM    DATA     BYTE      TIM4_ARRL
      0000008EH   SFRSYM    DATA     BYTE      TIM5_ARRL
      000000B2H   SFRSYM    DATA     WORD      TIM2_CMTR
      00000088H   SFRSYM    DATA     BYTE      TCON
      000000AAH   SFRSYM    DATA     WORD      TIM2_CNTR
      000000A2H   SFRSYM    DATA     WORD      TIM3_CNTR
      00000092H   SFRSYM    DATA     WORD      TIM4_CNTR
      0000008AH   SFRSYM    DATA     WORD      TIM5_CNTR
      000000E5H   SFRSYM    DATA     BYTE      SV_ANGLEH
      000000D8H   SFRSYM    DATA     BIT       PUART0
LX51 LINKER/LOCATER V4.66.1.0                                                         08/07/2017  15:30:51  PAGE 20


      000000E4H   SFRSYM    DATA     BYTE      SV_ANGLEL
      000000C6H   SFRSYM    DATA     WORD      MD_DAH
      000000D8H.1 SFRSYM    DATA     BIT       PUART1
      000000D8H.2 SFRSYM    DATA     BIT       PI2C0
      00000088H.2 SFRSYM    DATA     BIT       IF0
      000000CEH   SFRSYM    DATA     WORD      MD_DBH
      000000D8H.3 SFRSYM    DATA     BIT       PI2C1
      000000F0H   SFRSYM    DATA     BYTE      B
      000000C4H   SFRSYM    DATA     WORD      MD_DAL
      000000A1H   SFRSYM    DATA     BYTE      TIM2_CR0
      000000CCH   SFRSYM    DATA     WORD      MD_DBL
      0000009CH   SFRSYM    DATA     BYTE      TIM3_CR0
      000000A9H   SFRSYM    DATA     BYTE      TIM2_CR1
      0000009EH   SFRSYM    DATA     BYTE      TIM4_CR0
      0000009DH   SFRSYM    DATA     BYTE      TIM3_CR1
      00000089H   SFRSYM    DATA     BYTE      TIM5_CR0
      0000009FH   SFRSYM    DATA     BYTE      TIM4_CR1
      000000F8H   SFRSYM    DATA     BYTE      DRV_OUT
      00000091H   SFRSYM    DATA     BYTE      TIM5_CR1
      000000E0H   SFRSYM    DATA     BYTE      ACC
      000000F7H   SFRSYM    DATA     BYTE      PI_UKMINH
      000000C3H   SFRSYM    DATA     BYTE      MD_MAH
      000000A8H.4 SFRSYM    DATA     BIT       ES0
      000000DBH   SFRSYM    DATA     BYTE      LVSR
      000000CBH   SFRSYM    DATA     BYTE      MD_MBH
      000000C0H.4 SFRSYM    DATA     BIT       PADC0
      000000B8H   SFRSYM    DATA     BYTE      IP0
      000000F5H   SFRSYM    DATA     BYTE      PI_UKMAXH
      000000C0H.5 SFRSYM    DATA     BIT       PADC1
      000000C0H   SFRSYM    DATA     BYTE      IP1
      000000C8H   SFRSYM    DATA     BYTE      IP2
      000000F6H   SFRSYM    DATA     BYTE      PI_UKMINL
      000000C2H   SFRSYM    DATA     BYTE      MD_MAL
      00000098H.2 SFRSYM    DATA     BIT       RB8
      000000D8H   SFRSYM    DATA     BYTE      IP3
      000000CAH   SFRSYM    DATA     BYTE      MD_MBL
      000000A8H   SFRSYM    DATA     BIT       EX0
      000000F4H   SFRSYM    DATA     BYTE      PI_UKMAXL
      00000098H.3 SFRSYM    DATA     BIT       TB8
      000000B7H   SFRSYM    DATA     BYTE      TIM0_CCR1H
      000000A8H.2 SFRSYM    DATA     BIT       EX1
      000000BBH   SFRSYM    DATA     BYTE      TIM0_CCR2H
      000000D0H   SFRSYM    DATA     BIT       P
      000000BDH   SFRSYM    DATA     BYTE      TIM0_CCR3H
      000000BFH   SFRSYM    DATA     BYTE      TIM0_CCR4H
      000000C8H.2 SFRSYM    DATA     BIT       PTIM230
      000000EBH   SFRSYM    DATA     BYTE      PI_EKH
      00000098H.5 SFRSYM    DATA     BIT       SM2
      000000B6H   SFRSYM    DATA     BYTE      TIM0_CCR1L
      000000B1H   SFRSYM    DATA     BYTE      TIM0_SR1
      000000C8H.3 SFRSYM    DATA     BIT       PTIM231
      000000BAH   SFRSYM    DATA     BYTE      TIM0_CCR2L
      000000BCH   SFRSYM    DATA     BYTE      TIM0_CCR3L
      000000BEH   SFRSYM    DATA     BYTE      TIM0_CCR4L
      000000D8H.6 SFRSYM    DATA     BIT       PMCD0
      000000C8H.4 SFRSYM    DATA     BIT       PTIM450
      000000D0H.3 SFRSYM    DATA     BIT       RS0
      000000DDH   SFRSYM    DATA     BYTE      LPF_KH
      000000F3H   SFRSYM    DATA     BYTE      PI_KIH
      000000EAH   SFRSYM    DATA     BYTE      PI_EKL
      000000E8H   SFRSYM    DATA     BYTE      FOC_SET0
      000000D8H.7 SFRSYM    DATA     BIT       PMCD1
      000000C8H.5 SFRSYM    DATA     BIT       PTIM451
      000000D0H.4 SFRSYM    DATA     BIT       RS1
      000000E9H   SFRSYM    DATA     BYTE      FOC_SET1
LX51 LINKER/LOCATER V4.66.1.0                                                         08/07/2017  15:30:51  PAGE 21


      000000B8H.6 SFRSYM    DATA     BIT       PFOC0
      000000DCH   SFRSYM    DATA     BYTE      LPF_KL
      000000F2H   SFRSYM    DATA     BYTE      PI_KIL
      000000B8H.7 SFRSYM    DATA     BIT       PFOC1
      000000ADH   SFRSYM    DATA     BYTE      TIM2_DRH
      000000B9H   SFRSYM    DATA     BYTE      TIM0_IER
      00000083H   SFRSYM    DATA     BYTE      DPH
      000000EFH   SFRSYM    DATA     BYTE      PI_KPH
      000000A5H   SFRSYM    DATA     BYTE      TIM3_DRH
      00000095H   SFRSYM    DATA     BYTE      TIM4_DRH
      0000008DH   SFRSYM    DATA     BYTE      TIM5_DRH
      000000ACH   SFRSYM    DATA     BYTE      TIM2_DRL
      00000082H   SFRSYM    DATA     BYTE      DPL
      000000EEH   SFRSYM    DATA     BYTE      PI_KPL
      000000A4H   SFRSYM    DATA     BYTE      TIM3_DRL
      000000F8H.7 SFRSYM    DATA     BIT       MOE
      000000C0H.6 SFRSYM    DATA     BIT       PCMP0
      000000EDH   SFRSYM    DATA     BYTE      PI_UKH
      00000094H   SFRSYM    DATA     BYTE      TIM4_DRL
      000000C0H.7 SFRSYM    DATA     BIT       PCMP1
      000000DFH   SFRSYM    DATA     BYTE      LPF_XH
      0000008CH   SFRSYM    DATA     BYTE      TIM5_DRL
      000000AEH   SFRSYM    DATA     WORD      TIM2_ARR
      000000A8H.5 SFRSYM    DATA     BIT       MCDIE
      000000C9H   SFRSYM    DATA     BYTE      RSTSRC
      000000E7H   SFRSYM    DATA     BYTE      LPF_YH
      000000A6H   SFRSYM    DATA     WORD      TIM3_ARR
      00000088H.6 SFRSYM    DATA     BIT       MCDIF
      00000098H.4 SFRSYM    DATA     BIT       REN
      00000096H   SFRSYM    DATA     WORD      TIM4_ARR
      000000ECH   SFRSYM    DATA     BYTE      PI_UKL
      000000D7H   SFRSYM    DATA     BYTE      CMP_SR
      0000008EH   SFRSYM    DATA     WORD      TIM5_ARR
      000000DEH   SFRSYM    DATA     BYTE      LPF_XL
      000000E6H   SFRSYM    DATA     BYTE      LPF_YL
      000000C8H   SFRSYM    DATA     BIT       PRTC0
      000000C8H.1 SFRSYM    DATA     BIT       PRTC1
      000000E8H.7 SFRSYM    DATA     BIT       FOCEN
      000000C8H.6 SFRSYM    DATA     BIT       PTSD0
      000000D8H.4 SFRSYM    DATA     BIT       PSPI0
      000000C8H.7 SFRSYM    DATA     BIT       PTSD1
      000000D8H.5 SFRSYM    DATA     BIT       PSPI1
      0000009BH   SFRSYM    DATA     BYTE      UT_BAUDH
      000000E4H   SFRSYM    DATA     WORD      SV_ANGLE
      000000B5H   SFRSYM    DATA     BYTE      TIM2_ADTRH
      0000009AH   SFRSYM    DATA     BYTE      UT_BAUDL
      000000FCH   SFRSYM    DATA     BYTE      P0_OE
      000000FDH   SFRSYM    DATA     BYTE      P1_OE
      000000D0H.5 SFRSYM    DATA     BIT       F0
      000000B4H   SFRSYM    DATA     BYTE      TIM2_ADTRL
      000000FEH   SFRSYM    DATA     BYTE      P2_OE
      000000D0H.1 SFRSYM    DATA     BIT       F1
      00000080H   SFRSYM    DATA     BIT       GP00
      000000FFH   SFRSYM    DATA     BYTE      P3_OE
      00000090H   SFRSYM    DATA     BIT       GP10
      00000080H.1 SFRSYM    DATA     BIT       GP01
      000000A8H.6 SFRSYM    DATA     BIT       RTCIE
      000000A0H   SFRSYM    DATA     BIT       GP20
      00000090H.1 SFRSYM    DATA     BIT       GP11
      00000080H.2 SFRSYM    DATA     BIT       GP02
      000000E3H   SFRSYM    DATA     BYTE      SV_USH
      000000B0H   SFRSYM    DATA     BIT       GP30
      000000A0H.1 SFRSYM    DATA     BIT       GP21
      00000090H.2 SFRSYM    DATA     BIT       GP12
      00000080H.3 SFRSYM    DATA     BIT       GP03
LX51 LINKER/LOCATER V4.66.1.0                                                         08/07/2017  15:30:51  PAGE 22


      000000B8H   SFRSYM    DATA     BIT       PLVW0
      000000A8H.1 SFRSYM    DATA     BIT       TSDIE
      000000D0H   SFRSYM    DATA     BYTE      PSW
      000000B0H.1 SFRSYM    DATA     BIT       GP31
      000000A0H.2 SFRSYM    DATA     BIT       GP22
      00000090H.3 SFRSYM    DATA     BIT       GP13
      00000080H.4 SFRSYM    DATA     BIT       GP04
      000000B8H.1 SFRSYM    DATA     BIT       PLVW1
      000000A8H.3 SFRSYM    DATA     BIT       SPIIE
      00000088H.5 SFRSYM    DATA     BIT       TSDIF
      000000B0H.2 SFRSYM    DATA     BIT       GP32
      000000A0H.3 SFRSYM    DATA     BIT       GP23
      00000090H.4 SFRSYM    DATA     BIT       GP14
      00000080H.5 SFRSYM    DATA     BIT       GP05
      00000084H   SFRSYM    DATA     BYTE      FLKEY
      000000B3H   SFRSYM    DATA     BYTE      TIM2_CMTRH
      000000B0H.3 SFRSYM    DATA     BIT       GP33
      000000A0H.4 SFRSYM    DATA     BIT       GP24
      00000090H.5 SFRSYM    DATA     BIT       GP15
      00000080H.6 SFRSYM    DATA     BIT       GP06
      00000088H   SFRSYM    DATA     BIT       IT00

      01001897H   BLOCK     CODE     ---       LVL=0
      01001897H   LINE      CODE     ---       #35
      010018B9H   LINE      CODE     ---       #37
      010018C7H   LINE      CODE     ---       #38
      010018C7H   LINE      CODE     ---       #39
      010018CBH   LINE      CODE     ---       #40
      010018CBH   LINE      CODE     ---       #41
      010018D9H   LINE      CODE     ---       #42
      010018D9H   LINE      CODE     ---       #43
      010018E0H   LINE      CODE     ---       #45
      010018E6H   LINE      CODE     ---       #46
      010018E6H   LINE      CODE     ---       #47
      010018E8H   LINE      CODE     ---       #48
      010018E8H   LINE      CODE     ---       #65
      010018EBH   LINE      CODE     ---       #67
      010018F1H   LINE      CODE     ---       #68
      010018F1H   LINE      CODE     ---       #71
      010018F8H   LINE      CODE     ---       #72
      010018F8H   LINE      CODE     ---       #74
      010018FBH   LINE      CODE     ---       #89
      01001901H   LINE      CODE     ---       #90
      01001901H   LINE      CODE     ---       #92
      0100190FH   LINE      CODE     ---       #93
      0100190FH   LINE      CODE     ---       #94
      01001913H   LINE      CODE     ---       #96
      01001919H   LINE      CODE     ---       #97
      01001921H   LINE      CODE     ---       #98
      01001921H   LINE      CODE     ---       #99
      01001924H   LINE      CODE     ---       #100
      01001924H   LINE      CODE     ---       #102
      0100192EH   LINE      CODE     ---       #103
      01001938H   LINE      CODE     ---       #104
      01001942H   LINE      CODE     ---       #105
      01001950H   LINE      CODE     ---       #106
      0100195DH   LINE      CODE     ---       #107
      0100195DH   LINE      CODE     ---       #108
      ---         BLOCKEND  ---      ---       LVL=0

      01001357H   BLOCK     CODE     ---       LVL=0
      01001379H   BLOCK     CODE     NEAR LAB  LVL=1
      020001EBH   SYMBOL    XDATA    DWORD     Temp32A
      020001EFH   SYMBOL    XDATA    DWORD     Temp32B
      020001F3H   SYMBOL    XDATA    WORD      tPWMINHigh
LX51 LINKER/LOCATER V4.66.1.0                                                         08/07/2017  15:30:51  PAGE 23


      010013A5H   BLOCK     CODE     NEAR LAB  LVL=2
      020001F5H   SYMBOL    XDATA    DWORD     Temp32A
      020001F9H   SYMBOL    XDATA    DWORD     Temp32B
      ---         BLOCKEND  ---      ---       LVL=2
      ---         BLOCKEND  ---      ---       LVL=1
      01001357H   LINE      CODE     ---       #116
      01001379H   LINE      CODE     ---       #121
      0100137EH   LINE      CODE     ---       #122
      0100137EH   LINE      CODE     ---       #123
      01001386H   LINE      CODE     ---       #124
      01001386H   LINE      CODE     ---       #125
      0100138BH   LINE      CODE     ---       #126
      0100138BH   LINE      CODE     ---       #127
      01001393H   LINE      CODE     ---       #133
      0100139AH   LINE      CODE     ---       #134
      0100139DH   LINE      CODE     ---       #135
      0100139DH   LINE      CODE     ---       #137
      010013A5H   LINE      CODE     ---       #138
      010013A5H   LINE      CODE     ---       #142
      010013C0H   LINE      CODE     ---       #143
      010013C0H   LINE      CODE     ---       #144
      010013CAH   LINE      CODE     ---       #146
      010013DFH   LINE      CODE     ---       #147
      010013E9H   LINE      CODE     ---       #148
      010013EBH   LINE      CODE     ---       #149
      010013F0H   LINE      CODE     ---       #150
      01001400H   LINE      CODE     ---       #151
      01001400H   LINE      CODE     ---       #155
      01001414H   LINE      CODE     ---       #156
      01001425H   LINE      CODE     ---       #157
      01001438H   LINE      CODE     ---       #158
      0100143EH   LINE      CODE     ---       #159
      0100144BH   LINE      CODE     ---       #160
      0100144BH   LINE      CODE     ---       #162
      01001453H   LINE      CODE     ---       #163
      01001453H   LINE      CODE     ---       #164
      01001458H   LINE      CODE     ---       #165
      01001458H   LINE      CODE     ---       #166
      01001460H   LINE      CODE     ---       #167
      01001460H   LINE      CODE     ---       #168
      01001465H   LINE      CODE     ---       #169
      01001465H   LINE      CODE     ---       #171
      01001465H   LINE      CODE     ---       #172
      0100146CH   LINE      CODE     ---       #173
      01001473H   LINE      CODE     ---       #174
      01001473H   LINE      CODE     ---       #176
      0100147BH   LINE      CODE     ---       #177
      0100147BH   LINE      CODE     ---       #178
      ---         BLOCKEND  ---      ---       LVL=0

      0100287CH   BLOCK     CODE     ---       LVL=0
      0100287CH   LINE      CODE     ---       #188
      0100289EH   LINE      CODE     ---       #191
      010028A3H   LINE      CODE     ---       #192
      010028A3H   LINE      CODE     ---       #193
      010028A6H   LINE      CODE     ---       #195
      010028A9H   LINE      CODE     ---       #197
      010028B2H   LINE      CODE     ---       #198
      010028B2H   LINE      CODE     ---       #199
      010028B5H   LINE      CODE     ---       #200
      010028B5H   LINE      CODE     ---       #203
      010028B8H   LINE      CODE     ---       #204
      010028B8H   LINE      CODE     ---       #206
      010028BDH   LINE      CODE     ---       #207
      010028BDH   LINE      CODE     ---       #208
LX51 LINKER/LOCATER V4.66.1.0                                                         08/07/2017  15:30:51  PAGE 24


      010028C0H   LINE      CODE     ---       #209
      010028C0H   LINE      CODE     ---       #210
      ---         BLOCKEND  ---      ---       LVL=0

      01002949H   BLOCK     CODE     ---       LVL=0
      01002949H   LINE      CODE     ---       #219
      0100296BH   LINE      CODE     ---       #221
      01002972H   LINE      CODE     ---       #222
      01002972H   LINE      CODE     ---       #223
      01002975H   LINE      CODE     ---       #224
      0100297CH   LINE      CODE     ---       #225
      0100297CH   LINE      CODE     ---       #227
      01002983H   LINE      CODE     ---       #228
      01002983H   LINE      CODE     ---       #229
      01002987H   LINE      CODE     ---       #230
      01002987H   LINE      CODE     ---       #231
      ---         BLOCKEND  ---      ---       LVL=0

      0100003EH   BLOCK     CODE     ---       LVL=0
      0100003EH   LINE      CODE     ---       #240
      01000040H   LINE      CODE     ---       #242
      01000045H   LINE      CODE     ---       #243
      01000045H   LINE      CODE     ---       #244
      01000048H   LINE      CODE     ---       #248
      01000048H   LINE      CODE     ---       #249
      ---         BLOCKEND  ---      ---       LVL=0

      01003117H   BLOCK     CODE     ---       LVL=0
      01003117H   LINE      CODE     ---       #277
      01003119H   LINE      CODE     ---       #279
      0100311CH   LINE      CODE     ---       #280
      0100311CH   LINE      CODE     ---       #281
      0100311CH   LINE      CODE     ---       #283
      0100311CH   LINE      CODE     ---       #284
      ---         BLOCKEND  ---      ---       LVL=0

      ---         MODULE    ---      ---       MAIN
      01002FA4H   PUBLIC    CODE     ---       main
      000000E2H   SFRSYM    DATA     BYTE      SV_USL
      000000ABH   SFRSYM    DATA     BYTE      TIM2_CNTRH
      000000B0H.4 SFRSYM    DATA     BIT       GP34
      000000A0H.5 SFRSYM    DATA     BIT       GP25
      00000090H.6 SFRSYM    DATA     BIT       GP16
      00000080H.7 SFRSYM    DATA     BIT       GP07
      00000088H.1 SFRSYM    DATA     BIT       IT01
      00000088H.3 SFRSYM    DATA     BIT       IT10
      000000F6H   SFRSYM    DATA     WORD      PI_UKMIN
      000000C2H   SFRSYM    DATA     WORD      MD_MA
      000000A3H   SFRSYM    DATA     BYTE      TIM3_CNTRH
      000000B0H.5 SFRSYM    DATA     BIT       GP35
      000000A0H.6 SFRSYM    DATA     BIT       GP26
      00000090H.7 SFRSYM    DATA     BIT       GP17
      00000080H   SFRSYM    DATA     BYTE      P0
      00000088H.4 SFRSYM    DATA     BIT       IT11
      000000CAH   SFRSYM    DATA     WORD      MD_MB
      00000093H   SFRSYM    DATA     BYTE      TIM4_CNTRH
      000000B0H.6 SFRSYM    DATA     BIT       GP36
      000000A0H.7 SFRSYM    DATA     BIT       GP27
      00000090H   SFRSYM    DATA     BYTE      P1
      000000D9H   SFRSYM    DATA     BYTE      EVT_FILT
      000000F4H   SFRSYM    DATA     WORD      PI_UKMAX
      0000008BH   SFRSYM    DATA     BYTE      TIM5_CNTRH
      000000B2H   SFRSYM    DATA     BYTE      TIM2_CMTRL
      000000B0H.7 SFRSYM    DATA     BIT       GP37
      000000A0H   SFRSYM    DATA     BYTE      P2
LX51 LINKER/LOCATER V4.66.1.0                                                         08/07/2017  15:30:51  PAGE 25


      000000AAH   SFRSYM    DATA     BYTE      TIM2_CNTRL
      000000B0H   SFRSYM    DATA     BYTE      P3
      000000A2H   SFRSYM    DATA     BYTE      TIM3_CNTRL
      000000D0H.6 SFRSYM    DATA     BIT       AC
      00000092H   SFRSYM    DATA     BYTE      TIM4_CNTRL
      0000008AH   SFRSYM    DATA     BYTE      TIM5_CNTRL
      000000B6H   SFRSYM    DATA     WORD      TIM0_CCR1
      000000A8H.7 SFRSYM    DATA     BIT       EA
      000000D5H   SFRSYM    DATA     BYTE      CMP_CR0
      000000BAH   SFRSYM    DATA     WORD      TIM0_CCR2
      000000D6H   SFRSYM    DATA     BYTE      CMP_CR1
      000000BCH   SFRSYM    DATA     WORD      TIM0_CCR3
      00000085H   SFRSYM    DATA     BYTE      PSCTL
      000000DAH   SFRSYM    DATA     BYTE      CMP_CR2
      000000BEH   SFRSYM    DATA     WORD      TIM0_CCR4
      000000B8H.2 SFRSYM    DATA     BIT       PX00
      000000EAH   SFRSYM    DATA     WORD      PI_EK
      000000F8H   SFRSYM    DATA     BIT       OISUH
      000000B8H.3 SFRSYM    DATA     BIT       PX01
      000000B8H.4 SFRSYM    DATA     BIT       PX10
      000000F8H.2 SFRSYM    DATA     BIT       OISVH
      000000B8H.5 SFRSYM    DATA     BIT       PX11
      000000F8H.4 SFRSYM    DATA     BIT       OISWH
      000000DCH   SFRSYM    DATA     WORD      LPF_K
      000000F2H   SFRSYM    DATA     WORD      PI_KI
      000000F8H.1 SFRSYM    DATA     BIT       OISUL
      000000A8H   SFRSYM    DATA     BYTE      IE
      000000F8H.3 SFRSYM    DATA     BIT       OISVL
      000000F8H.5 SFRSYM    DATA     BIT       OISWL
      000000D1H   SFRSYM    DATA     BYTE      P1IE
      00000098H.6 SFRSYM    DATA     BIT       MOD0
      000000D3H   SFRSYM    DATA     BYTE      P2IE
      000000D2H   SFRSYM    DATA     BYTE      P1IF
      000000F9H   SFRSYM    DATA     BYTE      PL_CR
      00000098H.7 SFRSYM    DATA     BIT       MOD1
      000000D4H   SFRSYM    DATA     BYTE      P2IF
      000000ACH   SFRSYM    DATA     WORD      TIM2_DR
      00000082H   SFRSYM    DATA     WORD      DP
      000000EEH   SFRSYM    DATA     WORD      PI_KP
      000000A4H   SFRSYM    DATA     WORD      TIM3_DR
      00000094H   SFRSYM    DATA     WORD      TIM4_DR
      0000008CH   SFRSYM    DATA     WORD      TIM5_DR
      000000F1H   SFRSYM    DATA     BYTE      OSC_CFG
      000000C1H   SFRSYM    DATA     BYTE      MD_MODE
      000000ECH   SFRSYM    DATA     WORD      PI_UK
      000000DEH   SFRSYM    DATA     WORD      LPF_X
      00000098H   SFRSYM    DATA     BIT       RI
      000000E6H   SFRSYM    DATA     WORD      LPF_Y
      000000C0H   SFRSYM    DATA     BIT       PTIM00
      000000D0H.7 SFRSYM    DATA     BIT       CY
      00000098H.1 SFRSYM    DATA     BIT       TI
      000000C0H.1 SFRSYM    DATA     BIT       PTIM01
      000000C0H.2 SFRSYM    DATA     BIT       PTIM10
      000000C0H.3 SFRSYM    DATA     BIT       PTIM11
      000000E1H   SFRSYM    DATA     BYTE      SV_CR
      00000098H   SFRSYM    DATA     BYTE      UT_CR
      00000099H   SFRSYM    DATA     BYTE      UT_DR
      000000F8H.6 SFRSYM    DATA     BIT       OIS4
      00000081H   SFRSYM    DATA     BYTE      SP
      000000D0H.2 SFRSYM    DATA     BIT       OV
      000000C4H   SFRSYM    DATA     BYTE      MD_DA0
      0000009AH   SFRSYM    DATA     WORD      UT_BAUD
      000000CCH   SFRSYM    DATA     BYTE      MD_DB0
      000000C5H   SFRSYM    DATA     BYTE      MD_DA1
      000000CDH   SFRSYM    DATA     BYTE      MD_DB1
LX51 LINKER/LOCATER V4.66.1.0                                                         08/07/2017  15:30:51  PAGE 26


      000000C6H   SFRSYM    DATA     BYTE      MD_DA2
      000000CEH   SFRSYM    DATA     BYTE      MD_DB2
      000000C7H   SFRSYM    DATA     BYTE      MD_DA3
      000000B4H   SFRSYM    DATA     WORD      TIM2_ADTR
      000000CFH   SFRSYM    DATA     BYTE      MD_DB3
      000000AFH   SFRSYM    DATA     BYTE      TIM2_ARRH
      000000A7H   SFRSYM    DATA     BYTE      TIM3_ARRH
      00000097H   SFRSYM    DATA     BYTE      TIM4_ARRH
      0000008FH   SFRSYM    DATA     BYTE      TIM5_ARRH
      000000AEH   SFRSYM    DATA     BYTE      TIM2_ARRL
      000000A6H   SFRSYM    DATA     BYTE      TIM3_ARRL
      00000087H   SFRSYM    DATA     BYTE      PCON
      000000E2H   SFRSYM    DATA     WORD      SV_US
      00000096H   SFRSYM    DATA     BYTE      TIM4_ARRL
      0000008EH   SFRSYM    DATA     BYTE      TIM5_ARRL
      000000B2H   SFRSYM    DATA     WORD      TIM2_CMTR
      00000088H   SFRSYM    DATA     BYTE      TCON
      000000AAH   SFRSYM    DATA     WORD      TIM2_CNTR
      000000A2H   SFRSYM    DATA     WORD      TIM3_CNTR
      00000092H   SFRSYM    DATA     WORD      TIM4_CNTR
      0000008AH   SFRSYM    DATA     WORD      TIM5_CNTR
      000000E5H   SFRSYM    DATA     BYTE      SV_ANGLEH
      000000D8H   SFRSYM    DATA     BIT       PUART0
      000000E4H   SFRSYM    DATA     BYTE      SV_ANGLEL
      000000C6H   SFRSYM    DATA     WORD      MD_DAH
      000000D8H.1 SFRSYM    DATA     BIT       PUART1
      000000D8H.2 SFRSYM    DATA     BIT       PI2C0
      00000088H.2 SFRSYM    DATA     BIT       IF0
      000000CEH   SFRSYM    DATA     WORD      MD_DBH
      000000D8H.3 SFRSYM    DATA     BIT       PI2C1
      000000F0H   SFRSYM    DATA     BYTE      B
      000000C4H   SFRSYM    DATA     WORD      MD_DAL
      000000A1H   SFRSYM    DATA     BYTE      TIM2_CR0
      000000CCH   SFRSYM    DATA     WORD      MD_DBL
      0000009CH   SFRSYM    DATA     BYTE      TIM3_CR0
      000000A9H   SFRSYM    DATA     BYTE      TIM2_CR1
      0000009EH   SFRSYM    DATA     BYTE      TIM4_CR0
      0000009DH   SFRSYM    DATA     BYTE      TIM3_CR1
      00000089H   SFRSYM    DATA     BYTE      TIM5_CR0
      0000009FH   SFRSYM    DATA     BYTE      TIM4_CR1
      000000F8H   SFRSYM    DATA     BYTE      DRV_OUT
      00000091H   SFRSYM    DATA     BYTE      TIM5_CR1
      000000E0H   SFRSYM    DATA     BYTE      ACC
      000000F7H   SFRSYM    DATA     BYTE      PI_UKMINH
      000000C3H   SFRSYM    DATA     BYTE      MD_MAH
      000000A8H.4 SFRSYM    DATA     BIT       ES0
      000000DBH   SFRSYM    DATA     BYTE      LVSR
      000000CBH   SFRSYM    DATA     BYTE      MD_MBH
      000000C0H.4 SFRSYM    DATA     BIT       PADC0
      000000B8H   SFRSYM    DATA     BYTE      IP0
      000000F5H   SFRSYM    DATA     BYTE      PI_UKMAXH
      000000C0H.5 SFRSYM    DATA     BIT       PADC1
      000000C0H   SFRSYM    DATA     BYTE      IP1
      000000C8H   SFRSYM    DATA     BYTE      IP2
      000000F6H   SFRSYM    DATA     BYTE      PI_UKMINL
      000000C2H   SFRSYM    DATA     BYTE      MD_MAL
      00000098H.2 SFRSYM    DATA     BIT       RB8
      000000D8H   SFRSYM    DATA     BYTE      IP3
      000000CAH   SFRSYM    DATA     BYTE      MD_MBL
      000000A8H   SFRSYM    DATA     BIT       EX0
      000000F4H   SFRSYM    DATA     BYTE      PI_UKMAXL
      00000098H.3 SFRSYM    DATA     BIT       TB8
      000000B7H   SFRSYM    DATA     BYTE      TIM0_CCR1H
      000000A8H.2 SFRSYM    DATA     BIT       EX1
      000000BBH   SFRSYM    DATA     BYTE      TIM0_CCR2H
LX51 LINKER/LOCATER V4.66.1.0                                                         08/07/2017  15:30:51  PAGE 27


      000000D0H   SFRSYM    DATA     BIT       P
      000000BDH   SFRSYM    DATA     BYTE      TIM0_CCR3H
      000000BFH   SFRSYM    DATA     BYTE      TIM0_CCR4H
      000000C8H.2 SFRSYM    DATA     BIT       PTIM230
      000000EBH   SFRSYM    DATA     BYTE      PI_EKH
      00000098H.5 SFRSYM    DATA     BIT       SM2
      000000B6H   SFRSYM    DATA     BYTE      TIM0_CCR1L
      000000B1H   SFRSYM    DATA     BYTE      TIM0_SR1
      000000C8H.3 SFRSYM    DATA     BIT       PTIM231
      000000BAH   SFRSYM    DATA     BYTE      TIM0_CCR2L
      000000BCH   SFRSYM    DATA     BYTE      TIM0_CCR3L
      000000BEH   SFRSYM    DATA     BYTE      TIM0_CCR4L
      000000D8H.6 SFRSYM    DATA     BIT       PMCD0
      000000C8H.4 SFRSYM    DATA     BIT       PTIM450
      000000D0H.3 SFRSYM    DATA     BIT       RS0
      000000DDH   SFRSYM    DATA     BYTE      LPF_KH
      000000F3H   SFRSYM    DATA     BYTE      PI_KIH
      000000EAH   SFRSYM    DATA     BYTE      PI_EKL
      000000E8H   SFRSYM    DATA     BYTE      FOC_SET0
      000000D8H.7 SFRSYM    DATA     BIT       PMCD1
      000000C8H.5 SFRSYM    DATA     BIT       PTIM451
      000000D0H.4 SFRSYM    DATA     BIT       RS1
      000000E9H   SFRSYM    DATA     BYTE      FOC_SET1
      000000B8H.6 SFRSYM    DATA     BIT       PFOC0
      000000DCH   SFRSYM    DATA     BYTE      LPF_KL
      000000F2H   SFRSYM    DATA     BYTE      PI_KIL
      000000B8H.7 SFRSYM    DATA     BIT       PFOC1
      000000ADH   SFRSYM    DATA     BYTE      TIM2_DRH
      000000B9H   SFRSYM    DATA     BYTE      TIM0_IER
      00000083H   SFRSYM    DATA     BYTE      DPH
      000000EFH   SFRSYM    DATA     BYTE      PI_KPH
      000000A5H   SFRSYM    DATA     BYTE      TIM3_DRH
      00000095H   SFRSYM    DATA     BYTE      TIM4_DRH
      0000008DH   SFRSYM    DATA     BYTE      TIM5_DRH
      000000ACH   SFRSYM    DATA     BYTE      TIM2_DRL
      00000082H   SFRSYM    DATA     BYTE      DPL
      000000EEH   SFRSYM    DATA     BYTE      PI_KPL
      000000A4H   SFRSYM    DATA     BYTE      TIM3_DRL
      000000F8H.7 SFRSYM    DATA     BIT       MOE
      000000C0H.6 SFRSYM    DATA     BIT       PCMP0
      000000EDH   SFRSYM    DATA     BYTE      PI_UKH
      00000094H   SFRSYM    DATA     BYTE      TIM4_DRL
      000000C0H.7 SFRSYM    DATA     BIT       PCMP1
      000000DFH   SFRSYM    DATA     BYTE      LPF_XH
      0000008CH   SFRSYM    DATA     BYTE      TIM5_DRL
      000000AEH   SFRSYM    DATA     WORD      TIM2_ARR
      000000A8H.5 SFRSYM    DATA     BIT       MCDIE
      000000C9H   SFRSYM    DATA     BYTE      RSTSRC
      000000E7H   SFRSYM    DATA     BYTE      LPF_YH
      000000A6H   SFRSYM    DATA     WORD      TIM3_ARR
      00000088H.6 SFRSYM    DATA     BIT       MCDIF
      00000098H.4 SFRSYM    DATA     BIT       REN
      00000096H   SFRSYM    DATA     WORD      TIM4_ARR
      000000ECH   SFRSYM    DATA     BYTE      PI_UKL
      000000D7H   SFRSYM    DATA     BYTE      CMP_SR
      0000008EH   SFRSYM    DATA     WORD      TIM5_ARR
      000000DEH   SFRSYM    DATA     BYTE      LPF_XL
      000000E6H   SFRSYM    DATA     BYTE      LPF_YL
      000000C8H   SFRSYM    DATA     BIT       PRTC0
      000000C8H.1 SFRSYM    DATA     BIT       PRTC1
      000000E8H.7 SFRSYM    DATA     BIT       FOCEN
      000000C8H.6 SFRSYM    DATA     BIT       PTSD0
      000000D8H.4 SFRSYM    DATA     BIT       PSPI0
      000000C8H.7 SFRSYM    DATA     BIT       PTSD1
      000000D8H.5 SFRSYM    DATA     BIT       PSPI1
LX51 LINKER/LOCATER V4.66.1.0                                                         08/07/2017  15:30:51  PAGE 28


      0000009BH   SFRSYM    DATA     BYTE      UT_BAUDH
      000000E4H   SFRSYM    DATA     WORD      SV_ANGLE
      000000B5H   SFRSYM    DATA     BYTE      TIM2_ADTRH
      0000009AH   SFRSYM    DATA     BYTE      UT_BAUDL
      000000FCH   SFRSYM    DATA     BYTE      P0_OE
      000000FDH   SFRSYM    DATA     BYTE      P1_OE
      000000D0H.5 SFRSYM    DATA     BIT       F0
      000000B4H   SFRSYM    DATA     BYTE      TIM2_ADTRL
      000000FEH   SFRSYM    DATA     BYTE      P2_OE
      000000D0H.1 SFRSYM    DATA     BIT       F1
      00000080H   SFRSYM    DATA     BIT       GP00
      000000FFH   SFRSYM    DATA     BYTE      P3_OE
      00000090H   SFRSYM    DATA     BIT       GP10
      00000080H.1 SFRSYM    DATA     BIT       GP01
      000000A8H.6 SFRSYM    DATA     BIT       RTCIE
      000000A0H   SFRSYM    DATA     BIT       GP20
      00000090H.1 SFRSYM    DATA     BIT       GP11
      00000080H.2 SFRSYM    DATA     BIT       GP02
      000000E3H   SFRSYM    DATA     BYTE      SV_USH
      000000B0H   SFRSYM    DATA     BIT       GP30
      000000A0H.1 SFRSYM    DATA     BIT       GP21
      00000090H.2 SFRSYM    DATA     BIT       GP12
      00000080H.3 SFRSYM    DATA     BIT       GP03
      000000B8H   SFRSYM    DATA     BIT       PLVW0
      000000A8H.1 SFRSYM    DATA     BIT       TSDIE
      000000D0H   SFRSYM    DATA     BYTE      PSW
      000000B0H.1 SFRSYM    DATA     BIT       GP31
      000000A0H.2 SFRSYM    DATA     BIT       GP22
      00000090H.3 SFRSYM    DATA     BIT       GP13
      00000080H.4 SFRSYM    DATA     BIT       GP04
      000000B8H.1 SFRSYM    DATA     BIT       PLVW1
      000000A8H.3 SFRSYM    DATA     BIT       SPIIE
      00000088H.5 SFRSYM    DATA     BIT       TSDIF
      000000B0H.2 SFRSYM    DATA     BIT       GP32
      000000A0H.3 SFRSYM    DATA     BIT       GP23
      00000090H.4 SFRSYM    DATA     BIT       GP14
      00000080H.5 SFRSYM    DATA     BIT       GP05
      00000084H   SFRSYM    DATA     BYTE      FLKEY
      000000B3H   SFRSYM    DATA     BYTE      TIM2_CMTRH
      000000B0H.3 SFRSYM    DATA     BIT       GP33
      000000A0H.4 SFRSYM    DATA     BIT       GP24
      00000090H.5 SFRSYM    DATA     BIT       GP15
      00000080H.6 SFRSYM    DATA     BIT       GP06
      00000088H   SFRSYM    DATA     BIT       IT00

      01002FA4H   BLOCK     CODE     ---       LVL=0
      01002FA4H   LINE      CODE     ---       #34
      01002FA4H   LINE      CODE     ---       #35
      01002FA4H   LINE      CODE     ---       #37
      01002FA7H   LINE      CODE     ---       #40
      01002FAAH   LINE      CODE     ---       #43
      01002FADH   LINE      CODE     ---       #45
      01002FB3H   LINE      CODE     ---       #47
      01002FBAH   LINE      CODE     ---       #49
      01002FBAH   LINE      CODE     ---       #50
      01002FBAH   LINE      CODE     ---       #51
      01002FBDH   LINE      CODE     ---       #52
      01002FC0H   LINE      CODE     ---       #53
      ---         BLOCKEND  ---      ---       LVL=0

      ---         MODULE    ---      ---       MC_INIT
      01003137H   PUBLIC    CONST    ---       DRV_SECTION2OCM
      01002CB2H   PUBLIC    CODE     ---       TimNmsDefault
      010026C8H   PUBLIC    CODE     ---       BemfDefault
      01002BE6H   PUBLIC    CODE     ---       PWMinit
LX51 LINKER/LOCATER V4.66.1.0                                                         08/07/2017  15:30:51  PAGE 29


      01001E6FH   PUBLIC    CODE     ---       Bemfinit
      0100301BH   PUBLIC    CODE     ---       _Delayus
      010030C4H   PUBLIC    CODE     ---       _Delay
      01002AB4H   PUBLIC    CODE     ---       MCL_ModuleDefault
      01002289H   PUBLIC    CODE     ---       MCL_ModuleInit
      01003038H   PUBLIC    CODE     ---       GPIO_Config
      01002FFEH   PUBLIC    CODE     ---       Interrupt_Config
      01002B50H   PUBLIC    CODE     ---       SoftwareInit
      000000E2H   SFRSYM    DATA     BYTE      SV_USL
      000000ABH   SFRSYM    DATA     BYTE      TIM2_CNTRH
      000000B0H.4 SFRSYM    DATA     BIT       GP34
      000000A0H.5 SFRSYM    DATA     BIT       GP25
      00000090H.6 SFRSYM    DATA     BIT       GP16
      00000080H.7 SFRSYM    DATA     BIT       GP07
      00000088H.1 SFRSYM    DATA     BIT       IT01
      00000088H.3 SFRSYM    DATA     BIT       IT10
      000000F6H   SFRSYM    DATA     WORD      PI_UKMIN
      000000C2H   SFRSYM    DATA     WORD      MD_MA
      000000A3H   SFRSYM    DATA     BYTE      TIM3_CNTRH
      000000B0H.5 SFRSYM    DATA     BIT       GP35
      000000A0H.6 SFRSYM    DATA     BIT       GP26
      00000090H.7 SFRSYM    DATA     BIT       GP17
      00000080H   SFRSYM    DATA     BYTE      P0
      00000088H.4 SFRSYM    DATA     BIT       IT11
      000000CAH   SFRSYM    DATA     WORD      MD_MB
      00000093H   SFRSYM    DATA     BYTE      TIM4_CNTRH
      000000B0H.6 SFRSYM    DATA     BIT       GP36
      000000A0H.7 SFRSYM    DATA     BIT       GP27
      00000090H   SFRSYM    DATA     BYTE      P1
      000000D9H   SFRSYM    DATA     BYTE      EVT_FILT
      000000F4H   SFRSYM    DATA     WORD      PI_UKMAX
      0000008BH   SFRSYM    DATA     BYTE      TIM5_CNTRH
      000000B2H   SFRSYM    DATA     BYTE      TIM2_CMTRL
      000000B0H.7 SFRSYM    DATA     BIT       GP37
      000000A0H   SFRSYM    DATA     BYTE      P2
      000000AAH   SFRSYM    DATA     BYTE      TIM2_CNTRL
      000000B0H   SFRSYM    DATA     BYTE      P3
      000000A2H   SFRSYM    DATA     BYTE      TIM3_CNTRL
      000000D0H.6 SFRSYM    DATA     BIT       AC
      00000092H   SFRSYM    DATA     BYTE      TIM4_CNTRL
      0000008AH   SFRSYM    DATA     BYTE      TIM5_CNTRL
      000000B6H   SFRSYM    DATA     WORD      TIM0_CCR1
      000000A8H.7 SFRSYM    DATA     BIT       EA
      000000D5H   SFRSYM    DATA     BYTE      CMP_CR0
      000000BAH   SFRSYM    DATA     WORD      TIM0_CCR2
      000000D6H   SFRSYM    DATA     BYTE      CMP_CR1
      000000BCH   SFRSYM    DATA     WORD      TIM0_CCR3
      00000085H   SFRSYM    DATA     BYTE      PSCTL
      000000DAH   SFRSYM    DATA     BYTE      CMP_CR2
      000000BEH   SFRSYM    DATA     WORD      TIM0_CCR4
      000000B8H.2 SFRSYM    DATA     BIT       PX00
      000000EAH   SFRSYM    DATA     WORD      PI_EK
      000000F8H   SFRSYM    DATA     BIT       OISUH
      000000B8H.3 SFRSYM    DATA     BIT       PX01
      000000B8H.4 SFRSYM    DATA     BIT       PX10
      000000F8H.2 SFRSYM    DATA     BIT       OISVH
      000000B8H.5 SFRSYM    DATA     BIT       PX11
      000000F8H.4 SFRSYM    DATA     BIT       OISWH
      000000DCH   SFRSYM    DATA     WORD      LPF_K
      000000F2H   SFRSYM    DATA     WORD      PI_KI
      000000F8H.1 SFRSYM    DATA     BIT       OISUL
      000000A8H   SFRSYM    DATA     BYTE      IE
      000000F8H.3 SFRSYM    DATA     BIT       OISVL
      000000F8H.5 SFRSYM    DATA     BIT       OISWL
      000000D1H   SFRSYM    DATA     BYTE      P1IE
LX51 LINKER/LOCATER V4.66.1.0                                                         08/07/2017  15:30:51  PAGE 30


      00000098H.6 SFRSYM    DATA     BIT       MOD0
      000000D3H   SFRSYM    DATA     BYTE      P2IE
      000000D2H   SFRSYM    DATA     BYTE      P1IF
      000000F9H   SFRSYM    DATA     BYTE      PL_CR
      00000098H.7 SFRSYM    DATA     BIT       MOD1
      000000D4H   SFRSYM    DATA     BYTE      P2IF
      000000ACH   SFRSYM    DATA     WORD      TIM2_DR
      00000082H   SFRSYM    DATA     WORD      DP
      000000EEH   SFRSYM    DATA     WORD      PI_KP
      000000A4H   SFRSYM    DATA     WORD      TIM3_DR
      00000094H   SFRSYM    DATA     WORD      TIM4_DR
      0000008CH   SFRSYM    DATA     WORD      TIM5_DR
      000000F1H   SFRSYM    DATA     BYTE      OSC_CFG
      000000C1H   SFRSYM    DATA     BYTE      MD_MODE
      000000ECH   SFRSYM    DATA     WORD      PI_UK
      000000DEH   SFRSYM    DATA     WORD      LPF_X
      00000098H   SFRSYM    DATA     BIT       RI
      000000E6H   SFRSYM    DATA     WORD      LPF_Y
      000000C0H   SFRSYM    DATA     BIT       PTIM00
      000000D0H.7 SFRSYM    DATA     BIT       CY
      00000098H.1 SFRSYM    DATA     BIT       TI
      000000C0H.1 SFRSYM    DATA     BIT       PTIM01
      000000C0H.2 SFRSYM    DATA     BIT       PTIM10
      000000C0H.3 SFRSYM    DATA     BIT       PTIM11
      000000E1H   SFRSYM    DATA     BYTE      SV_CR
      00000098H   SFRSYM    DATA     BYTE      UT_CR
      00000099H   SFRSYM    DATA     BYTE      UT_DR
      000000F8H.6 SFRSYM    DATA     BIT       OIS4
      00000081H   SFRSYM    DATA     BYTE      SP
      000000D0H.2 SFRSYM    DATA     BIT       OV
      000000C4H   SFRSYM    DATA     BYTE      MD_DA0
      0000009AH   SFRSYM    DATA     WORD      UT_BAUD
      000000CCH   SFRSYM    DATA     BYTE      MD_DB0
      000000C5H   SFRSYM    DATA     BYTE      MD_DA1
      000000CDH   SFRSYM    DATA     BYTE      MD_DB1
      000000C6H   SFRSYM    DATA     BYTE      MD_DA2
      000000CEH   SFRSYM    DATA     BYTE      MD_DB2
      000000C7H   SFRSYM    DATA     BYTE      MD_DA3
      000000B4H   SFRSYM    DATA     WORD      TIM2_ADTR
      000000CFH   SFRSYM    DATA     BYTE      MD_DB3
      000000AFH   SFRSYM    DATA     BYTE      TIM2_ARRH
      000000A7H   SFRSYM    DATA     BYTE      TIM3_ARRH
      00000097H   SFRSYM    DATA     BYTE      TIM4_ARRH
      0000008FH   SFRSYM    DATA     BYTE      TIM5_ARRH
      000000AEH   SFRSYM    DATA     BYTE      TIM2_ARRL
      000000A6H   SFRSYM    DATA     BYTE      TIM3_ARRL
      00000087H   SFRSYM    DATA     BYTE      PCON
      000000E2H   SFRSYM    DATA     WORD      SV_US
      00000096H   SFRSYM    DATA     BYTE      TIM4_ARRL
      0000008EH   SFRSYM    DATA     BYTE      TIM5_ARRL
      000000B2H   SFRSYM    DATA     WORD      TIM2_CMTR
      00000088H   SFRSYM    DATA     BYTE      TCON
      000000AAH   SFRSYM    DATA     WORD      TIM2_CNTR
      000000A2H   SFRSYM    DATA     WORD      TIM3_CNTR
      00000092H   SFRSYM    DATA     WORD      TIM4_CNTR
      0000008AH   SFRSYM    DATA     WORD      TIM5_CNTR
      000000E5H   SFRSYM    DATA     BYTE      SV_ANGLEH
      000000D8H   SFRSYM    DATA     BIT       PUART0
      000000E4H   SFRSYM    DATA     BYTE      SV_ANGLEL
      000000C6H   SFRSYM    DATA     WORD      MD_DAH
      000000D8H.1 SFRSYM    DATA     BIT       PUART1
      000000D8H.2 SFRSYM    DATA     BIT       PI2C0
      00000088H.2 SFRSYM    DATA     BIT       IF0
      000000CEH   SFRSYM    DATA     WORD      MD_DBH
      000000D8H.3 SFRSYM    DATA     BIT       PI2C1
LX51 LINKER/LOCATER V4.66.1.0                                                         08/07/2017  15:30:51  PAGE 31


      000000F0H   SFRSYM    DATA     BYTE      B
      000000C4H   SFRSYM    DATA     WORD      MD_DAL
      000000A1H   SFRSYM    DATA     BYTE      TIM2_CR0
      000000CCH   SFRSYM    DATA     WORD      MD_DBL
      0000009CH   SFRSYM    DATA     BYTE      TIM3_CR0
      000000A9H   SFRSYM    DATA     BYTE      TIM2_CR1
      0000009EH   SFRSYM    DATA     BYTE      TIM4_CR0
      0000009DH   SFRSYM    DATA     BYTE      TIM3_CR1
      00000089H   SFRSYM    DATA     BYTE      TIM5_CR0
      0000009FH   SFRSYM    DATA     BYTE      TIM4_CR1
      000000F8H   SFRSYM    DATA     BYTE      DRV_OUT
      00000091H   SFRSYM    DATA     BYTE      TIM5_CR1
      000000E0H   SFRSYM    DATA     BYTE      ACC
      000000F7H   SFRSYM    DATA     BYTE      PI_UKMINH
      000000C3H   SFRSYM    DATA     BYTE      MD_MAH
      000000A8H.4 SFRSYM    DATA     BIT       ES0
      000000DBH   SFRSYM    DATA     BYTE      LVSR
      000000CBH   SFRSYM    DATA     BYTE      MD_MBH
      000000C0H.4 SFRSYM    DATA     BIT       PADC0
      000000B8H   SFRSYM    DATA     BYTE      IP0
      000000F5H   SFRSYM    DATA     BYTE      PI_UKMAXH
      000000C0H.5 SFRSYM    DATA     BIT       PADC1
      000000C0H   SFRSYM    DATA     BYTE      IP1
      000000C8H   SFRSYM    DATA     BYTE      IP2
      000000F6H   SFRSYM    DATA     BYTE      PI_UKMINL
      000000C2H   SFRSYM    DATA     BYTE      MD_MAL
      00000098H.2 SFRSYM    DATA     BIT       RB8
      000000D8H   SFRSYM    DATA     BYTE      IP3
      000000CAH   SFRSYM    DATA     BYTE      MD_MBL
      000000A8H   SFRSYM    DATA     BIT       EX0
      000000F4H   SFRSYM    DATA     BYTE      PI_UKMAXL
      00000098H.3 SFRSYM    DATA     BIT       TB8
      000000B7H   SFRSYM    DATA     BYTE      TIM0_CCR1H
      000000A8H.2 SFRSYM    DATA     BIT       EX1
      000000BBH   SFRSYM    DATA     BYTE      TIM0_CCR2H
      000000D0H   SFRSYM    DATA     BIT       P
      000000BDH   SFRSYM    DATA     BYTE      TIM0_CCR3H
      000000BFH   SFRSYM    DATA     BYTE      TIM0_CCR4H
      000000C8H.2 SFRSYM    DATA     BIT       PTIM230
      000000EBH   SFRSYM    DATA     BYTE      PI_EKH
      00000098H.5 SFRSYM    DATA     BIT       SM2
      000000B6H   SFRSYM    DATA     BYTE      TIM0_CCR1L
      000000B1H   SFRSYM    DATA     BYTE      TIM0_SR1
      000000C8H.3 SFRSYM    DATA     BIT       PTIM231
      000000BAH   SFRSYM    DATA     BYTE      TIM0_CCR2L
      000000BCH   SFRSYM    DATA     BYTE      TIM0_CCR3L
      000000BEH   SFRSYM    DATA     BYTE      TIM0_CCR4L
      000000D8H.6 SFRSYM    DATA     BIT       PMCD0
      000000C8H.4 SFRSYM    DATA     BIT       PTIM450
      000000D0H.3 SFRSYM    DATA     BIT       RS0
      000000DDH   SFRSYM    DATA     BYTE      LPF_KH
      000000F3H   SFRSYM    DATA     BYTE      PI_KIH
      000000EAH   SFRSYM    DATA     BYTE      PI_EKL
      000000E8H   SFRSYM    DATA     BYTE      FOC_SET0
      000000D8H.7 SFRSYM    DATA     BIT       PMCD1
      000000C8H.5 SFRSYM    DATA     BIT       PTIM451
      000000D0H.4 SFRSYM    DATA     BIT       RS1
      000000E9H   SFRSYM    DATA     BYTE      FOC_SET1
      000000B8H.6 SFRSYM    DATA     BIT       PFOC0
      000000DCH   SFRSYM    DATA     BYTE      LPF_KL
      000000F2H   SFRSYM    DATA     BYTE      PI_KIL
      000000B8H.7 SFRSYM    DATA     BIT       PFOC1
      000000ADH   SFRSYM    DATA     BYTE      TIM2_DRH
      000000B9H   SFRSYM    DATA     BYTE      TIM0_IER
      00000083H   SFRSYM    DATA     BYTE      DPH
LX51 LINKER/LOCATER V4.66.1.0                                                         08/07/2017  15:30:51  PAGE 32


      000000EFH   SFRSYM    DATA     BYTE      PI_KPH
      000000A5H   SFRSYM    DATA     BYTE      TIM3_DRH
      00000095H   SFRSYM    DATA     BYTE      TIM4_DRH
      0000008DH   SFRSYM    DATA     BYTE      TIM5_DRH
      000000ACH   SFRSYM    DATA     BYTE      TIM2_DRL
      00000082H   SFRSYM    DATA     BYTE      DPL
      000000EEH   SFRSYM    DATA     BYTE      PI_KPL
      000000A4H   SFRSYM    DATA     BYTE      TIM3_DRL
      000000F8H.7 SFRSYM    DATA     BIT       MOE
      000000C0H.6 SFRSYM    DATA     BIT       PCMP0
      000000EDH   SFRSYM    DATA     BYTE      PI_UKH
      00000094H   SFRSYM    DATA     BYTE      TIM4_DRL
      000000C0H.7 SFRSYM    DATA     BIT       PCMP1
      000000DFH   SFRSYM    DATA     BYTE      LPF_XH
      0000008CH   SFRSYM    DATA     BYTE      TIM5_DRL
      000000AEH   SFRSYM    DATA     WORD      TIM2_ARR
      000000A8H.5 SFRSYM    DATA     BIT       MCDIE
      000000C9H   SFRSYM    DATA     BYTE      RSTSRC
      000000E7H   SFRSYM    DATA     BYTE      LPF_YH
      000000A6H   SFRSYM    DATA     WORD      TIM3_ARR
      00000088H.6 SFRSYM    DATA     BIT       MCDIF
      00000098H.4 SFRSYM    DATA     BIT       REN
      00000096H   SFRSYM    DATA     WORD      TIM4_ARR
      000000ECH   SFRSYM    DATA     BYTE      PI_UKL
      000000D7H   SFRSYM    DATA     BYTE      CMP_SR
      0000008EH   SFRSYM    DATA     WORD      TIM5_ARR
      000000DEH   SFRSYM    DATA     BYTE      LPF_XL
      000000E6H   SFRSYM    DATA     BYTE      LPF_YL
      000000C8H   SFRSYM    DATA     BIT       PRTC0
      000000C8H.1 SFRSYM    DATA     BIT       PRTC1
      000000E8H.7 SFRSYM    DATA     BIT       FOCEN
      000000C8H.6 SFRSYM    DATA     BIT       PTSD0
      000000D8H.4 SFRSYM    DATA     BIT       PSPI0
      000000C8H.7 SFRSYM    DATA     BIT       PTSD1
      000000D8H.5 SFRSYM    DATA     BIT       PSPI1
      0000009BH   SFRSYM    DATA     BYTE      UT_BAUDH
      000000E4H   SFRSYM    DATA     WORD      SV_ANGLE
      000000B5H   SFRSYM    DATA     BYTE      TIM2_ADTRH
      0000009AH   SFRSYM    DATA     BYTE      UT_BAUDL
      000000FCH   SFRSYM    DATA     BYTE      P0_OE
      000000FDH   SFRSYM    DATA     BYTE      P1_OE
      000000D0H.5 SFRSYM    DATA     BIT       F0
      000000B4H   SFRSYM    DATA     BYTE      TIM2_ADTRL
      000000FEH   SFRSYM    DATA     BYTE      P2_OE
      000000D0H.1 SFRSYM    DATA     BIT       F1
      00000080H   SFRSYM    DATA     BIT       GP00
      000000FFH   SFRSYM    DATA     BYTE      P3_OE
      00000090H   SFRSYM    DATA     BIT       GP10
      00000080H.1 SFRSYM    DATA     BIT       GP01
      000000A8H.6 SFRSYM    DATA     BIT       RTCIE
      000000A0H   SFRSYM    DATA     BIT       GP20
      00000090H.1 SFRSYM    DATA     BIT       GP11
      00000080H.2 SFRSYM    DATA     BIT       GP02
      000000E3H   SFRSYM    DATA     BYTE      SV_USH
      000000B0H   SFRSYM    DATA     BIT       GP30
      000000A0H.1 SFRSYM    DATA     BIT       GP21
      00000090H.2 SFRSYM    DATA     BIT       GP12
      00000080H.3 SFRSYM    DATA     BIT       GP03
      000000B8H   SFRSYM    DATA     BIT       PLVW0
      000000A8H.1 SFRSYM    DATA     BIT       TSDIE
      000000D0H   SFRSYM    DATA     BYTE      PSW
      000000B0H.1 SFRSYM    DATA     BIT       GP31
      000000A0H.2 SFRSYM    DATA     BIT       GP22
      00000090H.3 SFRSYM    DATA     BIT       GP13
      00000080H.4 SFRSYM    DATA     BIT       GP04
LX51 LINKER/LOCATER V4.66.1.0                                                         08/07/2017  15:30:51  PAGE 33


      000000B8H.1 SFRSYM    DATA     BIT       PLVW1
      000000A8H.3 SFRSYM    DATA     BIT       SPIIE
      00000088H.5 SFRSYM    DATA     BIT       TSDIF
      000000B0H.2 SFRSYM    DATA     BIT       GP32
      000000A0H.3 SFRSYM    DATA     BIT       GP23
      00000090H.4 SFRSYM    DATA     BIT       GP14
      00000080H.5 SFRSYM    DATA     BIT       GP05
      00000084H   SFRSYM    DATA     BYTE      FLKEY
      000000B3H   SFRSYM    DATA     BYTE      TIM2_CMTRH
      000000B0H.3 SFRSYM    DATA     BIT       GP33
      000000A0H.4 SFRSYM    DATA     BIT       GP24
      00000090H.5 SFRSYM    DATA     BIT       GP15
      00000080H.6 SFRSYM    DATA     BIT       GP06
      00000088H   SFRSYM    DATA     BIT       IT00
      01002FFEH   SYMBOL    CODE     ---       Interrupt_Config
      01002CB2H   SYMBOL    CODE     ---       TimNmsDefault
      01002BE6H   SYMBOL    CODE     ---       PWMinit
      01001E6FH   SYMBOL    CODE     ---       Bemfinit
      010026C8H   SYMBOL    CODE     ---       BemfDefault
      01003038H   SYMBOL    CODE     ---       GPIO_Config

      01002B50H   BLOCK     CODE     ---       LVL=0
      01002B50H   LINE      CODE     ---       #54
      01002B50H   LINE      CODE     ---       #55
      01002B50H   LINE      CODE     ---       #57
      01002B53H   LINE      CODE     ---       #59
      01002B56H   LINE      CODE     ---       #61
      01002B59H   LINE      CODE     ---       #63
      01002B5CH   LINE      CODE     ---       #65
      01002B5FH   LINE      CODE     ---       #69
      01002B62H   LINE      CODE     ---       #71
      01002B65H   LINE      CODE     ---       #73
      01002B68H   LINE      CODE     ---       #77
      01002B6BH   LINE      CODE     ---       #79
      01002B6EH   LINE      CODE     ---       #83
      01002B71H   LINE      CODE     ---       #85
      01002B74H   LINE      CODE     ---       #88
      01002B77H   LINE      CODE     ---       #90
      01002B7EH   LINE      CODE     ---       #91
      01002B82H   LINE      CODE     ---       #93
      01002B91H   LINE      CODE     ---       #95
      01002B97H   LINE      CODE     ---       #96
      01002B9CH   LINE      CODE     ---       #97
      ---         BLOCKEND  ---      ---       LVL=0

      01002FFEH   BLOCK     CODE     ---       LVL=0
      01002FFEH   LINE      CODE     ---       #106
      01002FFEH   LINE      CODE     ---       #107
      01002FFEH   LINE      CODE     ---       #108
      01003000H   LINE      CODE     ---       #111
      01003002H   LINE      CODE     ---       #112
      01003004H   LINE      CODE     ---       #118
      01003006H   LINE      CODE     ---       #119
      01003008H   LINE      CODE     ---       #122
      0100300AH   LINE      CODE     ---       #123
      0100300CH   LINE      CODE     ---       #126
      0100300EH   LINE      CODE     ---       #127
      01003010H   LINE      CODE     ---       #130
      01003012H   LINE      CODE     ---       #131
      01003014H   LINE      CODE     ---       #134
      01003016H   LINE      CODE     ---       #135
      01003018H   LINE      CODE     ---       #137
      0100301AH   LINE      CODE     ---       #138
      ---         BLOCKEND  ---      ---       LVL=0

LX51 LINKER/LOCATER V4.66.1.0                                                         08/07/2017  15:30:51  PAGE 34


      01003038H   BLOCK     CODE     ---       LVL=0
      01003038H   LINE      CODE     ---       #146
      01003038H   LINE      CODE     ---       #147
      01003038H   LINE      CODE     ---       #156
      0100303BH   LINE      CODE     ---       #157
      0100303EH   LINE      CODE     ---       #158
      01003041H   LINE      CODE     ---       #159
      01003044H   LINE      CODE     ---       #169
      01003047H   LINE      CODE     ---       #172
      0100304AH   LINE      CODE     ---       #173
      0100304CH   LINE      CODE     ---       #175
      0100304FH   LINE      CODE     ---       #176
      01003052H   LINE      CODE     ---       #177
      ---         BLOCKEND  ---      ---       LVL=0

      01002289H   BLOCK     CODE     ---       LVL=0
      01002289H   LINE      CODE     ---       #186
      01002289H   LINE      CODE     ---       #187
      01002289H   LINE      CODE     ---       #189
      01002293H   LINE      CODE     ---       #190
      01002298H   LINE      CODE     ---       #195
      0100229EH   LINE      CODE     ---       #196
      010022A2H   LINE      CODE     ---       #199
      010022ABH   LINE      CODE     ---       #200
      010022AEH   LINE      CODE     ---       #201
      010022B2H   LINE      CODE     ---       #217
      010022BBH   LINE      CODE     ---       #220
      010022C5H   LINE      CODE     ---       #221
      010022CBH   LINE      CODE     ---       #225
      010022D5H   LINE      CODE     ---       #226
      010022DBH   LINE      CODE     ---       #227
      010022E3H   LINE      CODE     ---       #230
      010022E6H   LINE      CODE     ---       #233
      010022E9H   LINE      CODE     ---       #261
      010022F0H   LINE      CODE     ---       #262
      010022F3H   LINE      CODE     ---       #263
      01002302H   LINE      CODE     ---       #264
      0100230CH   LINE      CODE     ---       #268
      0100230FH   LINE      CODE     ---       #273
      01002316H   LINE      CODE     ---       #274
      0100231CH   LINE      CODE     ---       #275
      01002320H   LINE      CODE     ---       #281
      ---         BLOCKEND  ---      ---       LVL=0

      01002AB4H   BLOCK     CODE     ---       LVL=0
      01002AB4H   LINE      CODE     ---       #290
      01002AB4H   LINE      CODE     ---       #291
      01002AB4H   LINE      CODE     ---       #292
      01002ABAH   LINE      CODE     ---       #295
      01002AC7H   LINE      CODE     ---       #299
      01002ACDH   LINE      CODE     ---       #300
      01002AD0H   LINE      CODE     ---       #303
      01002AD3H   LINE      CODE     ---       #312
      01002ADDH   LINE      CODE     ---       #313
      01002AECH   LINE      CODE     ---       #314
      01002AF3H   LINE      CODE     ---       #321
      01002AF6H   LINE      CODE     ---       #322
      01002AF9H   LINE      CODE     ---       #323
      01002AFFH   LINE      CODE     ---       #346
      ---         BLOCKEND  ---      ---       LVL=0

      010030C4H   BLOCK     CODE     ---       LVL=0
      00000006H   SYMBOL    DATA     WORD      timer
      010030C4H   LINE      CODE     ---       #350
      010030C4H   LINE      CODE     ---       #351
LX51 LINKER/LOCATER V4.66.1.0                                                         08/07/2017  15:30:51  PAGE 35


      010030C4H   LINE      CODE     ---       #352
      010030D2H   LINE      CODE     ---       #353
      010030D4H   LINE      CODE     ---       #354
      ---         BLOCKEND  ---      ---       LVL=0

      0100301BH   BLOCK     CODE     ---       LVL=0
      00000002H   SYMBOL    DATA     WORD      timer
      0100301BH   LINE      CODE     ---       #356
      01003021H   LINE      CODE     ---       #357
      01003021H   LINE      CODE     ---       #358
      01003035H   LINE      CODE     ---       #359
      01003037H   LINE      CODE     ---       #360
      ---         BLOCKEND  ---      ---       LVL=0

      01001E6FH   BLOCK     CODE     ---       LVL=0
      01001E6FH   LINE      CODE     ---       #363
      01001E6FH   LINE      CODE     ---       #364
      01001E6FH   LINE      CODE     ---       #365
      01001E75H   LINE      CODE     ---       #366
      01001E7BH   LINE      CODE     ---       #368
      01001E81H   LINE      CODE     ---       #370
      01001E8BH   LINE      CODE     ---       #371
      01001E92H   LINE      CODE     ---       #374
      01001E98H   LINE      CODE     ---       #375
      01001E9CH   LINE      CODE     ---       #376
      01001EA4H   LINE      CODE     ---       #377
      01001EA9H   LINE      CODE     ---       #378
      01001EB1H   LINE      CODE     ---       #379
      01001EB8H   LINE      CODE     ---       #380
      01001EBFH   LINE      CODE     ---       #381
      01001EC7H   LINE      CODE     ---       #382
      01001ED1H   LINE      CODE     ---       #383
      01001EDBH   LINE      CODE     ---       #384
      01001EE4H   LINE      CODE     ---       #385
      01001EE9H   LINE      CODE     ---       #386
      01001EEBH   LINE      CODE     ---       #387
      01001EEFH   LINE      CODE     ---       #388
      01001EF5H   LINE      CODE     ---       #390
      01001EFEH   LINE      CODE     ---       #391
      01001F05H   LINE      CODE     ---       #392
      01001F0DH   LINE      CODE     ---       #394
      01001F14H   LINE      CODE     ---       #395
      01001F1AH   LINE      CODE     ---       #397
      01001F20H   LINE      CODE     ---       #399
      01001F27H   LINE      CODE     ---       #400
      ---         BLOCKEND  ---      ---       LVL=0

      01002BE6H   BLOCK     CODE     ---       LVL=0
      01002BE6H   LINE      CODE     ---       #402
      01002BE6H   LINE      CODE     ---       #403
      01002BE6H   LINE      CODE     ---       #404
      01002BEDH   LINE      CODE     ---       #405
      01002BF3H   LINE      CODE     ---       #406
      01002BF7H   LINE      CODE     ---       #407
      01002C00H   LINE      CODE     ---       #408
      01002C08H   LINE      CODE     ---       #409
      01002C10H   LINE      CODE     ---       #410
      01002C18H   LINE      CODE     ---       #411
      01002C22H   LINE      CODE     ---       #412
      01002C2BH   LINE      CODE     ---       #413
      ---         BLOCKEND  ---      ---       LVL=0

      010026C8H   BLOCK     CODE     ---       LVL=0
      010026C8H   LINE      CODE     ---       #440
      010026C8H   LINE      CODE     ---       #441
LX51 LINKER/LOCATER V4.66.1.0                                                         08/07/2017  15:30:51  PAGE 36


      010026C8H   LINE      CODE     ---       #442
      010026CFH   LINE      CODE     ---       #443
      010026D3H   LINE      CODE     ---       #444
      010026D9H   LINE      CODE     ---       #445
      010026DFH   LINE      CODE     ---       #446
      010026E5H   LINE      CODE     ---       #447
      010026EBH   LINE      CODE     ---       #453
      010026F2H   LINE      CODE     ---       #454
      010026F6H   LINE      CODE     ---       #455
      01002705H   LINE      CODE     ---       #456
      0100270AH   LINE      CODE     ---       #457
      0100270EH   LINE      CODE     ---       #458
      01002710H   LINE      CODE     ---       #459
      01002714H   LINE      CODE     ---       #460
      0100271EH   LINE      CODE     ---       #461
      01002725H   LINE      CODE     ---       #462
      0100272BH   LINE      CODE     ---       #463
      0100272FH   LINE      CODE     ---       #465
      01002735H   LINE      CODE     ---       #466
      ---         BLOCKEND  ---      ---       LVL=0

      01002CB2H   BLOCK     CODE     ---       LVL=0
      01002CB2H   LINE      CODE     ---       #467
      01002CB2H   LINE      CODE     ---       #468
      01002CB2H   LINE      CODE     ---       #471
      01002CB9H   LINE      CODE     ---       #472
      01002CBFH   LINE      CODE     ---       #473
      01002CC5H   LINE      CODE     ---       #474
      01002CCBH   LINE      CODE     ---       #475
      01002CCFH   LINE      CODE     ---       #476
      01002CD3H   LINE      CODE     ---       #477
      01002CD7H   LINE      CODE     ---       #478
      01002CDBH   LINE      CODE     ---       #480
      01002CE1H   LINE      CODE     ---       #481
      01002CE5H   LINE      CODE     ---       #482
      01002CE9H   LINE      CODE     ---       #483
      01002CEFH   LINE      CODE     ---       #484
      01002CF1H   LINE      CODE     ---       #485
      ---         BLOCKEND  ---      ---       LVL=0

      ---         MODULE    ---      ---       MC_USERINTERFACE_LAYER
      02000281H   PUBLIC    XDATA    ---       Uc
      01001CE4H   PUBLIC    CODE     ---       UI
      000000E2H   SFRSYM    DATA     BYTE      SV_USL
      000000ABH   SFRSYM    DATA     BYTE      TIM2_CNTRH
      000000B0H.4 SFRSYM    DATA     BIT       GP34
      000000A0H.5 SFRSYM    DATA     BIT       GP25
      00000090H.6 SFRSYM    DATA     BIT       GP16
      00000080H.7 SFRSYM    DATA     BIT       GP07
      00000088H.1 SFRSYM    DATA     BIT       IT01
      00000088H.3 SFRSYM    DATA     BIT       IT10
      000000F6H   SFRSYM    DATA     WORD      PI_UKMIN
      000000C2H   SFRSYM    DATA     WORD      MD_MA
      000000A3H   SFRSYM    DATA     BYTE      TIM3_CNTRH
      000000B0H.5 SFRSYM    DATA     BIT       GP35
      000000A0H.6 SFRSYM    DATA     BIT       GP26
      00000090H.7 SFRSYM    DATA     BIT       GP17
      00000080H   SFRSYM    DATA     BYTE      P0
      00000088H.4 SFRSYM    DATA     BIT       IT11
      000000CAH   SFRSYM    DATA     WORD      MD_MB
      00000093H   SFRSYM    DATA     BYTE      TIM4_CNTRH
      000000B0H.6 SFRSYM    DATA     BIT       GP36
      000000A0H.7 SFRSYM    DATA     BIT       GP27
      00000090H   SFRSYM    DATA     BYTE      P1
      000000D9H   SFRSYM    DATA     BYTE      EVT_FILT
LX51 LINKER/LOCATER V4.66.1.0                                                         08/07/2017  15:30:51  PAGE 37


      000000F4H   SFRSYM    DATA     WORD      PI_UKMAX
      0000008BH   SFRSYM    DATA     BYTE      TIM5_CNTRH
      000000B2H   SFRSYM    DATA     BYTE      TIM2_CMTRL
      000000B0H.7 SFRSYM    DATA     BIT       GP37
      000000A0H   SFRSYM    DATA     BYTE      P2
      000000AAH   SFRSYM    DATA     BYTE      TIM2_CNTRL
      000000B0H   SFRSYM    DATA     BYTE      P3
      000000A2H   SFRSYM    DATA     BYTE      TIM3_CNTRL
      000000D0H.6 SFRSYM    DATA     BIT       AC
      00000092H   SFRSYM    DATA     BYTE      TIM4_CNTRL
      0000008AH   SFRSYM    DATA     BYTE      TIM5_CNTRL
      000000B6H   SFRSYM    DATA     WORD      TIM0_CCR1
      000000A8H.7 SFRSYM    DATA     BIT       EA
      000000D5H   SFRSYM    DATA     BYTE      CMP_CR0
      000000BAH   SFRSYM    DATA     WORD      TIM0_CCR2
      000000D6H   SFRSYM    DATA     BYTE      CMP_CR1
      000000BCH   SFRSYM    DATA     WORD      TIM0_CCR3
      00000085H   SFRSYM    DATA     BYTE      PSCTL
      000000DAH   SFRSYM    DATA     BYTE      CMP_CR2
      000000BEH   SFRSYM    DATA     WORD      TIM0_CCR4
      000000B8H.2 SFRSYM    DATA     BIT       PX00
      000000EAH   SFRSYM    DATA     WORD      PI_EK
      000000F8H   SFRSYM    DATA     BIT       OISUH
      000000B8H.3 SFRSYM    DATA     BIT       PX01
      000000B8H.4 SFRSYM    DATA     BIT       PX10
      000000F8H.2 SFRSYM    DATA     BIT       OISVH
      000000B8H.5 SFRSYM    DATA     BIT       PX11
      000000F8H.4 SFRSYM    DATA     BIT       OISWH
      000000DCH   SFRSYM    DATA     WORD      LPF_K
      000000F2H   SFRSYM    DATA     WORD      PI_KI
      000000F8H.1 SFRSYM    DATA     BIT       OISUL
      000000A8H   SFRSYM    DATA     BYTE      IE
      000000F8H.3 SFRSYM    DATA     BIT       OISVL
      000000F8H.5 SFRSYM    DATA     BIT       OISWL
      000000D1H   SFRSYM    DATA     BYTE      P1IE
      00000098H.6 SFRSYM    DATA     BIT       MOD0
      000000D3H   SFRSYM    DATA     BYTE      P2IE
      000000D2H   SFRSYM    DATA     BYTE      P1IF
      000000F9H   SFRSYM    DATA     BYTE      PL_CR
      00000098H.7 SFRSYM    DATA     BIT       MOD1
      000000D4H   SFRSYM    DATA     BYTE      P2IF
      000000ACH   SFRSYM    DATA     WORD      TIM2_DR
      00000082H   SFRSYM    DATA     WORD      DP
      000000EEH   SFRSYM    DATA     WORD      PI_KP
      000000A4H   SFRSYM    DATA     WORD      TIM3_DR
      00000094H   SFRSYM    DATA     WORD      TIM4_DR
      0000008CH   SFRSYM    DATA     WORD      TIM5_DR
      000000F1H   SFRSYM    DATA     BYTE      OSC_CFG
      000000C1H   SFRSYM    DATA     BYTE      MD_MODE
      000000ECH   SFRSYM    DATA     WORD      PI_UK
      000000DEH   SFRSYM    DATA     WORD      LPF_X
      00000098H   SFRSYM    DATA     BIT       RI
      000000E6H   SFRSYM    DATA     WORD      LPF_Y
      000000C0H   SFRSYM    DATA     BIT       PTIM00
      000000D0H.7 SFRSYM    DATA     BIT       CY
      00000098H.1 SFRSYM    DATA     BIT       TI
      000000C0H.1 SFRSYM    DATA     BIT       PTIM01
      000000C0H.2 SFRSYM    DATA     BIT       PTIM10
      000000C0H.3 SFRSYM    DATA     BIT       PTIM11
      000000E1H   SFRSYM    DATA     BYTE      SV_CR
      00000098H   SFRSYM    DATA     BYTE      UT_CR
      00000099H   SFRSYM    DATA     BYTE      UT_DR
      000000F8H.6 SFRSYM    DATA     BIT       OIS4
      00000081H   SFRSYM    DATA     BYTE      SP
      000000D0H.2 SFRSYM    DATA     BIT       OV
LX51 LINKER/LOCATER V4.66.1.0                                                         08/07/2017  15:30:51  PAGE 38


      000000C4H   SFRSYM    DATA     BYTE      MD_DA0
      0000009AH   SFRSYM    DATA     WORD      UT_BAUD
      000000CCH   SFRSYM    DATA     BYTE      MD_DB0
      000000C5H   SFRSYM    DATA     BYTE      MD_DA1
      000000CDH   SFRSYM    DATA     BYTE      MD_DB1
      000000C6H   SFRSYM    DATA     BYTE      MD_DA2
      000000CEH   SFRSYM    DATA     BYTE      MD_DB2
      000000C7H   SFRSYM    DATA     BYTE      MD_DA3
      000000B4H   SFRSYM    DATA     WORD      TIM2_ADTR
      000000CFH   SFRSYM    DATA     BYTE      MD_DB3
      000000AFH   SFRSYM    DATA     BYTE      TIM2_ARRH
      000000A7H   SFRSYM    DATA     BYTE      TIM3_ARRH
      00000097H   SFRSYM    DATA     BYTE      TIM4_ARRH
      0000008FH   SFRSYM    DATA     BYTE      TIM5_ARRH
      000000AEH   SFRSYM    DATA     BYTE      TIM2_ARRL
      000000A6H   SFRSYM    DATA     BYTE      TIM3_ARRL
      00000087H   SFRSYM    DATA     BYTE      PCON
      000000E2H   SFRSYM    DATA     WORD      SV_US
      00000096H   SFRSYM    DATA     BYTE      TIM4_ARRL
      0000008EH   SFRSYM    DATA     BYTE      TIM5_ARRL
      000000B2H   SFRSYM    DATA     WORD      TIM2_CMTR
      00000088H   SFRSYM    DATA     BYTE      TCON
      000000AAH   SFRSYM    DATA     WORD      TIM2_CNTR
      000000A2H   SFRSYM    DATA     WORD      TIM3_CNTR
      00000092H   SFRSYM    DATA     WORD      TIM4_CNTR
      0000008AH   SFRSYM    DATA     WORD      TIM5_CNTR
      000000E5H   SFRSYM    DATA     BYTE      SV_ANGLEH
      000000D8H   SFRSYM    DATA     BIT       PUART0
      000000E4H   SFRSYM    DATA     BYTE      SV_ANGLEL
      000000C6H   SFRSYM    DATA     WORD      MD_DAH
      000000D8H.1 SFRSYM    DATA     BIT       PUART1
      000000D8H.2 SFRSYM    DATA     BIT       PI2C0
      00000088H.2 SFRSYM    DATA     BIT       IF0
      000000CEH   SFRSYM    DATA     WORD      MD_DBH
      000000D8H.3 SFRSYM    DATA     BIT       PI2C1
      000000F0H   SFRSYM    DATA     BYTE      B
      000000C4H   SFRSYM    DATA     WORD      MD_DAL
      000000A1H   SFRSYM    DATA     BYTE      TIM2_CR0
      000000CCH   SFRSYM    DATA     WORD      MD_DBL
      0000009CH   SFRSYM    DATA     BYTE      TIM3_CR0
      000000A9H   SFRSYM    DATA     BYTE      TIM2_CR1
      0000009EH   SFRSYM    DATA     BYTE      TIM4_CR0
      0000009DH   SFRSYM    DATA     BYTE      TIM3_CR1
      00000089H   SFRSYM    DATA     BYTE      TIM5_CR0
      0000009FH   SFRSYM    DATA     BYTE      TIM4_CR1
      000000F8H   SFRSYM    DATA     BYTE      DRV_OUT
      00000091H   SFRSYM    DATA     BYTE      TIM5_CR1
      000000E0H   SFRSYM    DATA     BYTE      ACC
      000000F7H   SFRSYM    DATA     BYTE      PI_UKMINH
      000000C3H   SFRSYM    DATA     BYTE      MD_MAH
      000000A8H.4 SFRSYM    DATA     BIT       ES0
      000000DBH   SFRSYM    DATA     BYTE      LVSR
      000000CBH   SFRSYM    DATA     BYTE      MD_MBH
      000000C0H.4 SFRSYM    DATA     BIT       PADC0
      000000B8H   SFRSYM    DATA     BYTE      IP0
      000000F5H   SFRSYM    DATA     BYTE      PI_UKMAXH
      000000C0H.5 SFRSYM    DATA     BIT       PADC1
      000000C0H   SFRSYM    DATA     BYTE      IP1
      000000C8H   SFRSYM    DATA     BYTE      IP2
      000000F6H   SFRSYM    DATA     BYTE      PI_UKMINL
      000000C2H   SFRSYM    DATA     BYTE      MD_MAL
      00000098H.2 SFRSYM    DATA     BIT       RB8
      000000D8H   SFRSYM    DATA     BYTE      IP3
      000000CAH   SFRSYM    DATA     BYTE      MD_MBL
      000000A8H   SFRSYM    DATA     BIT       EX0
LX51 LINKER/LOCATER V4.66.1.0                                                         08/07/2017  15:30:51  PAGE 39


      000000F4H   SFRSYM    DATA     BYTE      PI_UKMAXL
      00000098H.3 SFRSYM    DATA     BIT       TB8
      000000B7H   SFRSYM    DATA     BYTE      TIM0_CCR1H
      000000A8H.2 SFRSYM    DATA     BIT       EX1
      000000BBH   SFRSYM    DATA     BYTE      TIM0_CCR2H
      000000D0H   SFRSYM    DATA     BIT       P
      000000BDH   SFRSYM    DATA     BYTE      TIM0_CCR3H
      000000BFH   SFRSYM    DATA     BYTE      TIM0_CCR4H
      000000C8H.2 SFRSYM    DATA     BIT       PTIM230
      000000EBH   SFRSYM    DATA     BYTE      PI_EKH
      00000098H.5 SFRSYM    DATA     BIT       SM2
      000000B6H   SFRSYM    DATA     BYTE      TIM0_CCR1L
      000000B1H   SFRSYM    DATA     BYTE      TIM0_SR1
      000000C8H.3 SFRSYM    DATA     BIT       PTIM231
      000000BAH   SFRSYM    DATA     BYTE      TIM0_CCR2L
      000000BCH   SFRSYM    DATA     BYTE      TIM0_CCR3L
      000000BEH   SFRSYM    DATA     BYTE      TIM0_CCR4L
      000000D8H.6 SFRSYM    DATA     BIT       PMCD0
      000000C8H.4 SFRSYM    DATA     BIT       PTIM450
      000000D0H.3 SFRSYM    DATA     BIT       RS0
      000000DDH   SFRSYM    DATA     BYTE      LPF_KH
      000000F3H   SFRSYM    DATA     BYTE      PI_KIH
      000000EAH   SFRSYM    DATA     BYTE      PI_EKL
      000000E8H   SFRSYM    DATA     BYTE      FOC_SET0
      000000D8H.7 SFRSYM    DATA     BIT       PMCD1
      000000C8H.5 SFRSYM    DATA     BIT       PTIM451
      000000D0H.4 SFRSYM    DATA     BIT       RS1
      000000E9H   SFRSYM    DATA     BYTE      FOC_SET1
      000000B8H.6 SFRSYM    DATA     BIT       PFOC0
      000000DCH   SFRSYM    DATA     BYTE      LPF_KL
      000000F2H   SFRSYM    DATA     BYTE      PI_KIL
      000000B8H.7 SFRSYM    DATA     BIT       PFOC1
      000000ADH   SFRSYM    DATA     BYTE      TIM2_DRH
      000000B9H   SFRSYM    DATA     BYTE      TIM0_IER
      00000083H   SFRSYM    DATA     BYTE      DPH
      000000EFH   SFRSYM    DATA     BYTE      PI_KPH
      000000A5H   SFRSYM    DATA     BYTE      TIM3_DRH
      00000095H   SFRSYM    DATA     BYTE      TIM4_DRH
      0000008DH   SFRSYM    DATA     BYTE      TIM5_DRH
      000000ACH   SFRSYM    DATA     BYTE      TIM2_DRL
      00000082H   SFRSYM    DATA     BYTE      DPL
      000000EEH   SFRSYM    DATA     BYTE      PI_KPL
      000000A4H   SFRSYM    DATA     BYTE      TIM3_DRL
      000000F8H.7 SFRSYM    DATA     BIT       MOE
      000000C0H.6 SFRSYM    DATA     BIT       PCMP0
      000000EDH   SFRSYM    DATA     BYTE      PI_UKH
      00000094H   SFRSYM    DATA     BYTE      TIM4_DRL
      000000C0H.7 SFRSYM    DATA     BIT       PCMP1
      000000DFH   SFRSYM    DATA     BYTE      LPF_XH
      0000008CH   SFRSYM    DATA     BYTE      TIM5_DRL
      000000AEH   SFRSYM    DATA     WORD      TIM2_ARR
      000000A8H.5 SFRSYM    DATA     BIT       MCDIE
      000000C9H   SFRSYM    DATA     BYTE      RSTSRC
      000000E7H   SFRSYM    DATA     BYTE      LPF_YH
      000000A6H   SFRSYM    DATA     WORD      TIM3_ARR
      00000088H.6 SFRSYM    DATA     BIT       MCDIF
      00000098H.4 SFRSYM    DATA     BIT       REN
      00000096H   SFRSYM    DATA     WORD      TIM4_ARR
      000000ECH   SFRSYM    DATA     BYTE      PI_UKL
      000000D7H   SFRSYM    DATA     BYTE      CMP_SR
      0000008EH   SFRSYM    DATA     WORD      TIM5_ARR
      000000DEH   SFRSYM    DATA     BYTE      LPF_XL
      000000E6H   SFRSYM    DATA     BYTE      LPF_YL
      000000C8H   SFRSYM    DATA     BIT       PRTC0
      000000C8H.1 SFRSYM    DATA     BIT       PRTC1
LX51 LINKER/LOCATER V4.66.1.0                                                         08/07/2017  15:30:51  PAGE 40


      000000E8H.7 SFRSYM    DATA     BIT       FOCEN
      000000C8H.6 SFRSYM    DATA     BIT       PTSD0
      000000D8H.4 SFRSYM    DATA     BIT       PSPI0
      000000C8H.7 SFRSYM    DATA     BIT       PTSD1
      000000D8H.5 SFRSYM    DATA     BIT       PSPI1
      0000009BH   SFRSYM    DATA     BYTE      UT_BAUDH
      000000E4H   SFRSYM    DATA     WORD      SV_ANGLE
      000000B5H   SFRSYM    DATA     BYTE      TIM2_ADTRH
      0000009AH   SFRSYM    DATA     BYTE      UT_BAUDL
      000000FCH   SFRSYM    DATA     BYTE      P0_OE
      000000FDH   SFRSYM    DATA     BYTE      P1_OE
      000000D0H.5 SFRSYM    DATA     BIT       F0
      000000B4H   SFRSYM    DATA     BYTE      TIM2_ADTRL
      000000FEH   SFRSYM    DATA     BYTE      P2_OE
      000000D0H.1 SFRSYM    DATA     BIT       F1
      00000080H   SFRSYM    DATA     BIT       GP00
      000000FFH   SFRSYM    DATA     BYTE      P3_OE
      00000090H   SFRSYM    DATA     BIT       GP10
      00000080H.1 SFRSYM    DATA     BIT       GP01
      000000A8H.6 SFRSYM    DATA     BIT       RTCIE
      000000A0H   SFRSYM    DATA     BIT       GP20
      00000090H.1 SFRSYM    DATA     BIT       GP11
      00000080H.2 SFRSYM    DATA     BIT       GP02
      000000E3H   SFRSYM    DATA     BYTE      SV_USH
      000000B0H   SFRSYM    DATA     BIT       GP30
      000000A0H.1 SFRSYM    DATA     BIT       GP21
      00000090H.2 SFRSYM    DATA     BIT       GP12
      00000080H.3 SFRSYM    DATA     BIT       GP03
      000000B8H   SFRSYM    DATA     BIT       PLVW0
      000000A8H.1 SFRSYM    DATA     BIT       TSDIE
      000000D0H   SFRSYM    DATA     BYTE      PSW
      000000B0H.1 SFRSYM    DATA     BIT       GP31
      000000A0H.2 SFRSYM    DATA     BIT       GP22
      00000090H.3 SFRSYM    DATA     BIT       GP13
      00000080H.4 SFRSYM    DATA     BIT       GP04
      000000B8H.1 SFRSYM    DATA     BIT       PLVW1
      000000A8H.3 SFRSYM    DATA     BIT       SPIIE
      00000088H.5 SFRSYM    DATA     BIT       TSDIF
      000000B0H.2 SFRSYM    DATA     BIT       GP32
      000000A0H.3 SFRSYM    DATA     BIT       GP23
      00000090H.4 SFRSYM    DATA     BIT       GP14
      00000080H.5 SFRSYM    DATA     BIT       GP05
      00000084H   SFRSYM    DATA     BYTE      FLKEY
      000000B3H   SFRSYM    DATA     BYTE      TIM2_CMTRH
      000000B0H.3 SFRSYM    DATA     BIT       GP33
      000000A0H.4 SFRSYM    DATA     BIT       GP24
      00000090H.5 SFRSYM    DATA     BIT       GP15
      00000080H.6 SFRSYM    DATA     BIT       GP06
      00000088H   SFRSYM    DATA     BIT       IT00

      01001CE4H   BLOCK     CODE     ---       LVL=0
      01001CE4H   LINE      CODE     ---       #45
      01001CE4H   LINE      CODE     ---       #46
      01001CE4H   LINE      CODE     ---       #53
      01001CECH   LINE      CODE     ---       #57
      01001CEFH   LINE      CODE     ---       #61
      01001CF2H   LINE      CODE     ---       #91
      01001CF5H   LINE      CODE     ---       #213
      01001CFBH   LINE      CODE     ---       #215
      01001D09H   LINE      CODE     ---       #216
      01001D11H   LINE      CODE     ---       #227
      01001D1EH   LINE      CODE     ---       #228
      01001D1EH   LINE      CODE     ---       #229
      01001D24H   LINE      CODE     ---       #230
      01001D26H   LINE      CODE     ---       #231
LX51 LINKER/LOCATER V4.66.1.0                                                         08/07/2017  15:30:51  PAGE 41


      01001D2DH   LINE      CODE     ---       #232
      01001D2DH   LINE      CODE     ---       #233
      01001D34H   LINE      CODE     ---       #234
      01001D34H   LINE      CODE     ---       #235
      01001D34H   LINE      CODE     ---       #236
      01001D34H   LINE      CODE     ---       #237
      01001D36H   LINE      CODE     ---       #238
      01001D3EH   LINE      CODE     ---       #239
      01001D3EH   LINE      CODE     ---       #240
      01001D44H   LINE      CODE     ---       #241
      01001D4AH   LINE      CODE     ---       #242
      01001D51H   LINE      CODE     ---       #243
      01001D51H   LINE      CODE     ---       #251
      01001D68H   LINE      CODE     ---       #252
      01001D68H   LINE      CODE     ---       #253
      01001D68H   LINE      CODE     ---       #254
      01001D68H   LINE      CODE     ---       #255
      01001D68H   LINE      CODE     ---       #257
      01001D6AH   LINE      CODE     ---       #259
      01001D6AH   LINE      CODE     ---       #260
      01001D6AH   LINE      CODE     ---       #261
      01001D6AH   LINE      CODE     ---       #262
      01001D6AH   LINE      CODE     ---       #263
      01001D6CH   LINE      CODE     ---       #264
      01001D73H   LINE      CODE     ---       #265
      01001D73H   LINE      CODE     ---       #266
      01001D78H   LINE      CODE     ---       #267
      01001D7DH   LINE      CODE     ---       #268
      01001D7DH   LINE      CODE     ---       #269
      01001D7DH   LINE      CODE     ---       #271
      01001D84H   LINE      CODE     ---       #272
      01001D84H   LINE      CODE     ---       #273
      01001D93H   LINE      CODE     ---       #274
      01001D93H   LINE      CODE     ---       #286
      01001DAAH   LINE      CODE     ---       #287
      01001DAAH   LINE      CODE     ---       #288
      01001DADH   LINE      CODE     ---       #289
      01001DAEH   LINE      CODE     ---       #291
      01001DAEH   LINE      CODE     ---       #292
      01001DB1H   LINE      CODE     ---       #293
      01001DB1H   LINE      CODE     ---       #297
      ---         BLOCKEND  ---      ---       LVL=0

      ---         MODULE    ---      ---       MC_MOTORFUNCTION_LAYER
      02000273H   PUBLIC    XDATA    ---       Power
      0100002AH   PUBLIC    CODE     ---       Drv_Stb3Calc
      01002F66H   PUBLIC    CODE     ---       Mcl_StallRestart
      010030E6H   PUBLIC    CODE     ---       Mcl_MotorRestart
      000000E2H   SFRSYM    DATA     BYTE      SV_USL
      000000ABH   SFRSYM    DATA     BYTE      TIM2_CNTRH
      000000B0H.4 SFRSYM    DATA     BIT       GP34
      000000A0H.5 SFRSYM    DATA     BIT       GP25
      00000090H.6 SFRSYM    DATA     BIT       GP16
      00000080H.7 SFRSYM    DATA     BIT       GP07
      00000088H.1 SFRSYM    DATA     BIT       IT01
      00000088H.3 SFRSYM    DATA     BIT       IT10
      000000F6H   SFRSYM    DATA     WORD      PI_UKMIN
      000000C2H   SFRSYM    DATA     WORD      MD_MA
      000000A3H   SFRSYM    DATA     BYTE      TIM3_CNTRH
      000000B0H.5 SFRSYM    DATA     BIT       GP35
      000000A0H.6 SFRSYM    DATA     BIT       GP26
      00000090H.7 SFRSYM    DATA     BIT       GP17
      00000080H   SFRSYM    DATA     BYTE      P0
      00000088H.4 SFRSYM    DATA     BIT       IT11
      000000CAH   SFRSYM    DATA     WORD      MD_MB
LX51 LINKER/LOCATER V4.66.1.0                                                         08/07/2017  15:30:51  PAGE 42


      00000093H   SFRSYM    DATA     BYTE      TIM4_CNTRH
      000000B0H.6 SFRSYM    DATA     BIT       GP36
      000000A0H.7 SFRSYM    DATA     BIT       GP27
      00000090H   SFRSYM    DATA     BYTE      P1
      000000D9H   SFRSYM    DATA     BYTE      EVT_FILT
      000000F4H   SFRSYM    DATA     WORD      PI_UKMAX
      0000008BH   SFRSYM    DATA     BYTE      TIM5_CNTRH
      000000B2H   SFRSYM    DATA     BYTE      TIM2_CMTRL
      000000B0H.7 SFRSYM    DATA     BIT       GP37
      000000A0H   SFRSYM    DATA     BYTE      P2
      000000AAH   SFRSYM    DATA     BYTE      TIM2_CNTRL
      000000B0H   SFRSYM    DATA     BYTE      P3
      000000A2H   SFRSYM    DATA     BYTE      TIM3_CNTRL
      000000D0H.6 SFRSYM    DATA     BIT       AC
      00000092H   SFRSYM    DATA     BYTE      TIM4_CNTRL
      0000008AH   SFRSYM    DATA     BYTE      TIM5_CNTRL
      000000B6H   SFRSYM    DATA     WORD      TIM0_CCR1
      000000A8H.7 SFRSYM    DATA     BIT       EA
      000000D5H   SFRSYM    DATA     BYTE      CMP_CR0
      000000BAH   SFRSYM    DATA     WORD      TIM0_CCR2
      000000D6H   SFRSYM    DATA     BYTE      CMP_CR1
      000000BCH   SFRSYM    DATA     WORD      TIM0_CCR3
      00000085H   SFRSYM    DATA     BYTE      PSCTL
      000000DAH   SFRSYM    DATA     BYTE      CMP_CR2
      000000BEH   SFRSYM    DATA     WORD      TIM0_CCR4
      000000B8H.2 SFRSYM    DATA     BIT       PX00
      000000EAH   SFRSYM    DATA     WORD      PI_EK
      000000F8H   SFRSYM    DATA     BIT       OISUH
      000000B8H.3 SFRSYM    DATA     BIT       PX01
      000000B8H.4 SFRSYM    DATA     BIT       PX10
      000000F8H.2 SFRSYM    DATA     BIT       OISVH
      000000B8H.5 SFRSYM    DATA     BIT       PX11
      000000F8H.4 SFRSYM    DATA     BIT       OISWH
      000000DCH   SFRSYM    DATA     WORD      LPF_K
      000000F2H   SFRSYM    DATA     WORD      PI_KI
      000000F8H.1 SFRSYM    DATA     BIT       OISUL
      000000A8H   SFRSYM    DATA     BYTE      IE
      000000F8H.3 SFRSYM    DATA     BIT       OISVL
      000000F8H.5 SFRSYM    DATA     BIT       OISWL
      000000D1H   SFRSYM    DATA     BYTE      P1IE
      00000098H.6 SFRSYM    DATA     BIT       MOD0
      000000D3H   SFRSYM    DATA     BYTE      P2IE
      000000D2H   SFRSYM    DATA     BYTE      P1IF
      000000F9H   SFRSYM    DATA     BYTE      PL_CR
      00000098H.7 SFRSYM    DATA     BIT       MOD1
      000000D4H   SFRSYM    DATA     BYTE      P2IF
      000000ACH   SFRSYM    DATA     WORD      TIM2_DR
      00000082H   SFRSYM    DATA     WORD      DP
      000000EEH   SFRSYM    DATA     WORD      PI_KP
      000000A4H   SFRSYM    DATA     WORD      TIM3_DR
      00000094H   SFRSYM    DATA     WORD      TIM4_DR
      0000008CH   SFRSYM    DATA     WORD      TIM5_DR
      000000F1H   SFRSYM    DATA     BYTE      OSC_CFG
      000000C1H   SFRSYM    DATA     BYTE      MD_MODE
      000000ECH   SFRSYM    DATA     WORD      PI_UK
      000000DEH   SFRSYM    DATA     WORD      LPF_X
      00000098H   SFRSYM    DATA     BIT       RI
      000000E6H   SFRSYM    DATA     WORD      LPF_Y
      000000C0H   SFRSYM    DATA     BIT       PTIM00
      000000D0H.7 SFRSYM    DATA     BIT       CY
      00000098H.1 SFRSYM    DATA     BIT       TI
      000000C0H.1 SFRSYM    DATA     BIT       PTIM01
      000000C0H.2 SFRSYM    DATA     BIT       PTIM10
      000000C0H.3 SFRSYM    DATA     BIT       PTIM11
      000000E1H   SFRSYM    DATA     BYTE      SV_CR
LX51 LINKER/LOCATER V4.66.1.0                                                         08/07/2017  15:30:51  PAGE 43


      00000098H   SFRSYM    DATA     BYTE      UT_CR
      00000099H   SFRSYM    DATA     BYTE      UT_DR
      000000F8H.6 SFRSYM    DATA     BIT       OIS4
      00000081H   SFRSYM    DATA     BYTE      SP
      000000D0H.2 SFRSYM    DATA     BIT       OV
      000000C4H   SFRSYM    DATA     BYTE      MD_DA0
      0000009AH   SFRSYM    DATA     WORD      UT_BAUD
      000000CCH   SFRSYM    DATA     BYTE      MD_DB0
      000000C5H   SFRSYM    DATA     BYTE      MD_DA1
      000000CDH   SFRSYM    DATA     BYTE      MD_DB1
      000000C6H   SFRSYM    DATA     BYTE      MD_DA2
      000000CEH   SFRSYM    DATA     BYTE      MD_DB2
      000000C7H   SFRSYM    DATA     BYTE      MD_DA3
      000000B4H   SFRSYM    DATA     WORD      TIM2_ADTR
      000000CFH   SFRSYM    DATA     BYTE      MD_DB3
      000000AFH   SFRSYM    DATA     BYTE      TIM2_ARRH
      000000A7H   SFRSYM    DATA     BYTE      TIM3_ARRH
      00000097H   SFRSYM    DATA     BYTE      TIM4_ARRH
      0000008FH   SFRSYM    DATA     BYTE      TIM5_ARRH
      000000AEH   SFRSYM    DATA     BYTE      TIM2_ARRL
      000000A6H   SFRSYM    DATA     BYTE      TIM3_ARRL
      00000087H   SFRSYM    DATA     BYTE      PCON
      000000E2H   SFRSYM    DATA     WORD      SV_US
      00000096H   SFRSYM    DATA     BYTE      TIM4_ARRL
      0000008EH   SFRSYM    DATA     BYTE      TIM5_ARRL
      000000B2H   SFRSYM    DATA     WORD      TIM2_CMTR
      00000088H   SFRSYM    DATA     BYTE      TCON
      000000AAH   SFRSYM    DATA     WORD      TIM2_CNTR
      000000A2H   SFRSYM    DATA     WORD      TIM3_CNTR
      00000092H   SFRSYM    DATA     WORD      TIM4_CNTR
      0000008AH   SFRSYM    DATA     WORD      TIM5_CNTR
      000000E5H   SFRSYM    DATA     BYTE      SV_ANGLEH
      000000D8H   SFRSYM    DATA     BIT       PUART0
      000000E4H   SFRSYM    DATA     BYTE      SV_ANGLEL
      000000C6H   SFRSYM    DATA     WORD      MD_DAH
      000000D8H.1 SFRSYM    DATA     BIT       PUART1
      000000D8H.2 SFRSYM    DATA     BIT       PI2C0
      00000088H.2 SFRSYM    DATA     BIT       IF0
      000000CEH   SFRSYM    DATA     WORD      MD_DBH
      000000D8H.3 SFRSYM    DATA     BIT       PI2C1
      000000F0H   SFRSYM    DATA     BYTE      B
      000000C4H   SFRSYM    DATA     WORD      MD_DAL
      000000A1H   SFRSYM    DATA     BYTE      TIM2_CR0
      000000CCH   SFRSYM    DATA     WORD      MD_DBL
      0000009CH   SFRSYM    DATA     BYTE      TIM3_CR0
      000000A9H   SFRSYM    DATA     BYTE      TIM2_CR1
      0000009EH   SFRSYM    DATA     BYTE      TIM4_CR0
      0000009DH   SFRSYM    DATA     BYTE      TIM3_CR1
      00000089H   SFRSYM    DATA     BYTE      TIM5_CR0
      0000009FH   SFRSYM    DATA     BYTE      TIM4_CR1
      000000F8H   SFRSYM    DATA     BYTE      DRV_OUT
      00000091H   SFRSYM    DATA     BYTE      TIM5_CR1
      000000E0H   SFRSYM    DATA     BYTE      ACC
      000000F7H   SFRSYM    DATA     BYTE      PI_UKMINH
      000000C3H   SFRSYM    DATA     BYTE      MD_MAH
      000000A8H.4 SFRSYM    DATA     BIT       ES0
      000000DBH   SFRSYM    DATA     BYTE      LVSR
      000000CBH   SFRSYM    DATA     BYTE      MD_MBH
      000000C0H.4 SFRSYM    DATA     BIT       PADC0
      000000B8H   SFRSYM    DATA     BYTE      IP0
      000000F5H   SFRSYM    DATA     BYTE      PI_UKMAXH
      000000C0H.5 SFRSYM    DATA     BIT       PADC1
      000000C0H   SFRSYM    DATA     BYTE      IP1
      000000C8H   SFRSYM    DATA     BYTE      IP2
      000000F6H   SFRSYM    DATA     BYTE      PI_UKMINL
LX51 LINKER/LOCATER V4.66.1.0                                                         08/07/2017  15:30:51  PAGE 44


      000000C2H   SFRSYM    DATA     BYTE      MD_MAL
      00000098H.2 SFRSYM    DATA     BIT       RB8
      000000D8H   SFRSYM    DATA     BYTE      IP3
      000000CAH   SFRSYM    DATA     BYTE      MD_MBL
      000000A8H   SFRSYM    DATA     BIT       EX0
      000000F4H   SFRSYM    DATA     BYTE      PI_UKMAXL
      00000098H.3 SFRSYM    DATA     BIT       TB8
      000000B7H   SFRSYM    DATA     BYTE      TIM0_CCR1H
      000000A8H.2 SFRSYM    DATA     BIT       EX1
      000000BBH   SFRSYM    DATA     BYTE      TIM0_CCR2H
      000000D0H   SFRSYM    DATA     BIT       P
      000000BDH   SFRSYM    DATA     BYTE      TIM0_CCR3H
      000000BFH   SFRSYM    DATA     BYTE      TIM0_CCR4H
      000000C8H.2 SFRSYM    DATA     BIT       PTIM230
      000000EBH   SFRSYM    DATA     BYTE      PI_EKH
      00000098H.5 SFRSYM    DATA     BIT       SM2
      000000B6H   SFRSYM    DATA     BYTE      TIM0_CCR1L
      000000B1H   SFRSYM    DATA     BYTE      TIM0_SR1
      000000C8H.3 SFRSYM    DATA     BIT       PTIM231
      000000BAH   SFRSYM    DATA     BYTE      TIM0_CCR2L
      000000BCH   SFRSYM    DATA     BYTE      TIM0_CCR3L
      000000BEH   SFRSYM    DATA     BYTE      TIM0_CCR4L
      000000D8H.6 SFRSYM    DATA     BIT       PMCD0
      000000C8H.4 SFRSYM    DATA     BIT       PTIM450
      000000D0H.3 SFRSYM    DATA     BIT       RS0
      000000DDH   SFRSYM    DATA     BYTE      LPF_KH
      000000F3H   SFRSYM    DATA     BYTE      PI_KIH
      000000EAH   SFRSYM    DATA     BYTE      PI_EKL
      000000E8H   SFRSYM    DATA     BYTE      FOC_SET0
      000000D8H.7 SFRSYM    DATA     BIT       PMCD1
      000000C8H.5 SFRSYM    DATA     BIT       PTIM451
      000000D0H.4 SFRSYM    DATA     BIT       RS1
      000000E9H   SFRSYM    DATA     BYTE      FOC_SET1
      000000B8H.6 SFRSYM    DATA     BIT       PFOC0
      000000DCH   SFRSYM    DATA     BYTE      LPF_KL
      000000F2H   SFRSYM    DATA     BYTE      PI_KIL
      000000B8H.7 SFRSYM    DATA     BIT       PFOC1
      000000ADH   SFRSYM    DATA     BYTE      TIM2_DRH
      000000B9H   SFRSYM    DATA     BYTE      TIM0_IER
      00000083H   SFRSYM    DATA     BYTE      DPH
      000000EFH   SFRSYM    DATA     BYTE      PI_KPH
      000000A5H   SFRSYM    DATA     BYTE      TIM3_DRH
      00000095H   SFRSYM    DATA     BYTE      TIM4_DRH
      0000008DH   SFRSYM    DATA     BYTE      TIM5_DRH
      000000ACH   SFRSYM    DATA     BYTE      TIM2_DRL
      00000082H   SFRSYM    DATA     BYTE      DPL
      000000EEH   SFRSYM    DATA     BYTE      PI_KPL
      000000A4H   SFRSYM    DATA     BYTE      TIM3_DRL
      000000F8H.7 SFRSYM    DATA     BIT       MOE
      000000C0H.6 SFRSYM    DATA     BIT       PCMP0
      000000EDH   SFRSYM    DATA     BYTE      PI_UKH
      00000094H   SFRSYM    DATA     BYTE      TIM4_DRL
      000000C0H.7 SFRSYM    DATA     BIT       PCMP1
      000000DFH   SFRSYM    DATA     BYTE      LPF_XH
      0000008CH   SFRSYM    DATA     BYTE      TIM5_DRL
      000000AEH   SFRSYM    DATA     WORD      TIM2_ARR
      000000A8H.5 SFRSYM    DATA     BIT       MCDIE
      000000C9H   SFRSYM    DATA     BYTE      RSTSRC
      000000E7H   SFRSYM    DATA     BYTE      LPF_YH
      000000A6H   SFRSYM    DATA     WORD      TIM3_ARR
      00000088H.6 SFRSYM    DATA     BIT       MCDIF
      00000098H.4 SFRSYM    DATA     BIT       REN
      00000096H   SFRSYM    DATA     WORD      TIM4_ARR
      000000ECH   SFRSYM    DATA     BYTE      PI_UKL
      000000D7H   SFRSYM    DATA     BYTE      CMP_SR
LX51 LINKER/LOCATER V4.66.1.0                                                         08/07/2017  15:30:51  PAGE 45


      0000008EH   SFRSYM    DATA     WORD      TIM5_ARR
      000000DEH   SFRSYM    DATA     BYTE      LPF_XL
      000000E6H   SFRSYM    DATA     BYTE      LPF_YL
      000000C8H   SFRSYM    DATA     BIT       PRTC0
      000000C8H.1 SFRSYM    DATA     BIT       PRTC1
      000000E8H.7 SFRSYM    DATA     BIT       FOCEN
      000000C8H.6 SFRSYM    DATA     BIT       PTSD0
      000000D8H.4 SFRSYM    DATA     BIT       PSPI0
      000000C8H.7 SFRSYM    DATA     BIT       PTSD1
      000000D8H.5 SFRSYM    DATA     BIT       PSPI1
      0000009BH   SFRSYM    DATA     BYTE      UT_BAUDH
      000000E4H   SFRSYM    DATA     WORD      SV_ANGLE
      000000B5H   SFRSYM    DATA     BYTE      TIM2_ADTRH
      0000009AH   SFRSYM    DATA     BYTE      UT_BAUDL
      000000FCH   SFRSYM    DATA     BYTE      P0_OE
      000000FDH   SFRSYM    DATA     BYTE      P1_OE
      000000D0H.5 SFRSYM    DATA     BIT       F0
      000000B4H   SFRSYM    DATA     BYTE      TIM2_ADTRL
      000000FEH   SFRSYM    DATA     BYTE      P2_OE
      000000D0H.1 SFRSYM    DATA     BIT       F1
      00000080H   SFRSYM    DATA     BIT       GP00
      000000FFH   SFRSYM    DATA     BYTE      P3_OE
      00000090H   SFRSYM    DATA     BIT       GP10
      00000080H.1 SFRSYM    DATA     BIT       GP01
      000000A8H.6 SFRSYM    DATA     BIT       RTCIE
      000000A0H   SFRSYM    DATA     BIT       GP20
      00000090H.1 SFRSYM    DATA     BIT       GP11
      00000080H.2 SFRSYM    DATA     BIT       GP02
      000000E3H   SFRSYM    DATA     BYTE      SV_USH
      000000B0H   SFRSYM    DATA     BIT       GP30
      000000A0H.1 SFRSYM    DATA     BIT       GP21
      00000090H.2 SFRSYM    DATA     BIT       GP12
      00000080H.3 SFRSYM    DATA     BIT       GP03
      000000B8H   SFRSYM    DATA     BIT       PLVW0
      000000A8H.1 SFRSYM    DATA     BIT       TSDIE
      000000D0H   SFRSYM    DATA     BYTE      PSW
      000000B0H.1 SFRSYM    DATA     BIT       GP31
      000000A0H.2 SFRSYM    DATA     BIT       GP22
      00000090H.3 SFRSYM    DATA     BIT       GP13
      00000080H.4 SFRSYM    DATA     BIT       GP04
      000000B8H.1 SFRSYM    DATA     BIT       PLVW1
      000000A8H.3 SFRSYM    DATA     BIT       SPIIE
      00000088H.5 SFRSYM    DATA     BIT       TSDIF
      000000B0H.2 SFRSYM    DATA     BIT       GP32
      000000A0H.3 SFRSYM    DATA     BIT       GP23
      00000090H.4 SFRSYM    DATA     BIT       GP14
      00000080H.5 SFRSYM    DATA     BIT       GP05
      00000084H   SFRSYM    DATA     BYTE      FLKEY
      000000B3H   SFRSYM    DATA     BYTE      TIM2_CMTRH
      000000B0H.3 SFRSYM    DATA     BIT       GP33
      000000A0H.4 SFRSYM    DATA     BIT       GP24
      00000090H.5 SFRSYM    DATA     BIT       GP15
      00000080H.6 SFRSYM    DATA     BIT       GP06
      00000088H   SFRSYM    DATA     BIT       IT00
      00000006H   SYMBOL    DATA     WORD      VthMeas
      00000006H   SYMBOL    DATA     WORD      tVthMeas

      010030E6H   BLOCK     CODE     ---       LVL=0
      010030E6H   LINE      CODE     ---       #297
      010030E6H   LINE      CODE     ---       #298
      010030E6H   LINE      CODE     ---       #299
      010030E8H   LINE      CODE     ---       #300
      010030EDH   LINE      CODE     ---       #301
      010030F3H   LINE      CODE     ---       #302
      ---         BLOCKEND  ---      ---       LVL=0
LX51 LINKER/LOCATER V4.66.1.0                                                         08/07/2017  15:30:51  PAGE 46



      01002F66H   BLOCK     CODE     ---       LVL=0
      01002F66H   LINE      CODE     ---       #311
      01002F66H   LINE      CODE     ---       #312
      01002F66H   LINE      CODE     ---       #314
      01002F66H   LINE      CODE     ---       #315
      01002F6CH   LINE      CODE     ---       #316
      01002F73H   LINE      CODE     ---       #317
      01002F77H   LINE      CODE     ---       #318
      01002F7BH   LINE      CODE     ---       #319
      01002F7FH   LINE      CODE     ---       #321
      01002F82H   LINE      CODE     ---       #322
      01002F82H   LINE      CODE     ---       #323
      01002F84H   LINE      CODE     ---       #324
      ---         BLOCKEND  ---      ---       LVL=0

      0100002AH   BLOCK     CODE     ---       LVL=0
      0100002AH   LINE      CODE     ---       #376
      0100002AH   LINE      CODE     ---       #377
      0100002AH   LINE      CODE     ---       #408
      ---         BLOCKEND  ---      ---       LVL=0

      ---         MODULE    ---      ---       MC_MOTORCOTROL_LAYER
      02000000H   PUBLIC    XDATA    ---       Ctl
      01002142H   PUBLIC    CODE     ---       SysTick_1ms
      010023B6H   PUBLIC    CODE     ---       MCL_ChkPowerStage
      01002A05H   PUBLIC    CODE     ---       MCL_ChkSysStage
      01002449H   PUBLIC    CODE     ---       MainISR
      010015AFH   PUBLIC    CODE     ---       MCL_Failure
      010025DFH   PUBLIC    CODE     ---       MCL_Normal
      01000CBFH   PUBLIC    CODE     ---       MCL_OpenLoop
      01001DB2H   PUBLIC    CODE     ---       MCL_Alignment
      01001B3BH   PUBLIC    CODE     ---       MCL_Precharge
      010017A8H   PUBLIC    CODE     ---       MCL_Strack
      01002ECAH   PUBLIC    CODE     ---       MCL_Ready
      01001FE1H   PUBLIC    CODE     ---       MCL_Stop
      01002F85H   PUBLIC    CODE     ---       MCL_Init
      010027A4H   PUBLIC    CODE     ---       MCL_MotorC
      000000E2H   SFRSYM    DATA     BYTE      SV_USL
      000000ABH   SFRSYM    DATA     BYTE      TIM2_CNTRH
      000000B0H.4 SFRSYM    DATA     BIT       GP34
      000000A0H.5 SFRSYM    DATA     BIT       GP25
      00000090H.6 SFRSYM    DATA     BIT       GP16
      00000080H.7 SFRSYM    DATA     BIT       GP07
      00000088H.1 SFRSYM    DATA     BIT       IT01
      00000088H.3 SFRSYM    DATA     BIT       IT10
      000000F6H   SFRSYM    DATA     WORD      PI_UKMIN
      000000C2H   SFRSYM    DATA     WORD      MD_MA
      000000A3H   SFRSYM    DATA     BYTE      TIM3_CNTRH
      000000B0H.5 SFRSYM    DATA     BIT       GP35
      000000A0H.6 SFRSYM    DATA     BIT       GP26
      00000090H.7 SFRSYM    DATA     BIT       GP17
      00000080H   SFRSYM    DATA     BYTE      P0
      00000088H.4 SFRSYM    DATA     BIT       IT11
      000000CAH   SFRSYM    DATA     WORD      MD_MB
      00000093H   SFRSYM    DATA     BYTE      TIM4_CNTRH
      000000B0H.6 SFRSYM    DATA     BIT       GP36
      000000A0H.7 SFRSYM    DATA     BIT       GP27
      00000090H   SFRSYM    DATA     BYTE      P1
      000000D9H   SFRSYM    DATA     BYTE      EVT_FILT
      000000F4H   SFRSYM    DATA     WORD      PI_UKMAX
      0000008BH   SFRSYM    DATA     BYTE      TIM5_CNTRH
      000000B2H   SFRSYM    DATA     BYTE      TIM2_CMTRL
      000000B0H.7 SFRSYM    DATA     BIT       GP37
      000000A0H   SFRSYM    DATA     BYTE      P2
LX51 LINKER/LOCATER V4.66.1.0                                                         08/07/2017  15:30:51  PAGE 47


      000000AAH   SFRSYM    DATA     BYTE      TIM2_CNTRL
      000000B0H   SFRSYM    DATA     BYTE      P3
      000000A2H   SFRSYM    DATA     BYTE      TIM3_CNTRL
      000000D0H.6 SFRSYM    DATA     BIT       AC
      00000092H   SFRSYM    DATA     BYTE      TIM4_CNTRL
      0000008AH   SFRSYM    DATA     BYTE      TIM5_CNTRL
      000000B6H   SFRSYM    DATA     WORD      TIM0_CCR1
      000000A8H.7 SFRSYM    DATA     BIT       EA
      000000D5H   SFRSYM    DATA     BYTE      CMP_CR0
      000000BAH   SFRSYM    DATA     WORD      TIM0_CCR2
      000000D6H   SFRSYM    DATA     BYTE      CMP_CR1
      000000BCH   SFRSYM    DATA     WORD      TIM0_CCR3
      00000085H   SFRSYM    DATA     BYTE      PSCTL
      000000DAH   SFRSYM    DATA     BYTE      CMP_CR2
      000000BEH   SFRSYM    DATA     WORD      TIM0_CCR4
      000000B8H.2 SFRSYM    DATA     BIT       PX00
      000000EAH   SFRSYM    DATA     WORD      PI_EK
      000000F8H   SFRSYM    DATA     BIT       OISUH
      000000B8H.3 SFRSYM    DATA     BIT       PX01
      000000B8H.4 SFRSYM    DATA     BIT       PX10
      000000F8H.2 SFRSYM    DATA     BIT       OISVH
      000000B8H.5 SFRSYM    DATA     BIT       PX11
      000000F8H.4 SFRSYM    DATA     BIT       OISWH
      000000DCH   SFRSYM    DATA     WORD      LPF_K
      000000F2H   SFRSYM    DATA     WORD      PI_KI
      000000F8H.1 SFRSYM    DATA     BIT       OISUL
      000000A8H   SFRSYM    DATA     BYTE      IE
      000000F8H.3 SFRSYM    DATA     BIT       OISVL
      000000F8H.5 SFRSYM    DATA     BIT       OISWL
      000000D1H   SFRSYM    DATA     BYTE      P1IE
      00000098H.6 SFRSYM    DATA     BIT       MOD0
      000000D3H   SFRSYM    DATA     BYTE      P2IE
      000000D2H   SFRSYM    DATA     BYTE      P1IF
      000000F9H   SFRSYM    DATA     BYTE      PL_CR
      00000098H.7 SFRSYM    DATA     BIT       MOD1
      000000D4H   SFRSYM    DATA     BYTE      P2IF
      000000ACH   SFRSYM    DATA     WORD      TIM2_DR
      00000082H   SFRSYM    DATA     WORD      DP
      000000EEH   SFRSYM    DATA     WORD      PI_KP
      000000A4H   SFRSYM    DATA     WORD      TIM3_DR
      00000094H   SFRSYM    DATA     WORD      TIM4_DR
      0000008CH   SFRSYM    DATA     WORD      TIM5_DR
      000000F1H   SFRSYM    DATA     BYTE      OSC_CFG
      000000C1H   SFRSYM    DATA     BYTE      MD_MODE
      000000ECH   SFRSYM    DATA     WORD      PI_UK
      000000DEH   SFRSYM    DATA     WORD      LPF_X
      00000098H   SFRSYM    DATA     BIT       RI
      000000E6H   SFRSYM    DATA     WORD      LPF_Y
      000000C0H   SFRSYM    DATA     BIT       PTIM00
      000000D0H.7 SFRSYM    DATA     BIT       CY
      00000098H.1 SFRSYM    DATA     BIT       TI
      000000C0H.1 SFRSYM    DATA     BIT       PTIM01
      000000C0H.2 SFRSYM    DATA     BIT       PTIM10
      000000C0H.3 SFRSYM    DATA     BIT       PTIM11
      000000E1H   SFRSYM    DATA     BYTE      SV_CR
      00000098H   SFRSYM    DATA     BYTE      UT_CR
      00000099H   SFRSYM    DATA     BYTE      UT_DR
      000000F8H.6 SFRSYM    DATA     BIT       OIS4
      00000081H   SFRSYM    DATA     BYTE      SP
      000000D0H.2 SFRSYM    DATA     BIT       OV
      000000C4H   SFRSYM    DATA     BYTE      MD_DA0
      0000009AH   SFRSYM    DATA     WORD      UT_BAUD
      000000CCH   SFRSYM    DATA     BYTE      MD_DB0
      000000C5H   SFRSYM    DATA     BYTE      MD_DA1
      000000CDH   SFRSYM    DATA     BYTE      MD_DB1
LX51 LINKER/LOCATER V4.66.1.0                                                         08/07/2017  15:30:51  PAGE 48


      000000C6H   SFRSYM    DATA     BYTE      MD_DA2
      000000CEH   SFRSYM    DATA     BYTE      MD_DB2
      000000C7H   SFRSYM    DATA     BYTE      MD_DA3
      000000B4H   SFRSYM    DATA     WORD      TIM2_ADTR
      000000CFH   SFRSYM    DATA     BYTE      MD_DB3
      000000AFH   SFRSYM    DATA     BYTE      TIM2_ARRH
      000000A7H   SFRSYM    DATA     BYTE      TIM3_ARRH
      00000097H   SFRSYM    DATA     BYTE      TIM4_ARRH
      0000008FH   SFRSYM    DATA     BYTE      TIM5_ARRH
      000000AEH   SFRSYM    DATA     BYTE      TIM2_ARRL
      000000A6H   SFRSYM    DATA     BYTE      TIM3_ARRL
      00000087H   SFRSYM    DATA     BYTE      PCON
      000000E2H   SFRSYM    DATA     WORD      SV_US
      00000096H   SFRSYM    DATA     BYTE      TIM4_ARRL
      0000008EH   SFRSYM    DATA     BYTE      TIM5_ARRL
      000000B2H   SFRSYM    DATA     WORD      TIM2_CMTR
      00000088H   SFRSYM    DATA     BYTE      TCON
      000000AAH   SFRSYM    DATA     WORD      TIM2_CNTR
      000000A2H   SFRSYM    DATA     WORD      TIM3_CNTR
      00000092H   SFRSYM    DATA     WORD      TIM4_CNTR
      0000008AH   SFRSYM    DATA     WORD      TIM5_CNTR
      000000E5H   SFRSYM    DATA     BYTE      SV_ANGLEH
      000000D8H   SFRSYM    DATA     BIT       PUART0
      000000E4H   SFRSYM    DATA     BYTE      SV_ANGLEL
      000000C6H   SFRSYM    DATA     WORD      MD_DAH
      000000D8H.1 SFRSYM    DATA     BIT       PUART1
      000000D8H.2 SFRSYM    DATA     BIT       PI2C0
      00000088H.2 SFRSYM    DATA     BIT       IF0
      000000CEH   SFRSYM    DATA     WORD      MD_DBH
      000000D8H.3 SFRSYM    DATA     BIT       PI2C1
      000000F0H   SFRSYM    DATA     BYTE      B
      000000C4H   SFRSYM    DATA     WORD      MD_DAL
      000000A1H   SFRSYM    DATA     BYTE      TIM2_CR0
      000000CCH   SFRSYM    DATA     WORD      MD_DBL
      0000009CH   SFRSYM    DATA     BYTE      TIM3_CR0
      000000A9H   SFRSYM    DATA     BYTE      TIM2_CR1
      0000009EH   SFRSYM    DATA     BYTE      TIM4_CR0
      0000009DH   SFRSYM    DATA     BYTE      TIM3_CR1
      00000089H   SFRSYM    DATA     BYTE      TIM5_CR0
      0000009FH   SFRSYM    DATA     BYTE      TIM4_CR1
      000000F8H   SFRSYM    DATA     BYTE      DRV_OUT
      00000091H   SFRSYM    DATA     BYTE      TIM5_CR1
      000000E0H   SFRSYM    DATA     BYTE      ACC
      000000F7H   SFRSYM    DATA     BYTE      PI_UKMINH
      000000C3H   SFRSYM    DATA     BYTE      MD_MAH
      000000A8H.4 SFRSYM    DATA     BIT       ES0
      000000DBH   SFRSYM    DATA     BYTE      LVSR
      000000CBH   SFRSYM    DATA     BYTE      MD_MBH
      000000C0H.4 SFRSYM    DATA     BIT       PADC0
      000000B8H   SFRSYM    DATA     BYTE      IP0
      000000F5H   SFRSYM    DATA     BYTE      PI_UKMAXH
      000000C0H.5 SFRSYM    DATA     BIT       PADC1
      000000C0H   SFRSYM    DATA     BYTE      IP1
      000000C8H   SFRSYM    DATA     BYTE      IP2
      000000F6H   SFRSYM    DATA     BYTE      PI_UKMINL
      000000C2H   SFRSYM    DATA     BYTE      MD_MAL
      00000098H.2 SFRSYM    DATA     BIT       RB8
      000000D8H   SFRSYM    DATA     BYTE      IP3
      000000CAH   SFRSYM    DATA     BYTE      MD_MBL
      000000A8H   SFRSYM    DATA     BIT       EX0
      000000F4H   SFRSYM    DATA     BYTE      PI_UKMAXL
      00000098H.3 SFRSYM    DATA     BIT       TB8
      000000B7H   SFRSYM    DATA     BYTE      TIM0_CCR1H
      000000A8H.2 SFRSYM    DATA     BIT       EX1
      000000BBH   SFRSYM    DATA     BYTE      TIM0_CCR2H
LX51 LINKER/LOCATER V4.66.1.0                                                         08/07/2017  15:30:51  PAGE 49


      000000D0H   SFRSYM    DATA     BIT       P
      000000BDH   SFRSYM    DATA     BYTE      TIM0_CCR3H
      000000BFH   SFRSYM    DATA     BYTE      TIM0_CCR4H
      000000C8H.2 SFRSYM    DATA     BIT       PTIM230
      000000EBH   SFRSYM    DATA     BYTE      PI_EKH
      00000098H.5 SFRSYM    DATA     BIT       SM2
      000000B6H   SFRSYM    DATA     BYTE      TIM0_CCR1L
      000000B1H   SFRSYM    DATA     BYTE      TIM0_SR1
      000000C8H.3 SFRSYM    DATA     BIT       PTIM231
      000000BAH   SFRSYM    DATA     BYTE      TIM0_CCR2L
      000000BCH   SFRSYM    DATA     BYTE      TIM0_CCR3L
      000000BEH   SFRSYM    DATA     BYTE      TIM0_CCR4L
      000000D8H.6 SFRSYM    DATA     BIT       PMCD0
      000000C8H.4 SFRSYM    DATA     BIT       PTIM450
      000000D0H.3 SFRSYM    DATA     BIT       RS0
      000000DDH   SFRSYM    DATA     BYTE      LPF_KH
      000000F3H   SFRSYM    DATA     BYTE      PI_KIH
      000000EAH   SFRSYM    DATA     BYTE      PI_EKL
      000000E8H   SFRSYM    DATA     BYTE      FOC_SET0
      000000D8H.7 SFRSYM    DATA     BIT       PMCD1
      000000C8H.5 SFRSYM    DATA     BIT       PTIM451
      000000D0H.4 SFRSYM    DATA     BIT       RS1
      000000E9H   SFRSYM    DATA     BYTE      FOC_SET1
      000000B8H.6 SFRSYM    DATA     BIT       PFOC0
      000000DCH   SFRSYM    DATA     BYTE      LPF_KL
      000000F2H   SFRSYM    DATA     BYTE      PI_KIL
      000000B8H.7 SFRSYM    DATA     BIT       PFOC1
      000000ADH   SFRSYM    DATA     BYTE      TIM2_DRH
      000000B9H   SFRSYM    DATA     BYTE      TIM0_IER
      00000083H   SFRSYM    DATA     BYTE      DPH
      000000EFH   SFRSYM    DATA     BYTE      PI_KPH
      000000A5H   SFRSYM    DATA     BYTE      TIM3_DRH
      00000095H   SFRSYM    DATA     BYTE      TIM4_DRH
      0000008DH   SFRSYM    DATA     BYTE      TIM5_DRH
      000000ACH   SFRSYM    DATA     BYTE      TIM2_DRL
      00000082H   SFRSYM    DATA     BYTE      DPL
      000000EEH   SFRSYM    DATA     BYTE      PI_KPL
      000000A4H   SFRSYM    DATA     BYTE      TIM3_DRL
      000000F8H.7 SFRSYM    DATA     BIT       MOE
      000000C0H.6 SFRSYM    DATA     BIT       PCMP0
      000000EDH   SFRSYM    DATA     BYTE      PI_UKH
      00000094H   SFRSYM    DATA     BYTE      TIM4_DRL
      000000C0H.7 SFRSYM    DATA     BIT       PCMP1
      000000DFH   SFRSYM    DATA     BYTE      LPF_XH
      0000008CH   SFRSYM    DATA     BYTE      TIM5_DRL
      000000AEH   SFRSYM    DATA     WORD      TIM2_ARR
      000000A8H.5 SFRSYM    DATA     BIT       MCDIE
      000000C9H   SFRSYM    DATA     BYTE      RSTSRC
      000000E7H   SFRSYM    DATA     BYTE      LPF_YH
      000000A6H   SFRSYM    DATA     WORD      TIM3_ARR
      00000088H.6 SFRSYM    DATA     BIT       MCDIF
      00000098H.4 SFRSYM    DATA     BIT       REN
      00000096H   SFRSYM    DATA     WORD      TIM4_ARR
      000000ECH   SFRSYM    DATA     BYTE      PI_UKL
      000000D7H   SFRSYM    DATA     BYTE      CMP_SR
      0000008EH   SFRSYM    DATA     WORD      TIM5_ARR
      000000DEH   SFRSYM    DATA     BYTE      LPF_XL
      000000E6H   SFRSYM    DATA     BYTE      LPF_YL
      000000C8H   SFRSYM    DATA     BIT       PRTC0
      000000C8H.1 SFRSYM    DATA     BIT       PRTC1
      000000E8H.7 SFRSYM    DATA     BIT       FOCEN
      000000C8H.6 SFRSYM    DATA     BIT       PTSD0
      000000D8H.4 SFRSYM    DATA     BIT       PSPI0
      000000C8H.7 SFRSYM    DATA     BIT       PTSD1
      000000D8H.5 SFRSYM    DATA     BIT       PSPI1
LX51 LINKER/LOCATER V4.66.1.0                                                         08/07/2017  15:30:51  PAGE 50


      0000009BH   SFRSYM    DATA     BYTE      UT_BAUDH
      000000E4H   SFRSYM    DATA     WORD      SV_ANGLE
      000000B5H   SFRSYM    DATA     BYTE      TIM2_ADTRH
      0000009AH   SFRSYM    DATA     BYTE      UT_BAUDL
      000000FCH   SFRSYM    DATA     BYTE      P0_OE
      000000FDH   SFRSYM    DATA     BYTE      P1_OE
      000000D0H.5 SFRSYM    DATA     BIT       F0
      000000B4H   SFRSYM    DATA     BYTE      TIM2_ADTRL
      000000FEH   SFRSYM    DATA     BYTE      P2_OE
      000000D0H.1 SFRSYM    DATA     BIT       F1
      00000080H   SFRSYM    DATA     BIT       GP00
      000000FFH   SFRSYM    DATA     BYTE      P3_OE
      00000090H   SFRSYM    DATA     BIT       GP10
      00000080H.1 SFRSYM    DATA     BIT       GP01
      000000A8H.6 SFRSYM    DATA     BIT       RTCIE
      000000A0H   SFRSYM    DATA     BIT       GP20
      00000090H.1 SFRSYM    DATA     BIT       GP11
      00000080H.2 SFRSYM    DATA     BIT       GP02
      000000E3H   SFRSYM    DATA     BYTE      SV_USH
      000000B0H   SFRSYM    DATA     BIT       GP30
      000000A0H.1 SFRSYM    DATA     BIT       GP21
      00000090H.2 SFRSYM    DATA     BIT       GP12
      00000080H.3 SFRSYM    DATA     BIT       GP03
      000000B8H   SFRSYM    DATA     BIT       PLVW0
      000000A8H.1 SFRSYM    DATA     BIT       TSDIE
      000000D0H   SFRSYM    DATA     BYTE      PSW
      000000B0H.1 SFRSYM    DATA     BIT       GP31
      000000A0H.2 SFRSYM    DATA     BIT       GP22
      00000090H.3 SFRSYM    DATA     BIT       GP13
      00000080H.4 SFRSYM    DATA     BIT       GP04
      000000B8H.1 SFRSYM    DATA     BIT       PLVW1
      000000A8H.3 SFRSYM    DATA     BIT       SPIIE
      00000088H.5 SFRSYM    DATA     BIT       TSDIF
      000000B0H.2 SFRSYM    DATA     BIT       GP32
      000000A0H.3 SFRSYM    DATA     BIT       GP23
      00000090H.4 SFRSYM    DATA     BIT       GP14
      00000080H.5 SFRSYM    DATA     BIT       GP05
      00000084H   SFRSYM    DATA     BYTE      FLKEY
      000000B3H   SFRSYM    DATA     BYTE      TIM2_CMTRH
      000000B0H.3 SFRSYM    DATA     BIT       GP33
      000000A0H.4 SFRSYM    DATA     BIT       GP24
      00000090H.5 SFRSYM    DATA     BIT       GP15
      00000080H.6 SFRSYM    DATA     BIT       GP06
      00000088H   SFRSYM    DATA     BIT       IT00
      010015AFH   SYMBOL    CODE     ---       MCL_Failure
      01002A05H   SYMBOL    CODE     ---       MCL_ChkSysStage
      010017A8H   SYMBOL    CODE     ---       MCL_Strack
      010025DFH   SYMBOL    CODE     ---       MCL_Normal
      01002ECAH   SYMBOL    CODE     ---       MCL_Ready
      01002142H   SYMBOL    CODE     ---       SysTick_1ms
      01002F85H   SYMBOL    CODE     ---       MCL_Init
      01001B3BH   SYMBOL    CODE     ---       MCL_Precharge
      010023B6H   SYMBOL    CODE     ---       MCL_ChkPowerStage
      01001DB2H   SYMBOL    CODE     ---       MCL_Alignment
      01001FE1H   SYMBOL    CODE     ---       MCL_Stop
      01000CBFH   SYMBOL    CODE     ---       MCL_OpenLoop

      010027A4H   BLOCK     CODE     ---       LVL=0
      010027A4H   LINE      CODE     ---       #54
      010027A4H   LINE      CODE     ---       #55
      010027A4H   LINE      CODE     ---       #56
      010027CAH   LINE      CODE     ---       #57
      010027CAH   LINE      CODE     ---       #58
      010027CAH   LINE      CODE     ---       #59
      010027D2H   LINE      CODE     ---       #61
LX51 LINKER/LOCATER V4.66.1.0                                                         08/07/2017  15:30:51  PAGE 51


      010027D2H   LINE      CODE     ---       #62
      010027DAH   LINE      CODE     ---       #64
      010027DAH   LINE      CODE     ---       #65
      010027E2H   LINE      CODE     ---       #67
      010027E2H   LINE      CODE     ---       #68
      010027EAH   LINE      CODE     ---       #70
      010027EAH   LINE      CODE     ---       #71
      010027F2H   LINE      CODE     ---       #73
      010027F2H   LINE      CODE     ---       #74
      010027FAH   LINE      CODE     ---       #76
      010027FAH   LINE      CODE     ---       #77
      01002802H   LINE      CODE     ---       #79
      01002802H   LINE      CODE     ---       #80
      0100280AH   LINE      CODE     ---       #82
      0100280AH   LINE      CODE     ---       #83
      01002810H   LINE      CODE     ---       #84
      01002810H   LINE      CODE     ---       #85
      01002810H   LINE      CODE     ---       #86
      01002810H   LINE      CODE     ---       #87
      01002810H   LINE      CODE     ---       #88
      ---         BLOCKEND  ---      ---       LVL=0

      01002F85H   BLOCK     CODE     ---       LVL=0
      01002F85H   BLOCK     CODE     NEAR LAB  LVL=1
      02000211H   SYMBOL    XDATA    BYTE      tValue
      ---         BLOCKEND  ---      ---       LVL=1
      01002F85H   LINE      CODE     ---       #97
      01002F85H   LINE      CODE     ---       #98
      01002F85H   LINE      CODE     ---       #101
      01002F88H   LINE      CODE     ---       #102
      01002F8FH   LINE      CODE     ---       #107
      01002F94H   LINE      CODE     ---       #113
      01002F97H   LINE      CODE     ---       #118
      01002F9DH   LINE      CODE     ---       #119
      01002FA2H   LINE      CODE     ---       #120
      01002FA3H   LINE      CODE     ---       #121
      ---         BLOCKEND  ---      ---       LVL=0

      01001FE1H   BLOCK     CODE     ---       LVL=0
      01001FE1H   LINE      CODE     ---       #130
      01001FE1H   LINE      CODE     ---       #131
      01001FE1H   LINE      CODE     ---       #132
      01001FECH   LINE      CODE     ---       #133
      01001FECH   LINE      CODE     ---       #135
      01001FECH   LINE      CODE     ---       #137
      01001FECH   LINE      CODE     ---       #138
      01001FF6H   LINE      CODE     ---       #139
      01002005H   LINE      CODE     ---       #140
      01002018H   LINE      CODE     ---       #143
      0100201DH   LINE      CODE     ---       #146
      01002029H   LINE      CODE     ---       #147
      01002029H   LINE      CODE     ---       #148
      01002030H   LINE      CODE     ---       #149
      01002039H   LINE      CODE     ---       #150
      01002039H   LINE      CODE     ---       #151
      01002039H   LINE      CODE     ---       #152
      01002039H   LINE      CODE     ---       #153
      0100203BH   LINE      CODE     ---       #160
      01002043H   LINE      CODE     ---       #161
      01002043H   LINE      CODE     ---       #162
      01002052H   LINE      CODE     ---       #163
      01002052H   LINE      CODE     ---       #164
      01002052H   LINE      CODE     ---       #165
      01002052H   LINE      CODE     ---       #166
      0100205CH   LINE      CODE     ---       #167
LX51 LINKER/LOCATER V4.66.1.0                                                         08/07/2017  15:30:51  PAGE 52


      0100205EH   LINE      CODE     ---       #169
      0100205EH   LINE      CODE     ---       #170
      0100205EH   LINE      CODE     ---       #171
      0100205EH   LINE      CODE     ---       #172
      0100205EH   LINE      CODE     ---       #174
      0100205EH   LINE      CODE     ---       #175
      01002067H   LINE      CODE     ---       #177
      01002067H   LINE      CODE     ---       #178
      01002067H   LINE      CODE     ---       #179
      01002071H   LINE      CODE     ---       #180
      01002071H   LINE      CODE     ---       #182
      01002071H   LINE      CODE     ---       #183
      01002071H   LINE      CODE     ---       #184
      01002071H   LINE      CODE     ---       #186
      01002077H   LINE      CODE     ---       #187
      01002077H   LINE      CODE     ---       #188
      0100207DH   LINE      CODE     ---       #189
      01002082H   LINE      CODE     ---       #190
      01002084H   LINE      CODE     ---       #192
      01002084H   LINE      CODE     ---       #193
      0100208BH   LINE      CODE     ---       #195
      01002091H   LINE      CODE     ---       #196
      01002093H   LINE      CODE     ---       #197
      01002093H   LINE      CODE     ---       #198
      01002093H   LINE      CODE     ---       #199
      01002093H   LINE      CODE     ---       #200
      01002093H   LINE      CODE     ---       #202
      01002095H   LINE      CODE     ---       #203
      ---         BLOCKEND  ---      ---       LVL=0

      01002ECAH   BLOCK     CODE     ---       LVL=0
      01002ECAH   LINE      CODE     ---       #212
      01002ECAH   LINE      CODE     ---       #213
      01002ECAH   LINE      CODE     ---       #214
      01002ECDH   LINE      CODE     ---       #215
      01002ED4H   LINE      CODE     ---       #220
      01002EDAH   LINE      CODE     ---       #221
      01002EE0H   LINE      CODE     ---       #223
      01002EE6H   LINE      CODE     ---       #224
      01002EECH   LINE      CODE     ---       #225
      01002EF1H   LINE      CODE     ---       #226
      01002EF1H   LINE      CODE     ---       #228
      01002EF3H   LINE      CODE     ---       #229
      ---         BLOCKEND  ---      ---       LVL=0

      010017A8H   BLOCK     CODE     ---       LVL=0
      010017A8H   LINE      CODE     ---       #238
      010017A8H   LINE      CODE     ---       #239
      010017A8H   LINE      CODE     ---       #240
      010017AFH   LINE      CODE     ---       #241
      010017B6H   LINE      CODE     ---       #242
      010017C5H   LINE      CODE     ---       #244
      010017CAH   LINE      CODE     ---       #254
      010017DCH   LINE      CODE     ---       #255
      010017DCH   LINE      CODE     ---       #256
      010017E6H   LINE      CODE     ---       #257
      010017E6H   LINE      CODE     ---       #258
      010017EFH   LINE      CODE     ---       #259
      010017EFH   LINE      CODE     ---       #260
      010017F3H   LINE      CODE     ---       #262
      010017FAH   LINE      CODE     ---       #263
      010017FAH   LINE      CODE     ---       #264
      0100180BH   LINE      CODE     ---       #265
      0100180BH   LINE      CODE     ---       #266
      01001812H   LINE      CODE     ---       #267
LX51 LINKER/LOCATER V4.66.1.0                                                         08/07/2017  15:30:51  PAGE 53


      01001814H   LINE      CODE     ---       #269
      01001814H   LINE      CODE     ---       #270
      0100181CH   LINE      CODE     ---       #271
      0100181CH   LINE      CODE     ---       #272
      0100181CH   LINE      CODE     ---       #273
      01001826H   LINE      CODE     ---       #275
      0100182BH   LINE      CODE     ---       #276
      01001839H   LINE      CODE     ---       #277
      01001848H   LINE      CODE     ---       #278
      01001855H   LINE      CODE     ---       #280
      0100185BH   LINE      CODE     ---       #281
      0100185DH   LINE      CODE     ---       #282
      01001864H   LINE      CODE     ---       #283
      01001864H   LINE      CODE     ---       #285
      01001864H   LINE      CODE     ---       #287
      01001864H   LINE      CODE     ---       #288
      01001866H   LINE      CODE     ---       #290
      01001866H   LINE      CODE     ---       #292
      0100186CH   LINE      CODE     ---       #293
      01001871H   LINE      CODE     ---       #294
      01001877H   LINE      CODE     ---       #296
      01001877H   LINE      CODE     ---       #297
      01001877H   LINE      CODE     ---       #298
      01001879H   LINE      CODE     ---       #300
      01001879H   LINE      CODE     ---       #302
      0100187FH   LINE      CODE     ---       #304
      01001883H   LINE      CODE     ---       #305
      01001883H   LINE      CODE     ---       #307
      01001889H   LINE      CODE     ---       #308
      01001889H   LINE      CODE     ---       #309
      0100188FH   LINE      CODE     ---       #310
      01001894H   LINE      CODE     ---       #311
      01001894H   LINE      CODE     ---       #313
      01001896H   LINE      CODE     ---       #314
      ---         BLOCKEND  ---      ---       LVL=0

      01001B3BH   BLOCK     CODE     ---       LVL=0
      01001B3BH   LINE      CODE     ---       #323
      01001B3BH   LINE      CODE     ---       #324
      01001B3BH   LINE      CODE     ---       #325
      01001B44H   LINE      CODE     ---       #326
      01001B44H   LINE      CODE     ---       #327
      01001B4EH   LINE      CODE     ---       #328
      01001B5DH   LINE      CODE     ---       #329
      01001B70H   LINE      CODE     ---       #330
      01001B79H   LINE      CODE     ---       #331
      01001B7CH   LINE      CODE     ---       #332
      01001B85H   LINE      CODE     ---       #333
      01001B85H   LINE      CODE     ---       #334
      01001B8EH   LINE      CODE     ---       #335
      01001B90H   LINE      CODE     ---       #336
      01001B9CH   LINE      CODE     ---       #337
      01001B9CH   LINE      CODE     ---       #338
      01001BA2H   LINE      CODE     ---       #339
      01001BA4H   LINE      CODE     ---       #341
      01001BA4H   LINE      CODE     ---       #342
      01001BA8H   LINE      CODE     ---       #364
      01001BB2H   LINE      CODE     ---       #365
      01001BC1H   LINE      CODE     ---       #367
      01001BC8H   LINE      CODE     ---       #368
      01001BCEH   LINE      CODE     ---       #370
      01001BDCH   LINE      CODE     ---       #371
      01001BEBH   LINE      CODE     ---       #372
      01001BFEH   LINE      CODE     ---       #375
      01001BFEH   LINE      CODE     ---       #377
LX51 LINKER/LOCATER V4.66.1.0                                                         08/07/2017  15:30:51  PAGE 54


      01001C04H   LINE      CODE     ---       #378
      01001C04H   LINE      CODE     ---       #379
      01001C0AH   LINE      CODE     ---       #380
      01001C0FH   LINE      CODE     ---       #381
      01001C0FH   LINE      CODE     ---       #383
      01001C11H   LINE      CODE     ---       #384
      ---         BLOCKEND  ---      ---       LVL=0

      01001DB2H   BLOCK     CODE     ---       LVL=0
      01001DB2H   LINE      CODE     ---       #393
      01001DB2H   LINE      CODE     ---       #394
      01001DB2H   LINE      CODE     ---       #395
      01001DC7H   LINE      CODE     ---       #396
      01001DC7H   LINE      CODE     ---       #398
      01001DD1H   LINE      CODE     ---       #399
      01001DDFH   LINE      CODE     ---       #400
      01001DEEH   LINE      CODE     ---       #401
      01001E01H   LINE      CODE     ---       #402
      01001E03H   LINE      CODE     ---       #404
      01001E03H   LINE      CODE     ---       #405
      01001E0AH   LINE      CODE     ---       #406
      01001E0EH   LINE      CODE     ---       #408
      01001E1CH   LINE      CODE     ---       #409
      01001E24H   LINE      CODE     ---       #411
      01001E2BH   LINE      CODE     ---       #412
      01001E2BH   LINE      CODE     ---       #413
      01001E30H   LINE      CODE     ---       #414
      01001E35H   LINE      CODE     ---       #415
      01001E37H   LINE      CODE     ---       #416
      01001E3EH   LINE      CODE     ---       #417
      01001E3EH   LINE      CODE     ---       #418
      01001E43H   LINE      CODE     ---       #419
      01001E49H   LINE      CODE     ---       #420
      01001E49H   LINE      CODE     ---       #421
      01001E4FH   LINE      CODE     ---       #422
      01001E55H   LINE      CODE     ---       #423
      01001E5BH   LINE      CODE     ---       #424
      01001E5BH   LINE      CODE     ---       #425
      01001E61H   LINE      CODE     ---       #426
      01001E61H   LINE      CODE     ---       #427
      01001E67H   LINE      CODE     ---       #428
      01001E6CH   LINE      CODE     ---       #429
      01001E6CH   LINE      CODE     ---       #431
      01001E6EH   LINE      CODE     ---       #432
      ---         BLOCKEND  ---      ---       LVL=0

      01000CBFH   BLOCK     CODE     ---       LVL=0
      01000CBFH   LINE      CODE     ---       #441
      01000CBFH   LINE      CODE     ---       #442
      01000CBFH   LINE      CODE     ---       #446
      01000CCAH   LINE      CODE     ---       #447
      01000CCAH   LINE      CODE     ---       #448
      01000CE8H   LINE      CODE     ---       #449
      01000CE8H   LINE      CODE     ---       #450
      01000CEDH   LINE      CODE     ---       #452
      01000CF4H   LINE      CODE     ---       #454
      01000D1CH   LINE      CODE     ---       #455
      01000D1CH   LINE      CODE     ---       #456
      01000D2EH   LINE      CODE     ---       #457
      01000D30H   LINE      CODE     ---       #458
      01000D58H   LINE      CODE     ---       #459
      01000D58H   LINE      CODE     ---       #460
      01000D66H   LINE      CODE     ---       #461
      01000D68H   LINE      CODE     ---       #463
      01000D7CH   LINE      CODE     ---       #464
LX51 LINKER/LOCATER V4.66.1.0                                                         08/07/2017  15:30:51  PAGE 55


      01000D7CH   LINE      CODE     ---       #465
      01000D7FH   LINE      CODE     ---       #466
      01000D81H   LINE      CODE     ---       #469
      01000D81H   LINE      CODE     ---       #470
      01000D90H   LINE      CODE     ---       #471
      01000D90H   LINE      CODE     ---       #473
      01000DB0H   LINE      CODE     ---       #474
      01000DB0H   LINE      CODE     ---       #475
      01000DC3H   LINE      CODE     ---       #476
      01000DC5H   LINE      CODE     ---       #477
      01000DE9H   LINE      CODE     ---       #478
      01000DE9H   LINE      CODE     ---       #479
      01000DF8H   LINE      CODE     ---       #480
      01000DFAH   LINE      CODE     ---       #482
      01000DFAH   LINE      CODE     ---       #483
      01000E08H   LINE      CODE     ---       #484
      01000E08H   LINE      CODE     ---       #486
      01000E0FH   LINE      CODE     ---       #488
      01000E12H   LINE      CODE     ---       #489
      01000E1AH   LINE      CODE     ---       #493
      01000E21H   LINE      CODE     ---       #494
      01000E28H   LINE      CODE     ---       #495
      01000E32H   LINE      CODE     ---       #496
      01000E3FH   LINE      CODE     ---       #497
      01000E45H   LINE      CODE     ---       #498
      01000E4BH   LINE      CODE     ---       #499
      01000E52H   LINE      CODE     ---       #500
      01000E59H   LINE      CODE     ---       #507
      01000E5EH   LINE      CODE     ---       #508
      01000E68H   LINE      CODE     ---       #510
      01000E93H   LINE      CODE     ---       #511
      01000E93H   LINE      CODE     ---       #512
      01000E9CH   LINE      CODE     ---       #513
      01000E9CH   LINE      CODE     ---       #514
      01000E9CH   LINE      CODE     ---       #515
      01000E9CH   LINE      CODE     ---       #526
      01000EA2H   LINE      CODE     ---       #527
      01000EA2H   LINE      CODE     ---       #528
      01000EA8H   LINE      CODE     ---       #529
      01000EADH   LINE      CODE     ---       #530
      01000EADH   LINE      CODE     ---       #532
      01000EAFH   LINE      CODE     ---       #533
      ---         BLOCKEND  ---      ---       LVL=0

      010025DFH   BLOCK     CODE     ---       LVL=0
      010025DFH   LINE      CODE     ---       #542
      010025DFH   LINE      CODE     ---       #543
      010025DFH   LINE      CODE     ---       #544
      010025E5H   LINE      CODE     ---       #545
      010025E5H   LINE      CODE     ---       #546
      010025EBH   LINE      CODE     ---       #547
      010025F1H   LINE      CODE     ---       #548
      010025F6H   LINE      CODE     ---       #549
      010025F6H   LINE      CODE     ---       #551
      01002605H   LINE      CODE     ---       #552
      01002605H   LINE      CODE     ---       #553
      0100260CH   LINE      CODE     ---       #555
      01002611H   LINE      CODE     ---       #556
      01002615H   LINE      CODE     ---       #557
      01002615H   LINE      CODE     ---       #559
      01002624H   LINE      CODE     ---       #560
      0100262BH   LINE      CODE     ---       #561
      01002633H   LINE      CODE     ---       #562
      01002633H   LINE      CODE     ---       #564
      01002642H   LINE      CODE     ---       #565
LX51 LINKER/LOCATER V4.66.1.0                                                         08/07/2017  15:30:51  PAGE 56


      01002642H   LINE      CODE     ---       #566
      01002649H   LINE      CODE     ---       #567
      01002650H   LINE      CODE     ---       #568
      01002653H   LINE      CODE     ---       #569
      01002653H   LINE      CODE     ---       #571
      01002655H   LINE      CODE     ---       #572
      ---         BLOCKEND  ---      ---       LVL=0

      010015AFH   BLOCK     CODE     ---       LVL=0
      010015AFH   LINE      CODE     ---       #581
      010015AFH   LINE      CODE     ---       #582
      010015AFH   LINE      CODE     ---       #583
      010015B6H   LINE      CODE     ---       #584
      010015B8H   LINE      CODE     ---       #585
      010015BCH   LINE      CODE     ---       #586
      010015C1H   LINE      CODE     ---       #591
      010015C7H   LINE      CODE     ---       #592
      010015C7H   LINE      CODE     ---       #594
      010015C9H   LINE      CODE     ---       #595
      010015D1H   LINE      CODE     ---       #597
      010015DEH   LINE      CODE     ---       #599
      010015ECH   LINE      CODE     ---       #600
      010015FEH   LINE      CODE     ---       #601
      0100160DH   LINE      CODE     ---       #602
      0100161CH   LINE      CODE     ---       #603
      01001628H   LINE      CODE     ---       #604
      01001634H   LINE      CODE     ---       #613
      01001634H   LINE      CODE     ---       #628
      01001641H   LINE      CODE     ---       #630
      01001641H   LINE      CODE     ---       #631
      01001647H   LINE      CODE     ---       #632
      01001647H   LINE      CODE     ---       #633
      01001650H   LINE      CODE     ---       #634
      01001650H   LINE      CODE     ---       #635
      01001653H   LINE      CODE     ---       #636
      01001658H   LINE      CODE     ---       #637
      0100165DH   LINE      CODE     ---       #638
      0100165DH   LINE      CODE     ---       #639
      0100165DH   LINE      CODE     ---       #640
      01001664H   LINE      CODE     ---       #641
      01001664H   LINE      CODE     ---       #642
      01001673H   LINE      CODE     ---       #643
      01001673H   LINE      CODE     ---       #644
      01001678H   LINE      CODE     ---       #645
      0100167BH   LINE      CODE     ---       #646
      0100167BH   LINE      CODE     ---       #647
      0100167BH   LINE      CODE     ---       #648
      0100167BH   LINE      CODE     ---       #653
      01001691H   LINE      CODE     ---       #654
      01001691H   LINE      CODE     ---       #655
      01001697H   LINE      CODE     ---       #656
      01001697H   LINE      CODE     ---       #657
      010016A6H   LINE      CODE     ---       #658
      010016A6H   LINE      CODE     ---       #659
      010016AAH   LINE      CODE     ---       #660
      010016ADH   LINE      CODE     ---       #661
      010016ADH   LINE      CODE     ---       #662
      010016ADH   LINE      CODE     ---       #663
      010016ADH   LINE      CODE     ---       #676
      010016AFH   LINE      CODE     ---       #677
      ---         BLOCKEND  ---      ---       LVL=0

      01002449H   BLOCK     CODE     ---       LVL=0
      01002449H   LINE      CODE     ---       #723
      01002449H   LINE      CODE     ---       #724
LX51 LINKER/LOCATER V4.66.1.0                                                         08/07/2017  15:30:51  PAGE 57


      01002449H   LINE      CODE     ---       #725
      01002453H   LINE      CODE     ---       #726
      01002459H   LINE      CODE     ---       #727
      0100245FH   LINE      CODE     ---       #728
      01002465H   LINE      CODE     ---       #741
      01002474H   LINE      CODE     ---       #742
      01002474H   LINE      CODE     ---       #743
      01002478H   LINE      CODE     ---       #744
      0100247BH   LINE      CODE     ---       #745
      0100247DH   LINE      CODE     ---       #746
      01002489H   LINE      CODE     ---       #747
      01002489H   LINE      CODE     ---       #748
      01002490H   LINE      CODE     ---       #749
      01002490H   LINE      CODE     ---       #750
      01002493H   LINE      CODE     ---       #751
      01002493H   LINE      CODE     ---       #752
      01002495H   LINE      CODE     ---       #753
      010024A1H   LINE      CODE     ---       #754
      010024A1H   LINE      CODE     ---       #755
      010024A8H   LINE      CODE     ---       #756
      010024A8H   LINE      CODE     ---       #757
      010024ABH   LINE      CODE     ---       #758
      010024ABH   LINE      CODE     ---       #759
      010024ADH   LINE      CODE     ---       #760
      010024B3H   LINE      CODE     ---       #761
      010024B3H   LINE      CODE     ---       #765
      010024B3H   LINE      CODE     ---       #772
      010024C6H   LINE      CODE     ---       #824
      010024D9H   LINE      CODE     ---       #826
      ---         BLOCKEND  ---      ---       LVL=0

      01002A05H   BLOCK     CODE     ---       LVL=0
      01002A05H   LINE      CODE     ---       #835
      01002A05H   LINE      CODE     ---       #836
      01002A05H   LINE      CODE     ---       #838
      01002A09H   LINE      CODE     ---       #839
      01002A09H   LINE      CODE     ---       #846
      01002A09H   LINE      CODE     ---       #868
      01002A18H   LINE      CODE     ---       #869
      01002A18H   LINE      CODE     ---       #870
      01002A1EH   LINE      CODE     ---       #871
      01002A1EH   LINE      CODE     ---       #874
      01002A2DH   LINE      CODE     ---       #875
      01002A2DH   LINE      CODE     ---       #876
      01002A33H   LINE      CODE     ---       #877
      01002A33H   LINE      CODE     ---       #880
      01002A42H   LINE      CODE     ---       #881
      01002A42H   LINE      CODE     ---       #882
      01002A48H   LINE      CODE     ---       #883
      01002A48H   LINE      CODE     ---       #907
      01002A4EH   LINE      CODE     ---       #908
      01002A4EH   LINE      CODE     ---       #909
      01002A55H   LINE      CODE     ---       #910
      01002A57H   LINE      CODE     ---       #918
      01002A5DH   LINE      CODE     ---       #919
      01002A5DH   LINE      CODE     ---       #920
      ---         BLOCKEND  ---      ---       LVL=0

      010023B6H   BLOCK     CODE     ---       LVL=0
      010023B6H   LINE      CODE     ---       #929
      010023B6H   LINE      CODE     ---       #930
      010023B6H   LINE      CODE     ---       #932
      010023BEH   LINE      CODE     ---       #933
      010023BEH   LINE      CODE     ---       #935
      010023C7H   LINE      CODE     ---       #937
LX51 LINKER/LOCATER V4.66.1.0                                                         08/07/2017  15:30:51  PAGE 58


      010023D1H   LINE      CODE     ---       #938
      010023DBH   LINE      CODE     ---       #942
      010023EBH   LINE      CODE     ---       #943
      010023EBH   LINE      CODE     ---       #944
      010023F5H   LINE      CODE     ---       #945
      010023F7H   LINE      CODE     ---       #947
      010023F7H   LINE      CODE     ---       #948
      010023FEH   LINE      CODE     ---       #949
      010023FEH   LINE      CODE     ---       #953
      01002407H   LINE      CODE     ---       #954
      01002407H   LINE      CODE     ---       #955
      01002411H   LINE      CODE     ---       #956
      01002413H   LINE      CODE     ---       #958
      01002413H   LINE      CODE     ---       #959
      01002417H   LINE      CODE     ---       #960
      01002417H   LINE      CODE     ---       #962
      01002419H   LINE      CODE     ---       #964
      01002419H   LINE      CODE     ---       #965
      0100241EH   LINE      CODE     ---       #966
      01002424H   LINE      CODE     ---       #967
      01002424H   LINE      CODE     ---       #1045
      01002433H   LINE      CODE     ---       #1046
      01002433H   LINE      CODE     ---       #1047
      01002439H   LINE      CODE     ---       #1048
      0100243AH   LINE      CODE     ---       #1050
      0100243AH   LINE      CODE     ---       #1051
      01002440H   LINE      CODE     ---       #1052
      01002446H   LINE      CODE     ---       #1053
      01002446H   LINE      CODE     ---       #1054
      01002448H   LINE      CODE     ---       #1055
      01002448H   LINE      CODE     ---       #1056
      01002448H   LINE      CODE     ---       #1083
      ---         BLOCKEND  ---      ---       LVL=0

      01002142H   BLOCK     CODE     ---       LVL=0
      01002142H   LINE      CODE     ---       #1091
      01002142H   LINE      CODE     ---       #1092
      01002142H   LINE      CODE     ---       #1094
      0100214CH   LINE      CODE     ---       #1095
      01002156H   LINE      CODE     ---       #1098
      0100215DH   LINE      CODE     ---       #1099
      0100215DH   LINE      CODE     ---       #1100
      01002162H   LINE      CODE     ---       #1101
      01002162H   LINE      CODE     ---       #1102
      0100216CH   LINE      CODE     ---       #1103
      0100216EH   LINE      CODE     ---       #1105
      0100216EH   LINE      CODE     ---       #1106
      01002175H   LINE      CODE     ---       #1107
      01002175H   LINE      CODE     ---       #1108
      01002175H   LINE      CODE     ---       #1110
      0100217DH   LINE      CODE     ---       #1111
      0100217DH   LINE      CODE     ---       #1112
      01002186H   LINE      CODE     ---       #1113
      01002190H   LINE      CODE     ---       #1116
      0100219AH   LINE      CODE     ---       #1117
      010021A4H   LINE      CODE     ---       #1118
      010021AEH   LINE      CODE     ---       #1124
      010021B8H   LINE      CODE     ---       #1129
      010021C2H   LINE      CODE     ---       #1132
      010021D4H   LINE      CODE     ---       #1133
      010021D4H   LINE      CODE     ---       #1134
      010021D4H   LINE      CODE     ---       #1135
      010021D6H   LINE      CODE     ---       #1137
      010021D6H   LINE      CODE     ---       #1138
      010021DAH   LINE      CODE     ---       #1139
LX51 LINKER/LOCATER V4.66.1.0                                                         08/07/2017  15:30:51  PAGE 59


      010021DAH   LINE      CODE     ---       #1141
      010021DCH   LINE      CODE     ---       #1143
      010021DCH   LINE      CODE     ---       #1144
      010021E6H   LINE      CODE     ---       #1145
      010021E6H   LINE      CODE     ---       #1146
      ---         BLOCKEND  ---      ---       LVL=0

      ---         MODULE    ---      ---       MC_MOTORDRIVER_LAYER
      0200013DH   PUBLIC    XDATA    ---       Drv
      01002D32H   PUBLIC    CODE     ---       Drv_SetStep
      01002DAEH   PUBLIC    CODE     ---       _Fu68xx_PWM_Update
      01001F28H   PUBLIC    CODE     ---       _Drv_DutyRampCale
      01002B02H   PUBLIC    CODE     ---       _Drv_Commutation
      000000E2H   SFRSYM    DATA     BYTE      SV_USL
      000000ABH   SFRSYM    DATA     BYTE      TIM2_CNTRH
      000000B0H.4 SFRSYM    DATA     BIT       GP34
      000000A0H.5 SFRSYM    DATA     BIT       GP25
      00000090H.6 SFRSYM    DATA     BIT       GP16
      00000080H.7 SFRSYM    DATA     BIT       GP07
      00000088H.1 SFRSYM    DATA     BIT       IT01
      00000088H.3 SFRSYM    DATA     BIT       IT10
      000000F6H   SFRSYM    DATA     WORD      PI_UKMIN
      000000C2H   SFRSYM    DATA     WORD      MD_MA
      000000A3H   SFRSYM    DATA     BYTE      TIM3_CNTRH
      000000B0H.5 SFRSYM    DATA     BIT       GP35
      000000A0H.6 SFRSYM    DATA     BIT       GP26
      00000090H.7 SFRSYM    DATA     BIT       GP17
      00000080H   SFRSYM    DATA     BYTE      P0
      00000088H.4 SFRSYM    DATA     BIT       IT11
      000000CAH   SFRSYM    DATA     WORD      MD_MB
      00000093H   SFRSYM    DATA     BYTE      TIM4_CNTRH
      000000B0H.6 SFRSYM    DATA     BIT       GP36
      000000A0H.7 SFRSYM    DATA     BIT       GP27
      00000090H   SFRSYM    DATA     BYTE      P1
      000000D9H   SFRSYM    DATA     BYTE      EVT_FILT
      000000F4H   SFRSYM    DATA     WORD      PI_UKMAX
      0000008BH   SFRSYM    DATA     BYTE      TIM5_CNTRH
      000000B2H   SFRSYM    DATA     BYTE      TIM2_CMTRL
      000000B0H.7 SFRSYM    DATA     BIT       GP37
      000000A0H   SFRSYM    DATA     BYTE      P2
      000000AAH   SFRSYM    DATA     BYTE      TIM2_CNTRL
      000000B0H   SFRSYM    DATA     BYTE      P3
      000000A2H   SFRSYM    DATA     BYTE      TIM3_CNTRL
      000000D0H.6 SFRSYM    DATA     BIT       AC
      00000092H   SFRSYM    DATA     BYTE      TIM4_CNTRL
      0000008AH   SFRSYM    DATA     BYTE      TIM5_CNTRL
      000000B6H   SFRSYM    DATA     WORD      TIM0_CCR1
      000000A8H.7 SFRSYM    DATA     BIT       EA
      000000D5H   SFRSYM    DATA     BYTE      CMP_CR0
      000000BAH   SFRSYM    DATA     WORD      TIM0_CCR2
      000000D6H   SFRSYM    DATA     BYTE      CMP_CR1
      000000BCH   SFRSYM    DATA     WORD      TIM0_CCR3
      00000085H   SFRSYM    DATA     BYTE      PSCTL
      000000DAH   SFRSYM    DATA     BYTE      CMP_CR2
      000000BEH   SFRSYM    DATA     WORD      TIM0_CCR4
      000000B8H.2 SFRSYM    DATA     BIT       PX00
      000000EAH   SFRSYM    DATA     WORD      PI_EK
      000000F8H   SFRSYM    DATA     BIT       OISUH
      000000B8H.3 SFRSYM    DATA     BIT       PX01
      000000B8H.4 SFRSYM    DATA     BIT       PX10
      000000F8H.2 SFRSYM    DATA     BIT       OISVH
      000000B8H.5 SFRSYM    DATA     BIT       PX11
      000000F8H.4 SFRSYM    DATA     BIT       OISWH
      000000DCH   SFRSYM    DATA     WORD      LPF_K
      000000F2H   SFRSYM    DATA     WORD      PI_KI
LX51 LINKER/LOCATER V4.66.1.0                                                         08/07/2017  15:30:51  PAGE 60


      000000F8H.1 SFRSYM    DATA     BIT       OISUL
      000000A8H   SFRSYM    DATA     BYTE      IE
      000000F8H.3 SFRSYM    DATA     BIT       OISVL
      000000F8H.5 SFRSYM    DATA     BIT       OISWL
      000000D1H   SFRSYM    DATA     BYTE      P1IE
      00000098H.6 SFRSYM    DATA     BIT       MOD0
      000000D3H   SFRSYM    DATA     BYTE      P2IE
      000000D2H   SFRSYM    DATA     BYTE      P1IF
      000000F9H   SFRSYM    DATA     BYTE      PL_CR
      00000098H.7 SFRSYM    DATA     BIT       MOD1
      000000D4H   SFRSYM    DATA     BYTE      P2IF
      000000ACH   SFRSYM    DATA     WORD      TIM2_DR
      00000082H   SFRSYM    DATA     WORD      DP
      000000EEH   SFRSYM    DATA     WORD      PI_KP
      000000A4H   SFRSYM    DATA     WORD      TIM3_DR
      00000094H   SFRSYM    DATA     WORD      TIM4_DR
      0000008CH   SFRSYM    DATA     WORD      TIM5_DR
      000000F1H   SFRSYM    DATA     BYTE      OSC_CFG
      000000C1H   SFRSYM    DATA     BYTE      MD_MODE
      000000ECH   SFRSYM    DATA     WORD      PI_UK
      000000DEH   SFRSYM    DATA     WORD      LPF_X
      00000098H   SFRSYM    DATA     BIT       RI
      000000E6H   SFRSYM    DATA     WORD      LPF_Y
      000000C0H   SFRSYM    DATA     BIT       PTIM00
      000000D0H.7 SFRSYM    DATA     BIT       CY
      00000098H.1 SFRSYM    DATA     BIT       TI
      000000C0H.1 SFRSYM    DATA     BIT       PTIM01
      000000C0H.2 SFRSYM    DATA     BIT       PTIM10
      000000C0H.3 SFRSYM    DATA     BIT       PTIM11
      000000E1H   SFRSYM    DATA     BYTE      SV_CR
      00000098H   SFRSYM    DATA     BYTE      UT_CR
      00000099H   SFRSYM    DATA     BYTE      UT_DR
      000000F8H.6 SFRSYM    DATA     BIT       OIS4
      00000081H   SFRSYM    DATA     BYTE      SP
      000000D0H.2 SFRSYM    DATA     BIT       OV
      000000C4H   SFRSYM    DATA     BYTE      MD_DA0
      0000009AH   SFRSYM    DATA     WORD      UT_BAUD
      000000CCH   SFRSYM    DATA     BYTE      MD_DB0
      000000C5H   SFRSYM    DATA     BYTE      MD_DA1
      000000CDH   SFRSYM    DATA     BYTE      MD_DB1
      000000C6H   SFRSYM    DATA     BYTE      MD_DA2
      000000CEH   SFRSYM    DATA     BYTE      MD_DB2
      000000C7H   SFRSYM    DATA     BYTE      MD_DA3
      000000B4H   SFRSYM    DATA     WORD      TIM2_ADTR
      000000CFH   SFRSYM    DATA     BYTE      MD_DB3
      000000AFH   SFRSYM    DATA     BYTE      TIM2_ARRH
      000000A7H   SFRSYM    DATA     BYTE      TIM3_ARRH
      00000097H   SFRSYM    DATA     BYTE      TIM4_ARRH
      0000008FH   SFRSYM    DATA     BYTE      TIM5_ARRH
      000000AEH   SFRSYM    DATA     BYTE      TIM2_ARRL
      000000A6H   SFRSYM    DATA     BYTE      TIM3_ARRL
      00000087H   SFRSYM    DATA     BYTE      PCON
      000000E2H   SFRSYM    DATA     WORD      SV_US
      00000096H   SFRSYM    DATA     BYTE      TIM4_ARRL
      0000008EH   SFRSYM    DATA     BYTE      TIM5_ARRL
      000000B2H   SFRSYM    DATA     WORD      TIM2_CMTR
      00000088H   SFRSYM    DATA     BYTE      TCON
      000000AAH   SFRSYM    DATA     WORD      TIM2_CNTR
      000000A2H   SFRSYM    DATA     WORD      TIM3_CNTR
      00000092H   SFRSYM    DATA     WORD      TIM4_CNTR
      0000008AH   SFRSYM    DATA     WORD      TIM5_CNTR
      000000E5H   SFRSYM    DATA     BYTE      SV_ANGLEH
      000000D8H   SFRSYM    DATA     BIT       PUART0
      000000E4H   SFRSYM    DATA     BYTE      SV_ANGLEL
      000000C6H   SFRSYM    DATA     WORD      MD_DAH
LX51 LINKER/LOCATER V4.66.1.0                                                         08/07/2017  15:30:51  PAGE 61


      000000D8H.1 SFRSYM    DATA     BIT       PUART1
      000000D8H.2 SFRSYM    DATA     BIT       PI2C0
      00000088H.2 SFRSYM    DATA     BIT       IF0
      000000CEH   SFRSYM    DATA     WORD      MD_DBH
      000000D8H.3 SFRSYM    DATA     BIT       PI2C1
      000000F0H   SFRSYM    DATA     BYTE      B
      000000C4H   SFRSYM    DATA     WORD      MD_DAL
      000000A1H   SFRSYM    DATA     BYTE      TIM2_CR0
      000000CCH   SFRSYM    DATA     WORD      MD_DBL
      0000009CH   SFRSYM    DATA     BYTE      TIM3_CR0
      000000A9H   SFRSYM    DATA     BYTE      TIM2_CR1
      0000009EH   SFRSYM    DATA     BYTE      TIM4_CR0
      0000009DH   SFRSYM    DATA     BYTE      TIM3_CR1
      00000089H   SFRSYM    DATA     BYTE      TIM5_CR0
      0000009FH   SFRSYM    DATA     BYTE      TIM4_CR1
      000000F8H   SFRSYM    DATA     BYTE      DRV_OUT
      00000091H   SFRSYM    DATA     BYTE      TIM5_CR1
      000000E0H   SFRSYM    DATA     BYTE      ACC
      000000F7H   SFRSYM    DATA     BYTE      PI_UKMINH
      000000C3H   SFRSYM    DATA     BYTE      MD_MAH
      000000A8H.4 SFRSYM    DATA     BIT       ES0
      000000DBH   SFRSYM    DATA     BYTE      LVSR
      000000CBH   SFRSYM    DATA     BYTE      MD_MBH
      000000C0H.4 SFRSYM    DATA     BIT       PADC0
      000000B8H   SFRSYM    DATA     BYTE      IP0
      000000F5H   SFRSYM    DATA     BYTE      PI_UKMAXH
      000000C0H.5 SFRSYM    DATA     BIT       PADC1
      000000C0H   SFRSYM    DATA     BYTE      IP1
      000000C8H   SFRSYM    DATA     BYTE      IP2
      000000F6H   SFRSYM    DATA     BYTE      PI_UKMINL
      000000C2H   SFRSYM    DATA     BYTE      MD_MAL
      00000098H.2 SFRSYM    DATA     BIT       RB8
      000000D8H   SFRSYM    DATA     BYTE      IP3
      000000CAH   SFRSYM    DATA     BYTE      MD_MBL
      000000A8H   SFRSYM    DATA     BIT       EX0
      000000F4H   SFRSYM    DATA     BYTE      PI_UKMAXL
      00000098H.3 SFRSYM    DATA     BIT       TB8
      000000B7H   SFRSYM    DATA     BYTE      TIM0_CCR1H
      000000A8H.2 SFRSYM    DATA     BIT       EX1
      000000BBH   SFRSYM    DATA     BYTE      TIM0_CCR2H
      000000D0H   SFRSYM    DATA     BIT       P
      000000BDH   SFRSYM    DATA     BYTE      TIM0_CCR3H
      000000BFH   SFRSYM    DATA     BYTE      TIM0_CCR4H
      000000C8H.2 SFRSYM    DATA     BIT       PTIM230
      000000EBH   SFRSYM    DATA     BYTE      PI_EKH
      00000098H.5 SFRSYM    DATA     BIT       SM2
      000000B6H   SFRSYM    DATA     BYTE      TIM0_CCR1L
      000000B1H   SFRSYM    DATA     BYTE      TIM0_SR1
      000000C8H.3 SFRSYM    DATA     BIT       PTIM231
      000000BAH   SFRSYM    DATA     BYTE      TIM0_CCR2L
      000000BCH   SFRSYM    DATA     BYTE      TIM0_CCR3L
      000000BEH   SFRSYM    DATA     BYTE      TIM0_CCR4L
      000000D8H.6 SFRSYM    DATA     BIT       PMCD0
      000000C8H.4 SFRSYM    DATA     BIT       PTIM450
      000000D0H.3 SFRSYM    DATA     BIT       RS0
      000000DDH   SFRSYM    DATA     BYTE      LPF_KH
      000000F3H   SFRSYM    DATA     BYTE      PI_KIH
      000000EAH   SFRSYM    DATA     BYTE      PI_EKL
      000000E8H   SFRSYM    DATA     BYTE      FOC_SET0
      000000D8H.7 SFRSYM    DATA     BIT       PMCD1
      000000C8H.5 SFRSYM    DATA     BIT       PTIM451
      000000D0H.4 SFRSYM    DATA     BIT       RS1
      000000E9H   SFRSYM    DATA     BYTE      FOC_SET1
      000000B8H.6 SFRSYM    DATA     BIT       PFOC0
      000000DCH   SFRSYM    DATA     BYTE      LPF_KL
LX51 LINKER/LOCATER V4.66.1.0                                                         08/07/2017  15:30:51  PAGE 62


      000000F2H   SFRSYM    DATA     BYTE      PI_KIL
      000000B8H.7 SFRSYM    DATA     BIT       PFOC1
      000000ADH   SFRSYM    DATA     BYTE      TIM2_DRH
      000000B9H   SFRSYM    DATA     BYTE      TIM0_IER
      00000083H   SFRSYM    DATA     BYTE      DPH
      000000EFH   SFRSYM    DATA     BYTE      PI_KPH
      000000A5H   SFRSYM    DATA     BYTE      TIM3_DRH
      00000095H   SFRSYM    DATA     BYTE      TIM4_DRH
      0000008DH   SFRSYM    DATA     BYTE      TIM5_DRH
      000000ACH   SFRSYM    DATA     BYTE      TIM2_DRL
      00000082H   SFRSYM    DATA     BYTE      DPL
      000000EEH   SFRSYM    DATA     BYTE      PI_KPL
      000000A4H   SFRSYM    DATA     BYTE      TIM3_DRL
      000000F8H.7 SFRSYM    DATA     BIT       MOE
      000000C0H.6 SFRSYM    DATA     BIT       PCMP0
      000000EDH   SFRSYM    DATA     BYTE      PI_UKH
      00000094H   SFRSYM    DATA     BYTE      TIM4_DRL
      000000C0H.7 SFRSYM    DATA     BIT       PCMP1
      000000DFH   SFRSYM    DATA     BYTE      LPF_XH
      0000008CH   SFRSYM    DATA     BYTE      TIM5_DRL
      000000AEH   SFRSYM    DATA     WORD      TIM2_ARR
      000000A8H.5 SFRSYM    DATA     BIT       MCDIE
      000000C9H   SFRSYM    DATA     BYTE      RSTSRC
      000000E7H   SFRSYM    DATA     BYTE      LPF_YH
      000000A6H   SFRSYM    DATA     WORD      TIM3_ARR
      00000088H.6 SFRSYM    DATA     BIT       MCDIF
      00000098H.4 SFRSYM    DATA     BIT       REN
      00000096H   SFRSYM    DATA     WORD      TIM4_ARR
      000000ECH   SFRSYM    DATA     BYTE      PI_UKL
      000000D7H   SFRSYM    DATA     BYTE      CMP_SR
      0000008EH   SFRSYM    DATA     WORD      TIM5_ARR
      000000DEH   SFRSYM    DATA     BYTE      LPF_XL
      000000E6H   SFRSYM    DATA     BYTE      LPF_YL
      000000C8H   SFRSYM    DATA     BIT       PRTC0
      000000C8H.1 SFRSYM    DATA     BIT       PRTC1
      000000E8H.7 SFRSYM    DATA     BIT       FOCEN
      000000C8H.6 SFRSYM    DATA     BIT       PTSD0
      000000D8H.4 SFRSYM    DATA     BIT       PSPI0
      000000C8H.7 SFRSYM    DATA     BIT       PTSD1
      000000D8H.5 SFRSYM    DATA     BIT       PSPI1
      0000009BH   SFRSYM    DATA     BYTE      UT_BAUDH
      000000E4H   SFRSYM    DATA     WORD      SV_ANGLE
      000000B5H   SFRSYM    DATA     BYTE      TIM2_ADTRH
      0000009AH   SFRSYM    DATA     BYTE      UT_BAUDL
      000000FCH   SFRSYM    DATA     BYTE      P0_OE
      000000FDH   SFRSYM    DATA     BYTE      P1_OE
      000000D0H.5 SFRSYM    DATA     BIT       F0
      000000B4H   SFRSYM    DATA     BYTE      TIM2_ADTRL
      000000FEH   SFRSYM    DATA     BYTE      P2_OE
      000000D0H.1 SFRSYM    DATA     BIT       F1
      00000080H   SFRSYM    DATA     BIT       GP00
      000000FFH   SFRSYM    DATA     BYTE      P3_OE
      00000090H   SFRSYM    DATA     BIT       GP10
      00000080H.1 SFRSYM    DATA     BIT       GP01
      000000A8H.6 SFRSYM    DATA     BIT       RTCIE
      000000A0H   SFRSYM    DATA     BIT       GP20
      00000090H.1 SFRSYM    DATA     BIT       GP11
      00000080H.2 SFRSYM    DATA     BIT       GP02
      000000E3H   SFRSYM    DATA     BYTE      SV_USH
      000000B0H   SFRSYM    DATA     BIT       GP30
      000000A0H.1 SFRSYM    DATA     BIT       GP21
      00000090H.2 SFRSYM    DATA     BIT       GP12
      00000080H.3 SFRSYM    DATA     BIT       GP03
      000000B8H   SFRSYM    DATA     BIT       PLVW0
      000000A8H.1 SFRSYM    DATA     BIT       TSDIE
LX51 LINKER/LOCATER V4.66.1.0                                                         08/07/2017  15:30:51  PAGE 63


      000000D0H   SFRSYM    DATA     BYTE      PSW
      000000B0H.1 SFRSYM    DATA     BIT       GP31
      000000A0H.2 SFRSYM    DATA     BIT       GP22
      00000090H.3 SFRSYM    DATA     BIT       GP13
      00000080H.4 SFRSYM    DATA     BIT       GP04
      000000B8H.1 SFRSYM    DATA     BIT       PLVW1
      000000A8H.3 SFRSYM    DATA     BIT       SPIIE
      00000088H.5 SFRSYM    DATA     BIT       TSDIF
      000000B0H.2 SFRSYM    DATA     BIT       GP32
      000000A0H.3 SFRSYM    DATA     BIT       GP23
      00000090H.4 SFRSYM    DATA     BIT       GP14
      00000080H.5 SFRSYM    DATA     BIT       GP05
      00000084H   SFRSYM    DATA     BYTE      FLKEY
      000000B3H   SFRSYM    DATA     BYTE      TIM2_CMTRH
      000000B0H.3 SFRSYM    DATA     BIT       GP33
      000000A0H.4 SFRSYM    DATA     BIT       GP24
      00000090H.5 SFRSYM    DATA     BIT       GP15
      00000080H.6 SFRSYM    DATA     BIT       GP06
      00000088H   SFRSYM    DATA     BIT       IT00

      01002B02H   BLOCK     CODE     ---       LVL=0
      00000007H   SYMBOL    DATA     BYTE      Step
      01002B02H   LINE      CODE     ---       #41
      01002B02H   LINE      CODE     ---       #42
      01002B02H   LINE      CODE     ---       #44
      01002B07H   LINE      CODE     ---       #46
      01002B0EH   LINE      CODE     ---       #47
      01002B0EH   LINE      CODE     ---       #48
      01002B14H   LINE      CODE     ---       #49
      01002B25H   LINE      CODE     ---       #50
      01002B25H   LINE      CODE     ---       #51
      01002B4DH   LINE      CODE     ---       #52
      01002B4DH   LINE      CODE     ---       #53
      01002B4DH   LINE      CODE     ---       #55
      01002B4FH   LINE      CODE     ---       #56
      ---         BLOCKEND  ---      ---       LVL=0
      00000006H   SYMBOL    DATA     WORD      refCur

      01001F28H   BLOCK     CODE     ---       LVL=0
      02000209H   SYMBOL    XDATA    WORD      tduty
      01001F28H   LINE      CODE     ---       #95
      01001F30H   LINE      CODE     ---       #96
      01001F30H   LINE      CODE     ---       #97
      01001F69H   LINE      CODE     ---       #98
      01001F69H   LINE      CODE     ---       #99
      01001F7DH   LINE      CODE     ---       #100
      01001F7FH   LINE      CODE     ---       #101
      01001FB6H   LINE      CODE     ---       #102
      01001FB6H   LINE      CODE     ---       #103
      01001FC7H   LINE      CODE     ---       #104
      01001FC9H   LINE      CODE     ---       #106
      01001FC9H   LINE      CODE     ---       #107
      01001FD8H   LINE      CODE     ---       #108
      01001FD8H   LINE      CODE     ---       #110
      01001FE0H   LINE      CODE     ---       #111
      ---         BLOCKEND  ---      ---       LVL=0

      01002DAEH   BLOCK     CODE     ---       LVL=0
      00000006H   SYMBOL    DATA     WORD      tduty
      01002DAEH   BLOCK     CODE     NEAR LAB  LVL=1
      02000211H   SYMBOL    XDATA    WORD      temp
      ---         BLOCKEND  ---      ---       LVL=1
      01002DAEH   LINE      CODE     ---       #120
      01002DAEH   LINE      CODE     ---       #121
      01002DAEH   LINE      CODE     ---       #140
LX51 LINKER/LOCATER V4.66.1.0                                                         08/07/2017  15:30:51  PAGE 64


      01002DB5H   LINE      CODE     ---       #141
      01002DC2H   LINE      CODE     ---       #142
      01002DC2H   LINE      CODE     ---       #143
      01002DC2H   LINE      CODE     ---       #144
      01002DC4H   LINE      CODE     ---       #145
      01002DD1H   LINE      CODE     ---       #146
      01002DD1H   LINE      CODE     ---       #147
      01002DD6H   LINE      CODE     ---       #148
      01002DD6H   LINE      CODE     ---       #150
      01002DDEH   LINE      CODE     ---       #151
      01002DE4H   LINE      CODE     ---       #153
      01002DEAH   LINE      CODE     ---       #154
      ---         BLOCKEND  ---      ---       LVL=0

      01002D32H   BLOCK     CODE     ---       LVL=0
      01002D32H   BLOCK     CODE     NEAR LAB  LVL=1
      00000007H   SYMBOL    DATA     CHAR      TempCCW
      00000006H   SYMBOL    DATA     CHAR      TempCW
      ---         BLOCKEND  ---      ---       LVL=1
      01002D32H   LINE      CODE     ---       #163
      01002D32H   LINE      CODE     ---       #164
      01002D32H   LINE      CODE     ---       #166
      01002D32H   LINE      CODE     ---       #167
      01002D32H   LINE      CODE     ---       #168
      01002D34H   LINE      CODE     ---       #169
      01002D36H   LINE      CODE     ---       #170
      01002D36H   LINE      CODE     ---       #172
      01002D36H   LINE      CODE     ---       #173
      01002D36H   LINE      CODE     ---       #174
      01002D36H   LINE      CODE     ---       #175
      01002D36H   LINE      CODE     ---       #176
      01002D36H   LINE      CODE     ---       #177
      01002D36H   LINE      CODE     ---       #184
      01002D3DH   LINE      CODE     ---       #185
      01002D3DH   LINE      CODE     ---       #186
      01002D48H   LINE      CODE     ---       #187
      01002D48H   LINE      CODE     ---       #188
      01002D4BH   LINE      CODE     ---       #189
      01002D4CH   LINE      CODE     ---       #191
      01002D4CH   LINE      CODE     ---       #192
      01002D52H   LINE      CODE     ---       #193
      01002D52H   LINE      CODE     ---       #194
      01002D53H   LINE      CODE     ---       #195
      01002D5AH   LINE      CODE     ---       #196
      01002D5AH   LINE      CODE     ---       #197
      01002D65H   LINE      CODE     ---       #198
      01002D65H   LINE      CODE     ---       #199
      01002D68H   LINE      CODE     ---       #200
      01002D69H   LINE      CODE     ---       #202
      01002D69H   LINE      CODE     ---       #203
      01002D6FH   LINE      CODE     ---       #204
      01002D6FH   LINE      CODE     ---       #205
      01002D6FH   LINE      CODE     ---       #206
      ---         BLOCKEND  ---      ---       LVL=0
      00000007H   SYMBOL    DATA     BYTE      Step

      ---         MODULE    ---      ---       MC_KEY
      02000272H   PUBLIC    XDATA    BYTE      u8KeyForbid
      0200026EH   PUBLIC    XDATA    ---       X3
      0200026AH   PUBLIC    XDATA    ---       X2
      02000266H   PUBLIC    XDATA    ---       X1
      02000262H   PUBLIC    XDATA    ---       X0
      01002B9DH   PUBLIC    CODE     ---       Key_Filtrate
      01002DEBH   PUBLIC    CODE     ---       Key_init
      0100310CH   PUBLIC    CODE     ---       Key_Config
LX51 LINKER/LOCATER V4.66.1.0                                                         08/07/2017  15:30:51  PAGE 65


      000000E2H   SFRSYM    DATA     BYTE      SV_USL
      000000ABH   SFRSYM    DATA     BYTE      TIM2_CNTRH
      000000B0H.4 SFRSYM    DATA     BIT       GP34
      000000A0H.5 SFRSYM    DATA     BIT       GP25
      00000090H.6 SFRSYM    DATA     BIT       GP16
      00000080H.7 SFRSYM    DATA     BIT       GP07
      00000088H.1 SFRSYM    DATA     BIT       IT01
      00000088H.3 SFRSYM    DATA     BIT       IT10
      000000F6H   SFRSYM    DATA     WORD      PI_UKMIN
      000000C2H   SFRSYM    DATA     WORD      MD_MA
      000000A3H   SFRSYM    DATA     BYTE      TIM3_CNTRH
      000000B0H.5 SFRSYM    DATA     BIT       GP35
      000000A0H.6 SFRSYM    DATA     BIT       GP26
      00000090H.7 SFRSYM    DATA     BIT       GP17
      00000080H   SFRSYM    DATA     BYTE      P0
      00000088H.4 SFRSYM    DATA     BIT       IT11
      000000CAH   SFRSYM    DATA     WORD      MD_MB
      00000093H   SFRSYM    DATA     BYTE      TIM4_CNTRH
      000000B0H.6 SFRSYM    DATA     BIT       GP36
      000000A0H.7 SFRSYM    DATA     BIT       GP27
      00000090H   SFRSYM    DATA     BYTE      P1
      000000D9H   SFRSYM    DATA     BYTE      EVT_FILT
      000000F4H   SFRSYM    DATA     WORD      PI_UKMAX
      0000008BH   SFRSYM    DATA     BYTE      TIM5_CNTRH
      000000B2H   SFRSYM    DATA     BYTE      TIM2_CMTRL
      000000B0H.7 SFRSYM    DATA     BIT       GP37
      000000A0H   SFRSYM    DATA     BYTE      P2
      000000AAH   SFRSYM    DATA     BYTE      TIM2_CNTRL
      000000B0H   SFRSYM    DATA     BYTE      P3
      000000A2H   SFRSYM    DATA     BYTE      TIM3_CNTRL
      000000D0H.6 SFRSYM    DATA     BIT       AC
      00000092H   SFRSYM    DATA     BYTE      TIM4_CNTRL
      0000008AH   SFRSYM    DATA     BYTE      TIM5_CNTRL
      000000B6H   SFRSYM    DATA     WORD      TIM0_CCR1
      000000A8H.7 SFRSYM    DATA     BIT       EA
      000000D5H   SFRSYM    DATA     BYTE      CMP_CR0
      000000BAH   SFRSYM    DATA     WORD      TIM0_CCR2
      000000D6H   SFRSYM    DATA     BYTE      CMP_CR1
      000000BCH   SFRSYM    DATA     WORD      TIM0_CCR3
      00000085H   SFRSYM    DATA     BYTE      PSCTL
      000000DAH   SFRSYM    DATA     BYTE      CMP_CR2
      000000BEH   SFRSYM    DATA     WORD      TIM0_CCR4
      000000B8H.2 SFRSYM    DATA     BIT       PX00
      000000EAH   SFRSYM    DATA     WORD      PI_EK
      000000F8H   SFRSYM    DATA     BIT       OISUH
      000000B8H.3 SFRSYM    DATA     BIT       PX01
      000000B8H.4 SFRSYM    DATA     BIT       PX10
      000000F8H.2 SFRSYM    DATA     BIT       OISVH
      000000B8H.5 SFRSYM    DATA     BIT       PX11
      000000F8H.4 SFRSYM    DATA     BIT       OISWH
      000000DCH   SFRSYM    DATA     WORD      LPF_K
      000000F2H   SFRSYM    DATA     WORD      PI_KI
      000000F8H.1 SFRSYM    DATA     BIT       OISUL
      000000A8H   SFRSYM    DATA     BYTE      IE
      000000F8H.3 SFRSYM    DATA     BIT       OISVL
      000000F8H.5 SFRSYM    DATA     BIT       OISWL
      000000D1H   SFRSYM    DATA     BYTE      P1IE
      00000098H.6 SFRSYM    DATA     BIT       MOD0
      000000D3H   SFRSYM    DATA     BYTE      P2IE
      000000D2H   SFRSYM    DATA     BYTE      P1IF
      000000F9H   SFRSYM    DATA     BYTE      PL_CR
      00000098H.7 SFRSYM    DATA     BIT       MOD1
      000000D4H   SFRSYM    DATA     BYTE      P2IF
      000000ACH   SFRSYM    DATA     WORD      TIM2_DR
      00000082H   SFRSYM    DATA     WORD      DP
LX51 LINKER/LOCATER V4.66.1.0                                                         08/07/2017  15:30:51  PAGE 66


      000000EEH   SFRSYM    DATA     WORD      PI_KP
      000000A4H   SFRSYM    DATA     WORD      TIM3_DR
      00000094H   SFRSYM    DATA     WORD      TIM4_DR
      0000008CH   SFRSYM    DATA     WORD      TIM5_DR
      000000F1H   SFRSYM    DATA     BYTE      OSC_CFG
      000000C1H   SFRSYM    DATA     BYTE      MD_MODE
      000000ECH   SFRSYM    DATA     WORD      PI_UK
      000000DEH   SFRSYM    DATA     WORD      LPF_X
      00000098H   SFRSYM    DATA     BIT       RI
      000000E6H   SFRSYM    DATA     WORD      LPF_Y
      000000C0H   SFRSYM    DATA     BIT       PTIM00
      000000D0H.7 SFRSYM    DATA     BIT       CY
      00000098H.1 SFRSYM    DATA     BIT       TI
      000000C0H.1 SFRSYM    DATA     BIT       PTIM01
      000000C0H.2 SFRSYM    DATA     BIT       PTIM10
      000000C0H.3 SFRSYM    DATA     BIT       PTIM11
      000000E1H   SFRSYM    DATA     BYTE      SV_CR
      00000098H   SFRSYM    DATA     BYTE      UT_CR
      00000099H   SFRSYM    DATA     BYTE      UT_DR
      000000F8H.6 SFRSYM    DATA     BIT       OIS4
      00000081H   SFRSYM    DATA     BYTE      SP
      000000D0H.2 SFRSYM    DATA     BIT       OV
      000000C4H   SFRSYM    DATA     BYTE      MD_DA0
      0000009AH   SFRSYM    DATA     WORD      UT_BAUD
      000000CCH   SFRSYM    DATA     BYTE      MD_DB0
      000000C5H   SFRSYM    DATA     BYTE      MD_DA1
      000000CDH   SFRSYM    DATA     BYTE      MD_DB1
      000000C6H   SFRSYM    DATA     BYTE      MD_DA2
      000000CEH   SFRSYM    DATA     BYTE      MD_DB2
      000000C7H   SFRSYM    DATA     BYTE      MD_DA3
      000000B4H   SFRSYM    DATA     WORD      TIM2_ADTR
      000000CFH   SFRSYM    DATA     BYTE      MD_DB3
      000000AFH   SFRSYM    DATA     BYTE      TIM2_ARRH
      000000A7H   SFRSYM    DATA     BYTE      TIM3_ARRH
      00000097H   SFRSYM    DATA     BYTE      TIM4_ARRH
      0000008FH   SFRSYM    DATA     BYTE      TIM5_ARRH
      000000AEH   SFRSYM    DATA     BYTE      TIM2_ARRL
      000000A6H   SFRSYM    DATA     BYTE      TIM3_ARRL
      00000087H   SFRSYM    DATA     BYTE      PCON
      000000E2H   SFRSYM    DATA     WORD      SV_US
      00000096H   SFRSYM    DATA     BYTE      TIM4_ARRL
      0000008EH   SFRSYM    DATA     BYTE      TIM5_ARRL
      000000B2H   SFRSYM    DATA     WORD      TIM2_CMTR
      00000088H   SFRSYM    DATA     BYTE      TCON
      000000AAH   SFRSYM    DATA     WORD      TIM2_CNTR
      000000A2H   SFRSYM    DATA     WORD      TIM3_CNTR
      00000092H   SFRSYM    DATA     WORD      TIM4_CNTR
      0000008AH   SFRSYM    DATA     WORD      TIM5_CNTR
      000000E5H   SFRSYM    DATA     BYTE      SV_ANGLEH
      000000D8H   SFRSYM    DATA     BIT       PUART0
      000000E4H   SFRSYM    DATA     BYTE      SV_ANGLEL
      000000C6H   SFRSYM    DATA     WORD      MD_DAH
      000000D8H.1 SFRSYM    DATA     BIT       PUART1
      000000D8H.2 SFRSYM    DATA     BIT       PI2C0
      00000088H.2 SFRSYM    DATA     BIT       IF0
      000000CEH   SFRSYM    DATA     WORD      MD_DBH
      000000D8H.3 SFRSYM    DATA     BIT       PI2C1
      000000F0H   SFRSYM    DATA     BYTE      B
      000000C4H   SFRSYM    DATA     WORD      MD_DAL
      000000A1H   SFRSYM    DATA     BYTE      TIM2_CR0
      000000CCH   SFRSYM    DATA     WORD      MD_DBL
      0000009CH   SFRSYM    DATA     BYTE      TIM3_CR0
      000000A9H   SFRSYM    DATA     BYTE      TIM2_CR1
      0000009EH   SFRSYM    DATA     BYTE      TIM4_CR0
      0000009DH   SFRSYM    DATA     BYTE      TIM3_CR1
LX51 LINKER/LOCATER V4.66.1.0                                                         08/07/2017  15:30:51  PAGE 67


      00000089H   SFRSYM    DATA     BYTE      TIM5_CR0
      0000009FH   SFRSYM    DATA     BYTE      TIM4_CR1
      000000F8H   SFRSYM    DATA     BYTE      DRV_OUT
      00000091H   SFRSYM    DATA     BYTE      TIM5_CR1
      000000E0H   SFRSYM    DATA     BYTE      ACC
      000000F7H   SFRSYM    DATA     BYTE      PI_UKMINH
      000000C3H   SFRSYM    DATA     BYTE      MD_MAH
      000000A8H.4 SFRSYM    DATA     BIT       ES0
      000000DBH   SFRSYM    DATA     BYTE      LVSR
      000000CBH   SFRSYM    DATA     BYTE      MD_MBH
      000000C0H.4 SFRSYM    DATA     BIT       PADC0
      000000B8H   SFRSYM    DATA     BYTE      IP0
      000000F5H   SFRSYM    DATA     BYTE      PI_UKMAXH
      000000C0H.5 SFRSYM    DATA     BIT       PADC1
      000000C0H   SFRSYM    DATA     BYTE      IP1
      000000C8H   SFRSYM    DATA     BYTE      IP2
      000000F6H   SFRSYM    DATA     BYTE      PI_UKMINL
      000000C2H   SFRSYM    DATA     BYTE      MD_MAL
      00000098H.2 SFRSYM    DATA     BIT       RB8
      000000D8H   SFRSYM    DATA     BYTE      IP3
      000000CAH   SFRSYM    DATA     BYTE      MD_MBL
      000000A8H   SFRSYM    DATA     BIT       EX0
      000000F4H   SFRSYM    DATA     BYTE      PI_UKMAXL
      00000098H.3 SFRSYM    DATA     BIT       TB8
      000000B7H   SFRSYM    DATA     BYTE      TIM0_CCR1H
      000000A8H.2 SFRSYM    DATA     BIT       EX1
      000000BBH   SFRSYM    DATA     BYTE      TIM0_CCR2H
      000000D0H   SFRSYM    DATA     BIT       P
      000000BDH   SFRSYM    DATA     BYTE      TIM0_CCR3H
      000000BFH   SFRSYM    DATA     BYTE      TIM0_CCR4H
      000000C8H.2 SFRSYM    DATA     BIT       PTIM230
      000000EBH   SFRSYM    DATA     BYTE      PI_EKH
      00000098H.5 SFRSYM    DATA     BIT       SM2
      000000B6H   SFRSYM    DATA     BYTE      TIM0_CCR1L
      000000B1H   SFRSYM    DATA     BYTE      TIM0_SR1
      000000C8H.3 SFRSYM    DATA     BIT       PTIM231
      000000BAH   SFRSYM    DATA     BYTE      TIM0_CCR2L
      000000BCH   SFRSYM    DATA     BYTE      TIM0_CCR3L
      000000BEH   SFRSYM    DATA     BYTE      TIM0_CCR4L
      000000D8H.6 SFRSYM    DATA     BIT       PMCD0
      000000C8H.4 SFRSYM    DATA     BIT       PTIM450
      000000D0H.3 SFRSYM    DATA     BIT       RS0
      000000DDH   SFRSYM    DATA     BYTE      LPF_KH
      000000F3H   SFRSYM    DATA     BYTE      PI_KIH
      000000EAH   SFRSYM    DATA     BYTE      PI_EKL
      000000E8H   SFRSYM    DATA     BYTE      FOC_SET0
      000000D8H.7 SFRSYM    DATA     BIT       PMCD1
      000000C8H.5 SFRSYM    DATA     BIT       PTIM451
      000000D0H.4 SFRSYM    DATA     BIT       RS1
      000000E9H   SFRSYM    DATA     BYTE      FOC_SET1
      000000B8H.6 SFRSYM    DATA     BIT       PFOC0
      000000DCH   SFRSYM    DATA     BYTE      LPF_KL
      000000F2H   SFRSYM    DATA     BYTE      PI_KIL
      000000B8H.7 SFRSYM    DATA     BIT       PFOC1
      000000ADH   SFRSYM    DATA     BYTE      TIM2_DRH
      000000B9H   SFRSYM    DATA     BYTE      TIM0_IER
      00000083H   SFRSYM    DATA     BYTE      DPH
      000000EFH   SFRSYM    DATA     BYTE      PI_KPH
      000000A5H   SFRSYM    DATA     BYTE      TIM3_DRH
      00000095H   SFRSYM    DATA     BYTE      TIM4_DRH
      0000008DH   SFRSYM    DATA     BYTE      TIM5_DRH
      000000ACH   SFRSYM    DATA     BYTE      TIM2_DRL
      00000082H   SFRSYM    DATA     BYTE      DPL
      000000EEH   SFRSYM    DATA     BYTE      PI_KPL
      000000A4H   SFRSYM    DATA     BYTE      TIM3_DRL
LX51 LINKER/LOCATER V4.66.1.0                                                         08/07/2017  15:30:51  PAGE 68


      000000F8H.7 SFRSYM    DATA     BIT       MOE
      000000C0H.6 SFRSYM    DATA     BIT       PCMP0
      000000EDH   SFRSYM    DATA     BYTE      PI_UKH
      00000094H   SFRSYM    DATA     BYTE      TIM4_DRL
      000000C0H.7 SFRSYM    DATA     BIT       PCMP1
      000000DFH   SFRSYM    DATA     BYTE      LPF_XH
      0000008CH   SFRSYM    DATA     BYTE      TIM5_DRL
      000000AEH   SFRSYM    DATA     WORD      TIM2_ARR
      000000A8H.5 SFRSYM    DATA     BIT       MCDIE
      000000C9H   SFRSYM    DATA     BYTE      RSTSRC
      000000E7H   SFRSYM    DATA     BYTE      LPF_YH
      000000A6H   SFRSYM    DATA     WORD      TIM3_ARR
      00000088H.6 SFRSYM    DATA     BIT       MCDIF
      00000098H.4 SFRSYM    DATA     BIT       REN
      00000096H   SFRSYM    DATA     WORD      TIM4_ARR
      000000ECH   SFRSYM    DATA     BYTE      PI_UKL
      000000D7H   SFRSYM    DATA     BYTE      CMP_SR
      0000008EH   SFRSYM    DATA     WORD      TIM5_ARR
      000000DEH   SFRSYM    DATA     BYTE      LPF_XL
      000000E6H   SFRSYM    DATA     BYTE      LPF_YL
      000000C8H   SFRSYM    DATA     BIT       PRTC0
      000000C8H.1 SFRSYM    DATA     BIT       PRTC1
      000000E8H.7 SFRSYM    DATA     BIT       FOCEN
      000000C8H.6 SFRSYM    DATA     BIT       PTSD0
      000000D8H.4 SFRSYM    DATA     BIT       PSPI0
      000000C8H.7 SFRSYM    DATA     BIT       PTSD1
      000000D8H.5 SFRSYM    DATA     BIT       PSPI1
      0000009BH   SFRSYM    DATA     BYTE      UT_BAUDH
      000000E4H   SFRSYM    DATA     WORD      SV_ANGLE
      000000B5H   SFRSYM    DATA     BYTE      TIM2_ADTRH
      0000009AH   SFRSYM    DATA     BYTE      UT_BAUDL
      000000FCH   SFRSYM    DATA     BYTE      P0_OE
      000000FDH   SFRSYM    DATA     BYTE      P1_OE
      000000D0H.5 SFRSYM    DATA     BIT       F0
      000000B4H   SFRSYM    DATA     BYTE      TIM2_ADTRL
      000000FEH   SFRSYM    DATA     BYTE      P2_OE
      000000D0H.1 SFRSYM    DATA     BIT       F1
      00000080H   SFRSYM    DATA     BIT       GP00
      000000FFH   SFRSYM    DATA     BYTE      P3_OE
      00000090H   SFRSYM    DATA     BIT       GP10
      00000080H.1 SFRSYM    DATA     BIT       GP01
      000000A8H.6 SFRSYM    DATA     BIT       RTCIE
      000000A0H   SFRSYM    DATA     BIT       GP20
      00000090H.1 SFRSYM    DATA     BIT       GP11
      00000080H.2 SFRSYM    DATA     BIT       GP02
      000000E3H   SFRSYM    DATA     BYTE      SV_USH
      000000B0H   SFRSYM    DATA     BIT       GP30
      000000A0H.1 SFRSYM    DATA     BIT       GP21
      00000090H.2 SFRSYM    DATA     BIT       GP12
      00000080H.3 SFRSYM    DATA     BIT       GP03
      000000B8H   SFRSYM    DATA     BIT       PLVW0
      000000A8H.1 SFRSYM    DATA     BIT       TSDIE
      000000D0H   SFRSYM    DATA     BYTE      PSW
      000000B0H.1 SFRSYM    DATA     BIT       GP31
      000000A0H.2 SFRSYM    DATA     BIT       GP22
      00000090H.3 SFRSYM    DATA     BIT       GP13
      00000080H.4 SFRSYM    DATA     BIT       GP04
      000000B8H.1 SFRSYM    DATA     BIT       PLVW1
      000000A8H.3 SFRSYM    DATA     BIT       SPIIE
      00000088H.5 SFRSYM    DATA     BIT       TSDIF
      000000B0H.2 SFRSYM    DATA     BIT       GP32
      000000A0H.3 SFRSYM    DATA     BIT       GP23
      00000090H.4 SFRSYM    DATA     BIT       GP14
      00000080H.5 SFRSYM    DATA     BIT       GP05
      00000084H   SFRSYM    DATA     BYTE      FLKEY
LX51 LINKER/LOCATER V4.66.1.0                                                         08/07/2017  15:30:51  PAGE 69


      000000B3H   SFRSYM    DATA     BYTE      TIM2_CMTRH
      000000B0H.3 SFRSYM    DATA     BIT       GP33
      000000A0H.4 SFRSYM    DATA     BIT       GP24
      00000090H.5 SFRSYM    DATA     BIT       GP15
      00000080H.6 SFRSYM    DATA     BIT       GP06
      00000088H   SFRSYM    DATA     BIT       IT00

      0100310CH   BLOCK     CODE     ---       LVL=0
      0100310CH   LINE      CODE     ---       #50
      0100310CH   LINE      CODE     ---       #51
      0100310CH   LINE      CODE     ---       #58
      0100310FH   LINE      CODE     ---       #59
      01003116H   LINE      CODE     ---       #69
      ---         BLOCKEND  ---      ---       LVL=0

      01002DEBH   BLOCK     CODE     ---       LVL=0
      01002DEBH   LINE      CODE     ---       #70
      01002DEBH   LINE      CODE     ---       #71
      01002DEBH   LINE      CODE     ---       #72
      01002DF0H   LINE      CODE     ---       #73
      01002DF2H   LINE      CODE     ---       #74
      01002DF6H   LINE      CODE     ---       #75
      01002DFAH   LINE      CODE     ---       #77
      01002DFEH   LINE      CODE     ---       #78
      01002E00H   LINE      CODE     ---       #79
      01002E04H   LINE      CODE     ---       #80
      01002E08H   LINE      CODE     ---       #82
      01002E0CH   LINE      CODE     ---       #83
      01002E0EH   LINE      CODE     ---       #84
      01002E12H   LINE      CODE     ---       #85
      01002E16H   LINE      CODE     ---       #87
      01002E1AH   LINE      CODE     ---       #88
      01002E1CH   LINE      CODE     ---       #89
      01002E20H   LINE      CODE     ---       #90
      01002E24H   LINE      CODE     ---       #91
      ---         BLOCKEND  ---      ---       LVL=0

      01002B9DH   BLOCK     CODE     ---       LVL=0
      01002B9DH   LINE      CODE     ---       #100
      01002B9DH   LINE      CODE     ---       #101
      01002B9DH   LINE      CODE     ---       #103
      01002B9DH   LINE      CODE     ---       #136
      01002BA0H   LINE      CODE     ---       #137
      01002BA0H   LINE      CODE     ---       #138
      01002BA6H   LINE      CODE     ---       #139
      01002BADH   LINE      CODE     ---       #140
      01002BADH   LINE      CODE     ---       #141
      01002BB1H   LINE      CODE     ---       #142
      01002BB1H   LINE      CODE     ---       #143
      01002BB3H   LINE      CODE     ---       #145
      01002BB3H   LINE      CODE     ---       #146
      01002BB9H   LINE      CODE     ---       #147
      01002BB9H   LINE      CODE     ---       #149
      01002BC5H   LINE      CODE     ---       #150
      01002BC5H   LINE      CODE     ---       #151
      01002BC8H   LINE      CODE     ---       #153
      01002BCEH   LINE      CODE     ---       #154
      01002BCFH   LINE      CODE     ---       #155
      01002BD7H   LINE      CODE     ---       #156
      01002BDDH   LINE      CODE     ---       #157
      01002BDFH   LINE      CODE     ---       #159
      01002BE5H   LINE      CODE     ---       #160
      01002BE5H   LINE      CODE     ---       #192
      01002BE5H   LINE      CODE     ---       #223
      ---         BLOCKEND  ---      ---       LVL=0
LX51 LINKER/LOCATER V4.66.1.0                                                         08/07/2017  15:30:51  PAGE 70



      ---         MODULE    ---      ---       MC_PWMIN
      02000261H   PUBLIC    XDATA    BYTE      PwmInResetFlag
      02000246H   PUBLIC    XDATA    ---       PWMINCtl
      010006D2H   PUBLIC    CODE     ---       PWMINOnOffSwitch
      01001060H   PUBLIC    CODE     ---       PWMINInit
      000000E2H   SFRSYM    DATA     BYTE      SV_USL
      000000ABH   SFRSYM    DATA     BYTE      TIM2_CNTRH
      000000B0H.4 SFRSYM    DATA     BIT       GP34
      000000A0H.5 SFRSYM    DATA     BIT       GP25
      00000090H.6 SFRSYM    DATA     BIT       GP16
      00000080H.7 SFRSYM    DATA     BIT       GP07
      00000088H.1 SFRSYM    DATA     BIT       IT01
      00000088H.3 SFRSYM    DATA     BIT       IT10
      000000F6H   SFRSYM    DATA     WORD      PI_UKMIN
      000000C2H   SFRSYM    DATA     WORD      MD_MA
      000000A3H   SFRSYM    DATA     BYTE      TIM3_CNTRH
      000000B0H.5 SFRSYM    DATA     BIT       GP35
      000000A0H.6 SFRSYM    DATA     BIT       GP26
      00000090H.7 SFRSYM    DATA     BIT       GP17
      00000080H   SFRSYM    DATA     BYTE      P0
      00000088H.4 SFRSYM    DATA     BIT       IT11
      000000CAH   SFRSYM    DATA     WORD      MD_MB
      00000093H   SFRSYM    DATA     BYTE      TIM4_CNTRH
      000000B0H.6 SFRSYM    DATA     BIT       GP36
      000000A0H.7 SFRSYM    DATA     BIT       GP27
      00000090H   SFRSYM    DATA     BYTE      P1
      000000D9H   SFRSYM    DATA     BYTE      EVT_FILT
      000000F4H   SFRSYM    DATA     WORD      PI_UKMAX
      0000008BH   SFRSYM    DATA     BYTE      TIM5_CNTRH
      000000B2H   SFRSYM    DATA     BYTE      TIM2_CMTRL
      000000B0H.7 SFRSYM    DATA     BIT       GP37
      000000A0H   SFRSYM    DATA     BYTE      P2
      000000AAH   SFRSYM    DATA     BYTE      TIM2_CNTRL
      000000B0H   SFRSYM    DATA     BYTE      P3
      000000A2H   SFRSYM    DATA     BYTE      TIM3_CNTRL
      000000D0H.6 SFRSYM    DATA     BIT       AC
      00000092H   SFRSYM    DATA     BYTE      TIM4_CNTRL
      0000008AH   SFRSYM    DATA     BYTE      TIM5_CNTRL
      000000B6H   SFRSYM    DATA     WORD      TIM0_CCR1
      000000A8H.7 SFRSYM    DATA     BIT       EA
      000000D5H   SFRSYM    DATA     BYTE      CMP_CR0
      000000BAH   SFRSYM    DATA     WORD      TIM0_CCR2
      000000D6H   SFRSYM    DATA     BYTE      CMP_CR1
      000000BCH   SFRSYM    DATA     WORD      TIM0_CCR3
      00000085H   SFRSYM    DATA     BYTE      PSCTL
      000000DAH   SFRSYM    DATA     BYTE      CMP_CR2
      000000BEH   SFRSYM    DATA     WORD      TIM0_CCR4
      000000B8H.2 SFRSYM    DATA     BIT       PX00
      000000EAH   SFRSYM    DATA     WORD      PI_EK
      000000F8H   SFRSYM    DATA     BIT       OISUH
      000000B8H.3 SFRSYM    DATA     BIT       PX01
      000000B8H.4 SFRSYM    DATA     BIT       PX10
      000000F8H.2 SFRSYM    DATA     BIT       OISVH
      000000B8H.5 SFRSYM    DATA     BIT       PX11
      000000F8H.4 SFRSYM    DATA     BIT       OISWH
      000000DCH   SFRSYM    DATA     WORD      LPF_K
      000000F2H   SFRSYM    DATA     WORD      PI_KI
      000000F8H.1 SFRSYM    DATA     BIT       OISUL
      000000A8H   SFRSYM    DATA     BYTE      IE
      000000F8H.3 SFRSYM    DATA     BIT       OISVL
      000000F8H.5 SFRSYM    DATA     BIT       OISWL
      000000D1H   SFRSYM    DATA     BYTE      P1IE
      00000098H.6 SFRSYM    DATA     BIT       MOD0
      000000D3H   SFRSYM    DATA     BYTE      P2IE
LX51 LINKER/LOCATER V4.66.1.0                                                         08/07/2017  15:30:51  PAGE 71


      000000D2H   SFRSYM    DATA     BYTE      P1IF
      000000F9H   SFRSYM    DATA     BYTE      PL_CR
      00000098H.7 SFRSYM    DATA     BIT       MOD1
      000000D4H   SFRSYM    DATA     BYTE      P2IF
      000000ACH   SFRSYM    DATA     WORD      TIM2_DR
      00000082H   SFRSYM    DATA     WORD      DP
      000000EEH   SFRSYM    DATA     WORD      PI_KP
      000000A4H   SFRSYM    DATA     WORD      TIM3_DR
      00000094H   SFRSYM    DATA     WORD      TIM4_DR
      0000008CH   SFRSYM    DATA     WORD      TIM5_DR
      000000F1H   SFRSYM    DATA     BYTE      OSC_CFG
      000000C1H   SFRSYM    DATA     BYTE      MD_MODE
      000000ECH   SFRSYM    DATA     WORD      PI_UK
      000000DEH   SFRSYM    DATA     WORD      LPF_X
      00000098H   SFRSYM    DATA     BIT       RI
      000000E6H   SFRSYM    DATA     WORD      LPF_Y
      000000C0H   SFRSYM    DATA     BIT       PTIM00
      000000D0H.7 SFRSYM    DATA     BIT       CY
      00000098H.1 SFRSYM    DATA     BIT       TI
      000000C0H.1 SFRSYM    DATA     BIT       PTIM01
      000000C0H.2 SFRSYM    DATA     BIT       PTIM10
      000000C0H.3 SFRSYM    DATA     BIT       PTIM11
      000000E1H   SFRSYM    DATA     BYTE      SV_CR
      00000098H   SFRSYM    DATA     BYTE      UT_CR
      00000099H   SFRSYM    DATA     BYTE      UT_DR
      000000F8H.6 SFRSYM    DATA     BIT       OIS4
      00000081H   SFRSYM    DATA     BYTE      SP
      000000D0H.2 SFRSYM    DATA     BIT       OV
      000000C4H   SFRSYM    DATA     BYTE      MD_DA0
      0000009AH   SFRSYM    DATA     WORD      UT_BAUD
      000000CCH   SFRSYM    DATA     BYTE      MD_DB0
      000000C5H   SFRSYM    DATA     BYTE      MD_DA1
      000000CDH   SFRSYM    DATA     BYTE      MD_DB1
      000000C6H   SFRSYM    DATA     BYTE      MD_DA2
      000000CEH   SFRSYM    DATA     BYTE      MD_DB2
      000000C7H   SFRSYM    DATA     BYTE      MD_DA3
      000000B4H   SFRSYM    DATA     WORD      TIM2_ADTR
      000000CFH   SFRSYM    DATA     BYTE      MD_DB3
      000000AFH   SFRSYM    DATA     BYTE      TIM2_ARRH
      000000A7H   SFRSYM    DATA     BYTE      TIM3_ARRH
      00000097H   SFRSYM    DATA     BYTE      TIM4_ARRH
      0000008FH   SFRSYM    DATA     BYTE      TIM5_ARRH
      000000AEH   SFRSYM    DATA     BYTE      TIM2_ARRL
      000000A6H   SFRSYM    DATA     BYTE      TIM3_ARRL
      00000087H   SFRSYM    DATA     BYTE      PCON
      000000E2H   SFRSYM    DATA     WORD      SV_US
      00000096H   SFRSYM    DATA     BYTE      TIM4_ARRL
      0000008EH   SFRSYM    DATA     BYTE      TIM5_ARRL
      000000B2H   SFRSYM    DATA     WORD      TIM2_CMTR
      00000088H   SFRSYM    DATA     BYTE      TCON
      000000AAH   SFRSYM    DATA     WORD      TIM2_CNTR
      000000A2H   SFRSYM    DATA     WORD      TIM3_CNTR
      00000092H   SFRSYM    DATA     WORD      TIM4_CNTR
      0000008AH   SFRSYM    DATA     WORD      TIM5_CNTR
      000000E5H   SFRSYM    DATA     BYTE      SV_ANGLEH
      000000D8H   SFRSYM    DATA     BIT       PUART0
      000000E4H   SFRSYM    DATA     BYTE      SV_ANGLEL
      000000C6H   SFRSYM    DATA     WORD      MD_DAH
      000000D8H.1 SFRSYM    DATA     BIT       PUART1
      000000D8H.2 SFRSYM    DATA     BIT       PI2C0
      00000088H.2 SFRSYM    DATA     BIT       IF0
      000000CEH   SFRSYM    DATA     WORD      MD_DBH
      000000D8H.3 SFRSYM    DATA     BIT       PI2C1
      000000F0H   SFRSYM    DATA     BYTE      B
      000000C4H   SFRSYM    DATA     WORD      MD_DAL
LX51 LINKER/LOCATER V4.66.1.0                                                         08/07/2017  15:30:51  PAGE 72


      000000A1H   SFRSYM    DATA     BYTE      TIM2_CR0
      000000CCH   SFRSYM    DATA     WORD      MD_DBL
      0000009CH   SFRSYM    DATA     BYTE      TIM3_CR0
      000000A9H   SFRSYM    DATA     BYTE      TIM2_CR1
      0000009EH   SFRSYM    DATA     BYTE      TIM4_CR0
      0000009DH   SFRSYM    DATA     BYTE      TIM3_CR1
      00000089H   SFRSYM    DATA     BYTE      TIM5_CR0
      0000009FH   SFRSYM    DATA     BYTE      TIM4_CR1
      000000F8H   SFRSYM    DATA     BYTE      DRV_OUT
      00000091H   SFRSYM    DATA     BYTE      TIM5_CR1
      000000E0H   SFRSYM    DATA     BYTE      ACC
      000000F7H   SFRSYM    DATA     BYTE      PI_UKMINH
      000000C3H   SFRSYM    DATA     BYTE      MD_MAH
      000000A8H.4 SFRSYM    DATA     BIT       ES0
      000000DBH   SFRSYM    DATA     BYTE      LVSR
      000000CBH   SFRSYM    DATA     BYTE      MD_MBH
      000000C0H.4 SFRSYM    DATA     BIT       PADC0
      000000B8H   SFRSYM    DATA     BYTE      IP0
      000000F5H   SFRSYM    DATA     BYTE      PI_UKMAXH
      000000C0H.5 SFRSYM    DATA     BIT       PADC1
      000000C0H   SFRSYM    DATA     BYTE      IP1
      000000C8H   SFRSYM    DATA     BYTE      IP2
      000000F6H   SFRSYM    DATA     BYTE      PI_UKMINL
      000000C2H   SFRSYM    DATA     BYTE      MD_MAL
      00000098H.2 SFRSYM    DATA     BIT       RB8
      000000D8H   SFRSYM    DATA     BYTE      IP3
      000000CAH   SFRSYM    DATA     BYTE      MD_MBL
      000000A8H   SFRSYM    DATA     BIT       EX0
      000000F4H   SFRSYM    DATA     BYTE      PI_UKMAXL
      00000098H.3 SFRSYM    DATA     BIT       TB8
      000000B7H   SFRSYM    DATA     BYTE      TIM0_CCR1H
      000000A8H.2 SFRSYM    DATA     BIT       EX1
      000000BBH   SFRSYM    DATA     BYTE      TIM0_CCR2H
      000000D0H   SFRSYM    DATA     BIT       P
      000000BDH   SFRSYM    DATA     BYTE      TIM0_CCR3H
      000000BFH   SFRSYM    DATA     BYTE      TIM0_CCR4H
      000000C8H.2 SFRSYM    DATA     BIT       PTIM230
      000000EBH   SFRSYM    DATA     BYTE      PI_EKH
      00000098H.5 SFRSYM    DATA     BIT       SM2
      000000B6H   SFRSYM    DATA     BYTE      TIM0_CCR1L
      000000B1H   SFRSYM    DATA     BYTE      TIM0_SR1
      000000C8H.3 SFRSYM    DATA     BIT       PTIM231
      000000BAH   SFRSYM    DATA     BYTE      TIM0_CCR2L
      000000BCH   SFRSYM    DATA     BYTE      TIM0_CCR3L
      000000BEH   SFRSYM    DATA     BYTE      TIM0_CCR4L
      000000D8H.6 SFRSYM    DATA     BIT       PMCD0
      000000C8H.4 SFRSYM    DATA     BIT       PTIM450
      000000D0H.3 SFRSYM    DATA     BIT       RS0
      000000DDH   SFRSYM    DATA     BYTE      LPF_KH
      000000F3H   SFRSYM    DATA     BYTE      PI_KIH
      000000EAH   SFRSYM    DATA     BYTE      PI_EKL
      000000E8H   SFRSYM    DATA     BYTE      FOC_SET0
      000000D8H.7 SFRSYM    DATA     BIT       PMCD1
      000000C8H.5 SFRSYM    DATA     BIT       PTIM451
      000000D0H.4 SFRSYM    DATA     BIT       RS1
      000000E9H   SFRSYM    DATA     BYTE      FOC_SET1
      000000B8H.6 SFRSYM    DATA     BIT       PFOC0
      000000DCH   SFRSYM    DATA     BYTE      LPF_KL
      000000F2H   SFRSYM    DATA     BYTE      PI_KIL
      000000B8H.7 SFRSYM    DATA     BIT       PFOC1
      000000ADH   SFRSYM    DATA     BYTE      TIM2_DRH
      000000B9H   SFRSYM    DATA     BYTE      TIM0_IER
      00000083H   SFRSYM    DATA     BYTE      DPH
      000000EFH   SFRSYM    DATA     BYTE      PI_KPH
      000000A5H   SFRSYM    DATA     BYTE      TIM3_DRH
LX51 LINKER/LOCATER V4.66.1.0                                                         08/07/2017  15:30:51  PAGE 73


      00000095H   SFRSYM    DATA     BYTE      TIM4_DRH
      0000008DH   SFRSYM    DATA     BYTE      TIM5_DRH
      000000ACH   SFRSYM    DATA     BYTE      TIM2_DRL
      00000082H   SFRSYM    DATA     BYTE      DPL
      000000EEH   SFRSYM    DATA     BYTE      PI_KPL
      000000A4H   SFRSYM    DATA     BYTE      TIM3_DRL
      000000F8H.7 SFRSYM    DATA     BIT       MOE
      000000C0H.6 SFRSYM    DATA     BIT       PCMP0
      000000EDH   SFRSYM    DATA     BYTE      PI_UKH
      00000094H   SFRSYM    DATA     BYTE      TIM4_DRL
      000000C0H.7 SFRSYM    DATA     BIT       PCMP1
      000000DFH   SFRSYM    DATA     BYTE      LPF_XH
      0000008CH   SFRSYM    DATA     BYTE      TIM5_DRL
      000000AEH   SFRSYM    DATA     WORD      TIM2_ARR
      000000A8H.5 SFRSYM    DATA     BIT       MCDIE
      000000C9H   SFRSYM    DATA     BYTE      RSTSRC
      000000E7H   SFRSYM    DATA     BYTE      LPF_YH
      000000A6H   SFRSYM    DATA     WORD      TIM3_ARR
      00000088H.6 SFRSYM    DATA     BIT       MCDIF
      00000098H.4 SFRSYM    DATA     BIT       REN
      00000096H   SFRSYM    DATA     WORD      TIM4_ARR
      000000ECH   SFRSYM    DATA     BYTE      PI_UKL
      000000D7H   SFRSYM    DATA     BYTE      CMP_SR
      0000008EH   SFRSYM    DATA     WORD      TIM5_ARR
      000000DEH   SFRSYM    DATA     BYTE      LPF_XL
      000000E6H   SFRSYM    DATA     BYTE      LPF_YL
      000000C8H   SFRSYM    DATA     BIT       PRTC0
      000000C8H.1 SFRSYM    DATA     BIT       PRTC1
      000000E8H.7 SFRSYM    DATA     BIT       FOCEN
      000000C8H.6 SFRSYM    DATA     BIT       PTSD0
      000000D8H.4 SFRSYM    DATA     BIT       PSPI0
      000000C8H.7 SFRSYM    DATA     BIT       PTSD1
      000000D8H.5 SFRSYM    DATA     BIT       PSPI1
      0000009BH   SFRSYM    DATA     BYTE      UT_BAUDH
      000000E4H   SFRSYM    DATA     WORD      SV_ANGLE
      000000B5H   SFRSYM    DATA     BYTE      TIM2_ADTRH
      0000009AH   SFRSYM    DATA     BYTE      UT_BAUDL
      000000FCH   SFRSYM    DATA     BYTE      P0_OE
      000000FDH   SFRSYM    DATA     BYTE      P1_OE
      000000D0H.5 SFRSYM    DATA     BIT       F0
      000000B4H   SFRSYM    DATA     BYTE      TIM2_ADTRL
      000000FEH   SFRSYM    DATA     BYTE      P2_OE
      000000D0H.1 SFRSYM    DATA     BIT       F1
      00000080H   SFRSYM    DATA     BIT       GP00
      000000FFH   SFRSYM    DATA     BYTE      P3_OE
      00000090H   SFRSYM    DATA     BIT       GP10
      00000080H.1 SFRSYM    DATA     BIT       GP01
      000000A8H.6 SFRSYM    DATA     BIT       RTCIE
      000000A0H   SFRSYM    DATA     BIT       GP20
      00000090H.1 SFRSYM    DATA     BIT       GP11
      00000080H.2 SFRSYM    DATA     BIT       GP02
      000000E3H   SFRSYM    DATA     BYTE      SV_USH
      000000B0H   SFRSYM    DATA     BIT       GP30
      000000A0H.1 SFRSYM    DATA     BIT       GP21
      00000090H.2 SFRSYM    DATA     BIT       GP12
      00000080H.3 SFRSYM    DATA     BIT       GP03
      000000B8H   SFRSYM    DATA     BIT       PLVW0
      000000A8H.1 SFRSYM    DATA     BIT       TSDIE
      000000D0H   SFRSYM    DATA     BYTE      PSW
      000000B0H.1 SFRSYM    DATA     BIT       GP31
      000000A0H.2 SFRSYM    DATA     BIT       GP22
      00000090H.3 SFRSYM    DATA     BIT       GP13
      00000080H.4 SFRSYM    DATA     BIT       GP04
      000000B8H.1 SFRSYM    DATA     BIT       PLVW1
      000000A8H.3 SFRSYM    DATA     BIT       SPIIE
LX51 LINKER/LOCATER V4.66.1.0                                                         08/07/2017  15:30:51  PAGE 74


      00000088H.5 SFRSYM    DATA     BIT       TSDIF
      000000B0H.2 SFRSYM    DATA     BIT       GP32
      000000A0H.3 SFRSYM    DATA     BIT       GP23
      00000090H.4 SFRSYM    DATA     BIT       GP14
      00000080H.5 SFRSYM    DATA     BIT       GP05
      00000084H   SFRSYM    DATA     BYTE      FLKEY
      000000B3H   SFRSYM    DATA     BYTE      TIM2_CMTRH
      000000B0H.3 SFRSYM    DATA     BIT       GP33
      000000A0H.4 SFRSYM    DATA     BIT       GP24
      00000090H.5 SFRSYM    DATA     BIT       GP15
      00000080H.6 SFRSYM    DATA     BIT       GP06
      00000088H   SFRSYM    DATA     BIT       IT00

      01001060H   BLOCK     CODE     ---       LVL=0
      01001060H   BLOCK     CODE     NEAR LAB  LVL=1
      02000211H   SYMBOL    XDATA    FLOAT     tfAlineA
      ---         BLOCKEND  ---      ---       LVL=1
      01001060H   LINE      CODE     ---       #40
      01001060H   LINE      CODE     ---       #41
      01001060H   LINE      CODE     ---       #44
      01001066H   LINE      CODE     ---       #46
      0100106CH   LINE      CODE     ---       #50
      01001077H   LINE      CODE     ---       #51
      0100107BH   LINE      CODE     ---       #52
      01001083H   LINE      CODE     ---       #53
      0100108AH   LINE      CODE     ---       #54
      01001094H   LINE      CODE     ---       #55
      0100109BH   LINE      CODE     ---       #56
      0100109FH   LINE      CODE     ---       #57
      010010A5H   LINE      CODE     ---       #58
      010010ABH   LINE      CODE     ---       #61
      010010BFH   LINE      CODE     ---       #62
      010010BFH   LINE      CODE     ---       #63
      010010C9H   LINE      CODE     ---       #64
      010010D1H   LINE      CODE     ---       #65
      010010D1H   LINE      CODE     ---       #67
      0100111AH   LINE      CODE     ---       #68
      01001175H   LINE      CODE     ---       #71
      0100118BH   LINE      CODE     ---       #73
      010011B2H   LINE      CODE     ---       #74
      010011CEH   LINE      CODE     ---       #75
      01001205H   LINE      CODE     ---       #78
      ---         BLOCKEND  ---      ---       LVL=0

      010006D2H   BLOCK     CODE     ---       LVL=0
      010006D2H   BLOCK     CODE     NEAR LAB  LVL=1
      02000209H   SYMBOL    XDATA    FLOAT     tfAlineA
      ---         BLOCKEND  ---      ---       LVL=1
      010006D2H   LINE      CODE     ---       #97
      010006D2H   LINE      CODE     ---       #98
      010006D2H   LINE      CODE     ---       #101
      010006DDH   LINE      CODE     ---       #102
      010006DDH   LINE      CODE     ---       #103
      010006E7H   LINE      CODE     ---       #104
      010006E7H   LINE      CODE     ---       #105
      010006ECH   LINE      CODE     ---       #106
      010006F2H   LINE      CODE     ---       #107
      010006F3H   LINE      CODE     ---       #108
      01000702H   LINE      CODE     ---       #109
      01000702H   LINE      CODE     ---       #111
      01000708H   LINE      CODE     ---       #112
      01000712H   LINE      CODE     ---       #113
      01000726H   LINE      CODE     ---       #114
      01000726H   LINE      CODE     ---       #115
      0100072DH   LINE      CODE     ---       #116
LX51 LINKER/LOCATER V4.66.1.0                                                         08/07/2017  15:30:51  PAGE 75


      01000738H   LINE      CODE     ---       #117
      01000738H   LINE      CODE     ---       #118
      0100074CH   LINE      CODE     ---       #119
      0100074EH   LINE      CODE     ---       #120
      0100074EH   LINE      CODE     ---       #121
      0100074EH   LINE      CODE     ---       #130
      01000751H   LINE      CODE     ---       #131
      01000763H   LINE      CODE     ---       #132
      01000763H   LINE      CODE     ---       #133
      01000769H   LINE      CODE     ---       #134
      01000773H   LINE      CODE     ---       #136
      0100077EH   LINE      CODE     ---       #137
      0100077EH   LINE      CODE     ---       #138
      01000792H   LINE      CODE     ---       #139
      01000792H   LINE      CODE     ---       #140
      01000799H   LINE      CODE     ---       #142
      010007A0H   LINE      CODE     ---       #143
      010007A0H   LINE      CODE     ---       #144
      010007AFH   LINE      CODE     ---       #150
      010007AFH   LINE      CODE     ---       #151
      010007C8H   LINE      CODE     ---       #152
      010007DFH   LINE      CODE     ---       #154
      010007F3H   LINE      CODE     ---       #155
      010007F3H   LINE      CODE     ---       #156
      010007FDH   LINE      CODE     ---       #157
      01000805H   LINE      CODE     ---       #158
      01000805H   LINE      CODE     ---       #160
      01000860H   LINE      CODE     ---       #161
      010008BBH   LINE      CODE     ---       #164
      010008D1H   LINE      CODE     ---       #166
      010008F8H   LINE      CODE     ---       #167
      0100090BH   LINE      CODE     ---       #168
      0100090BH   LINE      CODE     ---       #169
      01000915H   LINE      CODE     ---       #170
      01000915H   LINE      CODE     ---       #171
      01000931H   LINE      CODE     ---       #172
      01000968H   LINE      CODE     ---       #174
      0100096AH   LINE      CODE     ---       #175
      0100096AH   LINE      CODE     ---       #176
      0100096AH   LINE      CODE     ---       #177
      0100096CH   LINE      CODE     ---       #179
      0100096CH   LINE      CODE     ---       #180
      01000973H   LINE      CODE     ---       #181
      01000979H   LINE      CODE     ---       #182
      01000984H   LINE      CODE     ---       #183
      01000989H   LINE      CODE     ---       #184
      01000989H   LINE      CODE     ---       #185
      01000989H   LINE      CODE     ---       #186
      01000989H   LINE      CODE     ---       #188
      01000989H   LINE      CODE     ---       #189
      01000993H   LINE      CODE     ---       #190
      01000993H   LINE      CODE     ---       #191
      0100099AH   LINE      CODE     ---       #192
      010009A0H   LINE      CODE     ---       #193
      010009A5H   LINE      CODE     ---       #194
      010009A5H   LINE      CODE     ---       #195
      010009C1H   LINE      CODE     ---       #196
      010009C1H   LINE      CODE     ---       #197
      010009CBH   LINE      CODE     ---       #198
      010009DCH   LINE      CODE     ---       #199
      010009DCH   LINE      CODE     ---       #200
      010009E3H   LINE      CODE     ---       #203
      010009EAH   LINE      CODE     ---       #204
      010009F0H   LINE      CODE     ---       #205
      010009F6H   LINE      CODE     ---       #206
LX51 LINKER/LOCATER V4.66.1.0                                                         08/07/2017  15:30:51  PAGE 76


      010009F6H   LINE      CODE     ---       #207
      010009F8H   LINE      CODE     ---       #208
      010009FEH   LINE      CODE     ---       #209
      01000A00H   LINE      CODE     ---       #210
      01000A00H   LINE      CODE     ---       #212
      01000A00H   LINE      CODE     ---       #213
      01000A01H   LINE      CODE     ---       #234
      01000A0FH   LINE      CODE     ---       #235
      01000A0FH   LINE      CODE     ---       #236
      01000A19H   LINE      CODE     ---       #237
      01000A2AH   LINE      CODE     ---       #238
      01000A2AH   LINE      CODE     ---       #239
      01000A30H   LINE      CODE     ---       #240
      01000A3FH   LINE      CODE     ---       #241
      01000A3FH   LINE      CODE     ---       #242
      01000A45H   LINE      CODE     ---       #244
      01000A4CH   LINE      CODE     ---       #245
      01000A52H   LINE      CODE     ---       #246
      01000A52H   LINE      CODE     ---       #247
      01000A52H   LINE      CODE     ---       #248
      01000A52H   LINE      CODE     ---       #249
      01000A52H   LINE      CODE     ---       #251
      ---         BLOCKEND  ---      ---       LVL=0

      ---         MODULE    ---      ---       MC_BEEP
      0200027FH   PUBLIC    XDATA    ---       Beep
      01003147H   PUBLIC    CONST    ---       BeepNote
      01003053H   PUBLIC    CODE     ---       _BeepRequestFun
      01002096H   PUBLIC    CODE     ---       BeepResponse
      010028E3H   PUBLIC    CODE     ---       Beepperform
      02000217H   PUBLIC    XDATA    BYTE      ?_BeepTone?BYTE
      01001A6CH   PUBLIC    CODE     ---       _BeepTone
      010030F4H   PUBLIC    CODE     ---       BeepInit
      000000E2H   SFRSYM    DATA     BYTE      SV_USL
      000000ABH   SFRSYM    DATA     BYTE      TIM2_CNTRH
      000000B0H.4 SFRSYM    DATA     BIT       GP34
      000000A0H.5 SFRSYM    DATA     BIT       GP25
      00000090H.6 SFRSYM    DATA     BIT       GP16
      00000080H.7 SFRSYM    DATA     BIT       GP07
      00000088H.1 SFRSYM    DATA     BIT       IT01
      00000088H.3 SFRSYM    DATA     BIT       IT10
      000000F6H   SFRSYM    DATA     WORD      PI_UKMIN
      000000C2H   SFRSYM    DATA     WORD      MD_MA
      000000A3H   SFRSYM    DATA     BYTE      TIM3_CNTRH
      000000B0H.5 SFRSYM    DATA     BIT       GP35
      000000A0H.6 SFRSYM    DATA     BIT       GP26
      00000090H.7 SFRSYM    DATA     BIT       GP17
      00000080H   SFRSYM    DATA     BYTE      P0
      00000088H.4 SFRSYM    DATA     BIT       IT11
      000000CAH   SFRSYM    DATA     WORD      MD_MB
      00000093H   SFRSYM    DATA     BYTE      TIM4_CNTRH
      000000B0H.6 SFRSYM    DATA     BIT       GP36
      000000A0H.7 SFRSYM    DATA     BIT       GP27
      00000090H   SFRSYM    DATA     BYTE      P1
      000000D9H   SFRSYM    DATA     BYTE      EVT_FILT
      000000F4H   SFRSYM    DATA     WORD      PI_UKMAX
      0000008BH   SFRSYM    DATA     BYTE      TIM5_CNTRH
      000000B2H   SFRSYM    DATA     BYTE      TIM2_CMTRL
      000000B0H.7 SFRSYM    DATA     BIT       GP37
      000000A0H   SFRSYM    DATA     BYTE      P2
      000000AAH   SFRSYM    DATA     BYTE      TIM2_CNTRL
      000000B0H   SFRSYM    DATA     BYTE      P3
      000000A2H   SFRSYM    DATA     BYTE      TIM3_CNTRL
      000000D0H.6 SFRSYM    DATA     BIT       AC
      00000092H   SFRSYM    DATA     BYTE      TIM4_CNTRL
LX51 LINKER/LOCATER V4.66.1.0                                                         08/07/2017  15:30:51  PAGE 77


      0000008AH   SFRSYM    DATA     BYTE      TIM5_CNTRL
      000000B6H   SFRSYM    DATA     WORD      TIM0_CCR1
      000000A8H.7 SFRSYM    DATA     BIT       EA
      000000D5H   SFRSYM    DATA     BYTE      CMP_CR0
      000000BAH   SFRSYM    DATA     WORD      TIM0_CCR2
      000000D6H   SFRSYM    DATA     BYTE      CMP_CR1
      000000BCH   SFRSYM    DATA     WORD      TIM0_CCR3
      00000085H   SFRSYM    DATA     BYTE      PSCTL
      000000DAH   SFRSYM    DATA     BYTE      CMP_CR2
      000000BEH   SFRSYM    DATA     WORD      TIM0_CCR4
      000000B8H.2 SFRSYM    DATA     BIT       PX00
      000000EAH   SFRSYM    DATA     WORD      PI_EK
      000000F8H   SFRSYM    DATA     BIT       OISUH
      000000B8H.3 SFRSYM    DATA     BIT       PX01
      000000B8H.4 SFRSYM    DATA     BIT       PX10
      000000F8H.2 SFRSYM    DATA     BIT       OISVH
      000000B8H.5 SFRSYM    DATA     BIT       PX11
      000000F8H.4 SFRSYM    DATA     BIT       OISWH
      000000DCH   SFRSYM    DATA     WORD      LPF_K
      000000F2H   SFRSYM    DATA     WORD      PI_KI
      000000F8H.1 SFRSYM    DATA     BIT       OISUL
      000000A8H   SFRSYM    DATA     BYTE      IE
      000000F8H.3 SFRSYM    DATA     BIT       OISVL
      000000F8H.5 SFRSYM    DATA     BIT       OISWL
      000000D1H   SFRSYM    DATA     BYTE      P1IE
      00000098H.6 SFRSYM    DATA     BIT       MOD0
      000000D3H   SFRSYM    DATA     BYTE      P2IE
      000000D2H   SFRSYM    DATA     BYTE      P1IF
      000000F9H   SFRSYM    DATA     BYTE      PL_CR
      00000098H.7 SFRSYM    DATA     BIT       MOD1
      000000D4H   SFRSYM    DATA     BYTE      P2IF
      000000ACH   SFRSYM    DATA     WORD      TIM2_DR
      00000082H   SFRSYM    DATA     WORD      DP
      000000EEH   SFRSYM    DATA     WORD      PI_KP
      000000A4H   SFRSYM    DATA     WORD      TIM3_DR
      00000094H   SFRSYM    DATA     WORD      TIM4_DR
      0000008CH   SFRSYM    DATA     WORD      TIM5_DR
      000000F1H   SFRSYM    DATA     BYTE      OSC_CFG
      000000C1H   SFRSYM    DATA     BYTE      MD_MODE
      000000ECH   SFRSYM    DATA     WORD      PI_UK
      000000DEH   SFRSYM    DATA     WORD      LPF_X
      00000098H   SFRSYM    DATA     BIT       RI
      000000E6H   SFRSYM    DATA     WORD      LPF_Y
      000000C0H   SFRSYM    DATA     BIT       PTIM00
      000000D0H.7 SFRSYM    DATA     BIT       CY
      00000098H.1 SFRSYM    DATA     BIT       TI
      000000C0H.1 SFRSYM    DATA     BIT       PTIM01
      000000C0H.2 SFRSYM    DATA     BIT       PTIM10
      000000C0H.3 SFRSYM    DATA     BIT       PTIM11
      000000E1H   SFRSYM    DATA     BYTE      SV_CR
      00000098H   SFRSYM    DATA     BYTE      UT_CR
      00000099H   SFRSYM    DATA     BYTE      UT_DR
      000000F8H.6 SFRSYM    DATA     BIT       OIS4
      00000081H   SFRSYM    DATA     BYTE      SP
      000000D0H.2 SFRSYM    DATA     BIT       OV
      000000C4H   SFRSYM    DATA     BYTE      MD_DA0
      0000009AH   SFRSYM    DATA     WORD      UT_BAUD
      000000CCH   SFRSYM    DATA     BYTE      MD_DB0
      000000C5H   SFRSYM    DATA     BYTE      MD_DA1
      000000CDH   SFRSYM    DATA     BYTE      MD_DB1
      000000C6H   SFRSYM    DATA     BYTE      MD_DA2
      000000CEH   SFRSYM    DATA     BYTE      MD_DB2
      000000C7H   SFRSYM    DATA     BYTE      MD_DA3
      000000B4H   SFRSYM    DATA     WORD      TIM2_ADTR
      000000CFH   SFRSYM    DATA     BYTE      MD_DB3
LX51 LINKER/LOCATER V4.66.1.0                                                         08/07/2017  15:30:51  PAGE 78


      000000AFH   SFRSYM    DATA     BYTE      TIM2_ARRH
      000000A7H   SFRSYM    DATA     BYTE      TIM3_ARRH
      00000097H   SFRSYM    DATA     BYTE      TIM4_ARRH
      0000008FH   SFRSYM    DATA     BYTE      TIM5_ARRH
      000000AEH   SFRSYM    DATA     BYTE      TIM2_ARRL
      000000A6H   SFRSYM    DATA     BYTE      TIM3_ARRL
      00000087H   SFRSYM    DATA     BYTE      PCON
      000000E2H   SFRSYM    DATA     WORD      SV_US
      00000096H   SFRSYM    DATA     BYTE      TIM4_ARRL
      0000008EH   SFRSYM    DATA     BYTE      TIM5_ARRL
      000000B2H   SFRSYM    DATA     WORD      TIM2_CMTR
      00000088H   SFRSYM    DATA     BYTE      TCON
      000000AAH   SFRSYM    DATA     WORD      TIM2_CNTR
      000000A2H   SFRSYM    DATA     WORD      TIM3_CNTR
      00000092H   SFRSYM    DATA     WORD      TIM4_CNTR
      0000008AH   SFRSYM    DATA     WORD      TIM5_CNTR
      000000E5H   SFRSYM    DATA     BYTE      SV_ANGLEH
      000000D8H   SFRSYM    DATA     BIT       PUART0
      000000E4H   SFRSYM    DATA     BYTE      SV_ANGLEL
      000000C6H   SFRSYM    DATA     WORD      MD_DAH
      000000D8H.1 SFRSYM    DATA     BIT       PUART1
      000000D8H.2 SFRSYM    DATA     BIT       PI2C0
      00000088H.2 SFRSYM    DATA     BIT       IF0
      000000CEH   SFRSYM    DATA     WORD      MD_DBH
      000000D8H.3 SFRSYM    DATA     BIT       PI2C1
      000000F0H   SFRSYM    DATA     BYTE      B
      000000C4H   SFRSYM    DATA     WORD      MD_DAL
      000000A1H   SFRSYM    DATA     BYTE      TIM2_CR0
      000000CCH   SFRSYM    DATA     WORD      MD_DBL
      0000009CH   SFRSYM    DATA     BYTE      TIM3_CR0
      000000A9H   SFRSYM    DATA     BYTE      TIM2_CR1
      0000009EH   SFRSYM    DATA     BYTE      TIM4_CR0
      0000009DH   SFRSYM    DATA     BYTE      TIM3_CR1
      00000089H   SFRSYM    DATA     BYTE      TIM5_CR0
      0000009FH   SFRSYM    DATA     BYTE      TIM4_CR1
      000000F8H   SFRSYM    DATA     BYTE      DRV_OUT
      00000091H   SFRSYM    DATA     BYTE      TIM5_CR1
      000000E0H   SFRSYM    DATA     BYTE      ACC
      000000F7H   SFRSYM    DATA     BYTE      PI_UKMINH
      000000C3H   SFRSYM    DATA     BYTE      MD_MAH
      000000A8H.4 SFRSYM    DATA     BIT       ES0
      000000DBH   SFRSYM    DATA     BYTE      LVSR
      000000CBH   SFRSYM    DATA     BYTE      MD_MBH
      000000C0H.4 SFRSYM    DATA     BIT       PADC0
      000000B8H   SFRSYM    DATA     BYTE      IP0
      000000F5H   SFRSYM    DATA     BYTE      PI_UKMAXH
      000000C0H.5 SFRSYM    DATA     BIT       PADC1
      000000C0H   SFRSYM    DATA     BYTE      IP1
      000000C8H   SFRSYM    DATA     BYTE      IP2
      000000F6H   SFRSYM    DATA     BYTE      PI_UKMINL
      000000C2H   SFRSYM    DATA     BYTE      MD_MAL
      00000098H.2 SFRSYM    DATA     BIT       RB8
      000000D8H   SFRSYM    DATA     BYTE      IP3
      000000CAH   SFRSYM    DATA     BYTE      MD_MBL
      000000A8H   SFRSYM    DATA     BIT       EX0
      000000F4H   SFRSYM    DATA     BYTE      PI_UKMAXL
      00000098H.3 SFRSYM    DATA     BIT       TB8
      000000B7H   SFRSYM    DATA     BYTE      TIM0_CCR1H
      000000A8H.2 SFRSYM    DATA     BIT       EX1
      000000BBH   SFRSYM    DATA     BYTE      TIM0_CCR2H
      000000D0H   SFRSYM    DATA     BIT       P
      000000BDH   SFRSYM    DATA     BYTE      TIM0_CCR3H
      000000BFH   SFRSYM    DATA     BYTE      TIM0_CCR4H
      000000C8H.2 SFRSYM    DATA     BIT       PTIM230
      000000EBH   SFRSYM    DATA     BYTE      PI_EKH
LX51 LINKER/LOCATER V4.66.1.0                                                         08/07/2017  15:30:51  PAGE 79


      00000098H.5 SFRSYM    DATA     BIT       SM2
      000000B6H   SFRSYM    DATA     BYTE      TIM0_CCR1L
      000000B1H   SFRSYM    DATA     BYTE      TIM0_SR1
      000000C8H.3 SFRSYM    DATA     BIT       PTIM231
      000000BAH   SFRSYM    DATA     BYTE      TIM0_CCR2L
      000000BCH   SFRSYM    DATA     BYTE      TIM0_CCR3L
      000000BEH   SFRSYM    DATA     BYTE      TIM0_CCR4L
      000000D8H.6 SFRSYM    DATA     BIT       PMCD0
      000000C8H.4 SFRSYM    DATA     BIT       PTIM450
      000000D0H.3 SFRSYM    DATA     BIT       RS0
      000000DDH   SFRSYM    DATA     BYTE      LPF_KH
      000000F3H   SFRSYM    DATA     BYTE      PI_KIH
      000000EAH   SFRSYM    DATA     BYTE      PI_EKL
      000000E8H   SFRSYM    DATA     BYTE      FOC_SET0
      000000D8H.7 SFRSYM    DATA     BIT       PMCD1
      000000C8H.5 SFRSYM    DATA     BIT       PTIM451
      000000D0H.4 SFRSYM    DATA     BIT       RS1
      000000E9H   SFRSYM    DATA     BYTE      FOC_SET1
      000000B8H.6 SFRSYM    DATA     BIT       PFOC0
      000000DCH   SFRSYM    DATA     BYTE      LPF_KL
      000000F2H   SFRSYM    DATA     BYTE      PI_KIL
      000000B8H.7 SFRSYM    DATA     BIT       PFOC1
      000000ADH   SFRSYM    DATA     BYTE      TIM2_DRH
      000000B9H   SFRSYM    DATA     BYTE      TIM0_IER
      00000083H   SFRSYM    DATA     BYTE      DPH
      000000EFH   SFRSYM    DATA     BYTE      PI_KPH
      000000A5H   SFRSYM    DATA     BYTE      TIM3_DRH
      00000095H   SFRSYM    DATA     BYTE      TIM4_DRH
      0000008DH   SFRSYM    DATA     BYTE      TIM5_DRH
      000000ACH   SFRSYM    DATA     BYTE      TIM2_DRL
      00000082H   SFRSYM    DATA     BYTE      DPL
      000000EEH   SFRSYM    DATA     BYTE      PI_KPL
      000000A4H   SFRSYM    DATA     BYTE      TIM3_DRL
      000000F8H.7 SFRSYM    DATA     BIT       MOE
      000000C0H.6 SFRSYM    DATA     BIT       PCMP0
      000000EDH   SFRSYM    DATA     BYTE      PI_UKH
      00000094H   SFRSYM    DATA     BYTE      TIM4_DRL
      000000C0H.7 SFRSYM    DATA     BIT       PCMP1
      000000DFH   SFRSYM    DATA     BYTE      LPF_XH
      0000008CH   SFRSYM    DATA     BYTE      TIM5_DRL
      000000AEH   SFRSYM    DATA     WORD      TIM2_ARR
      000000A8H.5 SFRSYM    DATA     BIT       MCDIE
      000000C9H   SFRSYM    DATA     BYTE      RSTSRC
      000000E7H   SFRSYM    DATA     BYTE      LPF_YH
      000000A6H   SFRSYM    DATA     WORD      TIM3_ARR
      00000088H.6 SFRSYM    DATA     BIT       MCDIF
      00000098H.4 SFRSYM    DATA     BIT       REN
      00000096H   SFRSYM    DATA     WORD      TIM4_ARR
      000000ECH   SFRSYM    DATA     BYTE      PI_UKL
      000000D7H   SFRSYM    DATA     BYTE      CMP_SR
      0000008EH   SFRSYM    DATA     WORD      TIM5_ARR
      000000DEH   SFRSYM    DATA     BYTE      LPF_XL
      000000E6H   SFRSYM    DATA     BYTE      LPF_YL
      000000C8H   SFRSYM    DATA     BIT       PRTC0
      000000C8H.1 SFRSYM    DATA     BIT       PRTC1
      000000E8H.7 SFRSYM    DATA     BIT       FOCEN
      000000C8H.6 SFRSYM    DATA     BIT       PTSD0
      000000D8H.4 SFRSYM    DATA     BIT       PSPI0
      000000C8H.7 SFRSYM    DATA     BIT       PTSD1
      000000D8H.5 SFRSYM    DATA     BIT       PSPI1
      0000009BH   SFRSYM    DATA     BYTE      UT_BAUDH
      000000E4H   SFRSYM    DATA     WORD      SV_ANGLE
      000000B5H   SFRSYM    DATA     BYTE      TIM2_ADTRH
      0000009AH   SFRSYM    DATA     BYTE      UT_BAUDL
      000000FCH   SFRSYM    DATA     BYTE      P0_OE
LX51 LINKER/LOCATER V4.66.1.0                                                         08/07/2017  15:30:51  PAGE 80


      000000FDH   SFRSYM    DATA     BYTE      P1_OE
      000000D0H.5 SFRSYM    DATA     BIT       F0
      000000B4H   SFRSYM    DATA     BYTE      TIM2_ADTRL
      000000FEH   SFRSYM    DATA     BYTE      P2_OE
      000000D0H.1 SFRSYM    DATA     BIT       F1
      00000080H   SFRSYM    DATA     BIT       GP00
      000000FFH   SFRSYM    DATA     BYTE      P3_OE
      00000090H   SFRSYM    DATA     BIT       GP10
      00000080H.1 SFRSYM    DATA     BIT       GP01
      000000A8H.6 SFRSYM    DATA     BIT       RTCIE
      000000A0H   SFRSYM    DATA     BIT       GP20
      00000090H.1 SFRSYM    DATA     BIT       GP11
      00000080H.2 SFRSYM    DATA     BIT       GP02
      000000E3H   SFRSYM    DATA     BYTE      SV_USH
      000000B0H   SFRSYM    DATA     BIT       GP30
      000000A0H.1 SFRSYM    DATA     BIT       GP21
      00000090H.2 SFRSYM    DATA     BIT       GP12
      00000080H.3 SFRSYM    DATA     BIT       GP03
      000000B8H   SFRSYM    DATA     BIT       PLVW0
      000000A8H.1 SFRSYM    DATA     BIT       TSDIE
      000000D0H   SFRSYM    DATA     BYTE      PSW
      000000B0H.1 SFRSYM    DATA     BIT       GP31
      000000A0H.2 SFRSYM    DATA     BIT       GP22
      00000090H.3 SFRSYM    DATA     BIT       GP13
      00000080H.4 SFRSYM    DATA     BIT       GP04
      000000B8H.1 SFRSYM    DATA     BIT       PLVW1
      000000A8H.3 SFRSYM    DATA     BIT       SPIIE
      00000088H.5 SFRSYM    DATA     BIT       TSDIF
      000000B0H.2 SFRSYM    DATA     BIT       GP32
      000000A0H.3 SFRSYM    DATA     BIT       GP23
      00000090H.4 SFRSYM    DATA     BIT       GP14
      00000080H.5 SFRSYM    DATA     BIT       GP05
      00000084H   SFRSYM    DATA     BYTE      FLKEY
      000000B3H   SFRSYM    DATA     BYTE      TIM2_CMTRH
      000000B0H.3 SFRSYM    DATA     BIT       GP33
      000000A0H.4 SFRSYM    DATA     BIT       GP24
      00000090H.5 SFRSYM    DATA     BIT       GP15
      00000080H.6 SFRSYM    DATA     BIT       GP06
      00000088H   SFRSYM    DATA     BIT       IT00

      010030F4H   BLOCK     CODE     ---       LVL=0
      010030F4H   LINE      CODE     ---       #37
      010030F4H   LINE      CODE     ---       #38
      010030F4H   LINE      CODE     ---       #39
      010030FAH   LINE      CODE     ---       #40
      010030FFH   LINE      CODE     ---       #41
      ---         BLOCKEND  ---      ---       LVL=0

      01001A60H   BLOCK     CODE     ---       LVL=0
      ---         BLOCKEND  ---      ---       LVL=0

      01001A6CH   BLOCK     CODE     ---       LVL=0
      02000217H   SYMBOL    XDATA    BYTE      tBeepNote
      02000218H   SYMBOL    XDATA    FLOAT     tvolume
      0200021CH   SYMBOL    XDATA    WORD      time
      0200021EH   SYMBOL    XDATA    WORD      i
      01001A71H   BLOCK     CODE     NEAR LAB  LVL=1
      0200021EH   SYMBOL    XDATA    WORD      i
      ---         BLOCKEND  ---      ---       LVL=1
      01001A6CH   LINE      CODE     ---       #43
      01001A71H   LINE      CODE     ---       #44
      01001A71H   LINE      CODE     ---       #47
      01001A73H   LINE      CODE     ---       #48
      01001A78H   LINE      CODE     ---       #49
      01001A78H   LINE      CODE     ---       #50
LX51 LINKER/LOCATER V4.66.1.0                                                         08/07/2017  15:30:51  PAGE 81


      01001A7BH   LINE      CODE     ---       #51
      01001A7BH   LINE      CODE     ---       #52
      01001A8FH   LINE      CODE     ---       #53
      01001A8FH   LINE      CODE     ---       #54
      01001A99H   LINE      CODE     ---       #55
      01001A99H   LINE      CODE     ---       #56
      01001AC0H   LINE      CODE     ---       #57
      01001ADCH   LINE      CODE     ---       #58
      01001ADCH   LINE      CODE     ---       #59
      01001AE5H   LINE      CODE     ---       #60
      01001AEFH   LINE      CODE     ---       #61
      01001AF6H   LINE      CODE     ---       #62
      01001B04H   LINE      CODE     ---       #63
      01001B0DH   LINE      CODE     ---       #64
      01001B17H   LINE      CODE     ---       #65
      01001B1EH   LINE      CODE     ---       #66
      01001B2CH   LINE      CODE     ---       #67
      01001B38H   LINE      CODE     ---       #68
      01001B3AH   LINE      CODE     ---       #70
      ---         BLOCKEND  ---      ---       LVL=0

      010028E3H   BLOCK     CODE     ---       LVL=0
      010028E3H   BLOCK     CODE     NEAR LAB  LVL=1
      02000211H   SYMBOL    XDATA    WORD      i
      02000213H   SYMBOL    XDATA    WORD      k
      02000215H   SYMBOL    XDATA    BYTE      j
      02000216H   SYMBOL    XDATA    BYTE      tBeepNote
      ---         BLOCKEND  ---      ---       LVL=1
      010028E3H   LINE      CODE     ---       #72
      010028E3H   LINE      CODE     ---       #73
      010028E3H   LINE      CODE     ---       #76
      010028EAH   LINE      CODE     ---       #77
      010028EAH   LINE      CODE     ---       #78
      010028F9H   LINE      CODE     ---       #79
      010028F9H   LINE      CODE     ---       #80
      01002916H   LINE      CODE     ---       #81
      0100291EH   LINE      CODE     ---       #83
      01002937H   LINE      CODE     ---       #84
      01002939H   LINE      CODE     ---       #85
      01002940H   LINE      CODE     ---       #86
      01002942H   LINE      CODE     ---       #87
      01002948H   LINE      CODE     ---       #88
      ---         BLOCKEND  ---      ---       LVL=0

      01002096H   BLOCK     CODE     ---       LVL=0
      01002096H   LINE      CODE     ---       #90
      01002096H   LINE      CODE     ---       #91
      01002096H   LINE      CODE     ---       #93
      010020A1H   LINE      CODE     ---       #94
      010020A1H   LINE      CODE     ---       #95
      010020B9H   LINE      CODE     ---       #96
      010020B9H   LINE      CODE     ---       #97
      010020B9H   LINE      CODE     ---       #98
      010020C6H   LINE      CODE     ---       #99
      010020C8H   LINE      CODE     ---       #100
      010020CFH   LINE      CODE     ---       #101
      010020D1H   LINE      CODE     ---       #102
      010020DEH   LINE      CODE     ---       #103
      010020E4H   LINE      CODE     ---       #104
      010020E8H   LINE      CODE     ---       #105
      010020EAH   LINE      CODE     ---       #106
      010020EAH   LINE      CODE     ---       #107
      010020FFH   LINE      CODE     ---       #108
      01002105H   LINE      CODE     ---       #109
      01002109H   LINE      CODE     ---       #110
LX51 LINKER/LOCATER V4.66.1.0                                                         08/07/2017  15:30:51  PAGE 82


      0100210BH   LINE      CODE     ---       #111
      0100210BH   LINE      CODE     ---       #112
      01002118H   LINE      CODE     ---       #113
      0100211AH   LINE      CODE     ---       #114
      01002121H   LINE      CODE     ---       #115
      01002123H   LINE      CODE     ---       #116
      01002130H   LINE      CODE     ---       #117
      01002132H   LINE      CODE     ---       #118
      01002132H   LINE      CODE     ---       #119
      01002135H   LINE      CODE     ---       #120
      0100213BH   LINE      CODE     ---       #121
      0100213BH   LINE      CODE     ---       #122
      0100213BH   LINE      CODE     ---       #123
      0100213BH   LINE      CODE     ---       #124
      0100213BH   LINE      CODE     ---       #125
      0100213BH   LINE      CODE     ---       #126
      0100213BH   LINE      CODE     ---       #127
      0100213BH   LINE      CODE     ---       #128
      01002141H   LINE      CODE     ---       #132
      ---         BLOCKEND  ---      ---       LVL=0

      01003053H   BLOCK     CODE     ---       LVL=0
      00000007H   SYMBOL    DATA     BYTE      mold
      01003053H   LINE      CODE     ---       #134
      01003053H   LINE      CODE     ---       #135
      01003053H   LINE      CODE     ---       #136
      0100305AH   LINE      CODE     ---       #137
      0100305AH   LINE      CODE     ---       #138
      0100305DH   LINE      CODE     ---       #139
      01003062H   LINE      CODE     ---       #140
      01003065H   LINE      CODE     ---       #141
      01003065H   LINE      CODE     ---       #142
      0100306BH   LINE      CODE     ---       #143
      0100306BH   LINE      CODE     ---       #144
      0100306BH   LINE      CODE     ---       #145
      ---         BLOCKEND  ---      ---       LVL=0

      ---         MODULE    ---      ---       MC_LED
      0100002EH   PUBLIC    CODE     ---       LED_show
      01002811H   PUBLIC    CODE     ---       _Fault_Led
      000000E2H   SFRSYM    DATA     BYTE      SV_USL
      000000ABH   SFRSYM    DATA     BYTE      TIM2_CNTRH
      000000B0H.4 SFRSYM    DATA     BIT       GP34
      000000A0H.5 SFRSYM    DATA     BIT       GP25
      00000090H.6 SFRSYM    DATA     BIT       GP16
      00000080H.7 SFRSYM    DATA     BIT       GP07
      00000088H.1 SFRSYM    DATA     BIT       IT01
      00000088H.3 SFRSYM    DATA     BIT       IT10
      000000F6H   SFRSYM    DATA     WORD      PI_UKMIN
      000000C2H   SFRSYM    DATA     WORD      MD_MA
      000000A3H   SFRSYM    DATA     BYTE      TIM3_CNTRH
      000000B0H.5 SFRSYM    DATA     BIT       GP35
      000000A0H.6 SFRSYM    DATA     BIT       GP26
      00000090H.7 SFRSYM    DATA     BIT       GP17
      00000080H   SFRSYM    DATA     BYTE      P0
      00000088H.4 SFRSYM    DATA     BIT       IT11
      000000CAH   SFRSYM    DATA     WORD      MD_MB
      00000093H   SFRSYM    DATA     BYTE      TIM4_CNTRH
      000000B0H.6 SFRSYM    DATA     BIT       GP36
      000000A0H.7 SFRSYM    DATA     BIT       GP27
      00000090H   SFRSYM    DATA     BYTE      P1
      000000D9H   SFRSYM    DATA     BYTE      EVT_FILT
      000000F4H   SFRSYM    DATA     WORD      PI_UKMAX
      0000008BH   SFRSYM    DATA     BYTE      TIM5_CNTRH
      000000B2H   SFRSYM    DATA     BYTE      TIM2_CMTRL
LX51 LINKER/LOCATER V4.66.1.0                                                         08/07/2017  15:30:51  PAGE 83


      000000B0H.7 SFRSYM    DATA     BIT       GP37
      000000A0H   SFRSYM    DATA     BYTE      P2
      000000AAH   SFRSYM    DATA     BYTE      TIM2_CNTRL
      000000B0H   SFRSYM    DATA     BYTE      P3
      000000A2H   SFRSYM    DATA     BYTE      TIM3_CNTRL
      000000D0H.6 SFRSYM    DATA     BIT       AC
      00000092H   SFRSYM    DATA     BYTE      TIM4_CNTRL
      0000008AH   SFRSYM    DATA     BYTE      TIM5_CNTRL
      000000B6H   SFRSYM    DATA     WORD      TIM0_CCR1
      000000A8H.7 SFRSYM    DATA     BIT       EA
      000000D5H   SFRSYM    DATA     BYTE      CMP_CR0
      000000BAH   SFRSYM    DATA     WORD      TIM0_CCR2
      000000D6H   SFRSYM    DATA     BYTE      CMP_CR1
      000000BCH   SFRSYM    DATA     WORD      TIM0_CCR3
      00000085H   SFRSYM    DATA     BYTE      PSCTL
      000000DAH   SFRSYM    DATA     BYTE      CMP_CR2
      000000BEH   SFRSYM    DATA     WORD      TIM0_CCR4
      000000B8H.2 SFRSYM    DATA     BIT       PX00
      000000EAH   SFRSYM    DATA     WORD      PI_EK
      000000F8H   SFRSYM    DATA     BIT       OISUH
      000000B8H.3 SFRSYM    DATA     BIT       PX01
      000000B8H.4 SFRSYM    DATA     BIT       PX10
      000000F8H.2 SFRSYM    DATA     BIT       OISVH
      000000B8H.5 SFRSYM    DATA     BIT       PX11
      000000F8H.4 SFRSYM    DATA     BIT       OISWH
      000000DCH   SFRSYM    DATA     WORD      LPF_K
      000000F2H   SFRSYM    DATA     WORD      PI_KI
      000000F8H.1 SFRSYM    DATA     BIT       OISUL
      000000A8H   SFRSYM    DATA     BYTE      IE
      000000F8H.3 SFRSYM    DATA     BIT       OISVL
      000000F8H.5 SFRSYM    DATA     BIT       OISWL
      000000D1H   SFRSYM    DATA     BYTE      P1IE
      00000098H.6 SFRSYM    DATA     BIT       MOD0
      000000D3H   SFRSYM    DATA     BYTE      P2IE
      000000D2H   SFRSYM    DATA     BYTE      P1IF
      000000F9H   SFRSYM    DATA     BYTE      PL_CR
      00000098H.7 SFRSYM    DATA     BIT       MOD1
      000000D4H   SFRSYM    DATA     BYTE      P2IF
      000000ACH   SFRSYM    DATA     WORD      TIM2_DR
      00000082H   SFRSYM    DATA     WORD      DP
      000000EEH   SFRSYM    DATA     WORD      PI_KP
      000000A4H   SFRSYM    DATA     WORD      TIM3_DR
      00000094H   SFRSYM    DATA     WORD      TIM4_DR
      0000008CH   SFRSYM    DATA     WORD      TIM5_DR
      000000F1H   SFRSYM    DATA     BYTE      OSC_CFG
      000000C1H   SFRSYM    DATA     BYTE      MD_MODE
      000000ECH   SFRSYM    DATA     WORD      PI_UK
      000000DEH   SFRSYM    DATA     WORD      LPF_X
      00000098H   SFRSYM    DATA     BIT       RI
      000000E6H   SFRSYM    DATA     WORD      LPF_Y
      000000C0H   SFRSYM    DATA     BIT       PTIM00
      000000D0H.7 SFRSYM    DATA     BIT       CY
      00000098H.1 SFRSYM    DATA     BIT       TI
      000000C0H.1 SFRSYM    DATA     BIT       PTIM01
      000000C0H.2 SFRSYM    DATA     BIT       PTIM10
      000000C0H.3 SFRSYM    DATA     BIT       PTIM11
      000000E1H   SFRSYM    DATA     BYTE      SV_CR
      00000098H   SFRSYM    DATA     BYTE      UT_CR
      00000099H   SFRSYM    DATA     BYTE      UT_DR
      000000F8H.6 SFRSYM    DATA     BIT       OIS4
      00000081H   SFRSYM    DATA     BYTE      SP
      000000D0H.2 SFRSYM    DATA     BIT       OV
      000000C4H   SFRSYM    DATA     BYTE      MD_DA0
      0000009AH   SFRSYM    DATA     WORD      UT_BAUD
      000000CCH   SFRSYM    DATA     BYTE      MD_DB0
LX51 LINKER/LOCATER V4.66.1.0                                                         08/07/2017  15:30:51  PAGE 84


      000000C5H   SFRSYM    DATA     BYTE      MD_DA1
      000000CDH   SFRSYM    DATA     BYTE      MD_DB1
      000000C6H   SFRSYM    DATA     BYTE      MD_DA2
      000000CEH   SFRSYM    DATA     BYTE      MD_DB2
      000000C7H   SFRSYM    DATA     BYTE      MD_DA3
      000000B4H   SFRSYM    DATA     WORD      TIM2_ADTR
      000000CFH   SFRSYM    DATA     BYTE      MD_DB3
      000000AFH   SFRSYM    DATA     BYTE      TIM2_ARRH
      000000A7H   SFRSYM    DATA     BYTE      TIM3_ARRH
      00000097H   SFRSYM    DATA     BYTE      TIM4_ARRH
      0000008FH   SFRSYM    DATA     BYTE      TIM5_ARRH
      000000AEH   SFRSYM    DATA     BYTE      TIM2_ARRL
      000000A6H   SFRSYM    DATA     BYTE      TIM3_ARRL
      00000087H   SFRSYM    DATA     BYTE      PCON
      000000E2H   SFRSYM    DATA     WORD      SV_US
      00000096H   SFRSYM    DATA     BYTE      TIM4_ARRL
      0000008EH   SFRSYM    DATA     BYTE      TIM5_ARRL
      000000B2H   SFRSYM    DATA     WORD      TIM2_CMTR
      00000088H   SFRSYM    DATA     BYTE      TCON
      000000AAH   SFRSYM    DATA     WORD      TIM2_CNTR
      000000A2H   SFRSYM    DATA     WORD      TIM3_CNTR
      00000092H   SFRSYM    DATA     WORD      TIM4_CNTR
      0000008AH   SFRSYM    DATA     WORD      TIM5_CNTR
      000000E5H   SFRSYM    DATA     BYTE      SV_ANGLEH
      000000D8H   SFRSYM    DATA     BIT       PUART0
      000000E4H   SFRSYM    DATA     BYTE      SV_ANGLEL
      000000C6H   SFRSYM    DATA     WORD      MD_DAH
      000000D8H.1 SFRSYM    DATA     BIT       PUART1
      000000D8H.2 SFRSYM    DATA     BIT       PI2C0
      00000088H.2 SFRSYM    DATA     BIT       IF0
      000000CEH   SFRSYM    DATA     WORD      MD_DBH
      000000D8H.3 SFRSYM    DATA     BIT       PI2C1
      000000F0H   SFRSYM    DATA     BYTE      B
      000000C4H   SFRSYM    DATA     WORD      MD_DAL
      000000A1H   SFRSYM    DATA     BYTE      TIM2_CR0
      000000CCH   SFRSYM    DATA     WORD      MD_DBL
      0000009CH   SFRSYM    DATA     BYTE      TIM3_CR0
      000000A9H   SFRSYM    DATA     BYTE      TIM2_CR1
      0000009EH   SFRSYM    DATA     BYTE      TIM4_CR0
      0000009DH   SFRSYM    DATA     BYTE      TIM3_CR1
      00000089H   SFRSYM    DATA     BYTE      TIM5_CR0
      0000009FH   SFRSYM    DATA     BYTE      TIM4_CR1
      000000F8H   SFRSYM    DATA     BYTE      DRV_OUT
      00000091H   SFRSYM    DATA     BYTE      TIM5_CR1
      000000E0H   SFRSYM    DATA     BYTE      ACC
      000000F7H   SFRSYM    DATA     BYTE      PI_UKMINH
      000000C3H   SFRSYM    DATA     BYTE      MD_MAH
      000000A8H.4 SFRSYM    DATA     BIT       ES0
      000000DBH   SFRSYM    DATA     BYTE      LVSR
      000000CBH   SFRSYM    DATA     BYTE      MD_MBH
      000000C0H.4 SFRSYM    DATA     BIT       PADC0
      000000B8H   SFRSYM    DATA     BYTE      IP0
      000000F5H   SFRSYM    DATA     BYTE      PI_UKMAXH
      000000C0H.5 SFRSYM    DATA     BIT       PADC1
      000000C0H   SFRSYM    DATA     BYTE      IP1
      000000C8H   SFRSYM    DATA     BYTE      IP2
      000000F6H   SFRSYM    DATA     BYTE      PI_UKMINL
      000000C2H   SFRSYM    DATA     BYTE      MD_MAL
      00000098H.2 SFRSYM    DATA     BIT       RB8
      000000D8H   SFRSYM    DATA     BYTE      IP3
      000000CAH   SFRSYM    DATA     BYTE      MD_MBL
      000000A8H   SFRSYM    DATA     BIT       EX0
      000000F4H   SFRSYM    DATA     BYTE      PI_UKMAXL
      00000098H.3 SFRSYM    DATA     BIT       TB8
      000000B7H   SFRSYM    DATA     BYTE      TIM0_CCR1H
LX51 LINKER/LOCATER V4.66.1.0                                                         08/07/2017  15:30:51  PAGE 85


      000000A8H.2 SFRSYM    DATA     BIT       EX1
      000000BBH   SFRSYM    DATA     BYTE      TIM0_CCR2H
      000000D0H   SFRSYM    DATA     BIT       P
      000000BDH   SFRSYM    DATA     BYTE      TIM0_CCR3H
      000000BFH   SFRSYM    DATA     BYTE      TIM0_CCR4H
      000000C8H.2 SFRSYM    DATA     BIT       PTIM230
      000000EBH   SFRSYM    DATA     BYTE      PI_EKH
      00000098H.5 SFRSYM    DATA     BIT       SM2
      000000B6H   SFRSYM    DATA     BYTE      TIM0_CCR1L
      000000B1H   SFRSYM    DATA     BYTE      TIM0_SR1
      000000C8H.3 SFRSYM    DATA     BIT       PTIM231
      000000BAH   SFRSYM    DATA     BYTE      TIM0_CCR2L
      000000BCH   SFRSYM    DATA     BYTE      TIM0_CCR3L
      000000BEH   SFRSYM    DATA     BYTE      TIM0_CCR4L
      000000D8H.6 SFRSYM    DATA     BIT       PMCD0
      000000C8H.4 SFRSYM    DATA     BIT       PTIM450
      000000D0H.3 SFRSYM    DATA     BIT       RS0
      000000DDH   SFRSYM    DATA     BYTE      LPF_KH
      000000F3H   SFRSYM    DATA     BYTE      PI_KIH
      000000EAH   SFRSYM    DATA     BYTE      PI_EKL
      000000E8H   SFRSYM    DATA     BYTE      FOC_SET0
      000000D8H.7 SFRSYM    DATA     BIT       PMCD1
      000000C8H.5 SFRSYM    DATA     BIT       PTIM451
      000000D0H.4 SFRSYM    DATA     BIT       RS1
      000000E9H   SFRSYM    DATA     BYTE      FOC_SET1
      000000B8H.6 SFRSYM    DATA     BIT       PFOC0
      000000DCH   SFRSYM    DATA     BYTE      LPF_KL
      000000F2H   SFRSYM    DATA     BYTE      PI_KIL
      000000B8H.7 SFRSYM    DATA     BIT       PFOC1
      000000ADH   SFRSYM    DATA     BYTE      TIM2_DRH
      000000B9H   SFRSYM    DATA     BYTE      TIM0_IER
      00000083H   SFRSYM    DATA     BYTE      DPH
      000000EFH   SFRSYM    DATA     BYTE      PI_KPH
      000000A5H   SFRSYM    DATA     BYTE      TIM3_DRH
      00000095H   SFRSYM    DATA     BYTE      TIM4_DRH
      0000008DH   SFRSYM    DATA     BYTE      TIM5_DRH
      000000ACH   SFRSYM    DATA     BYTE      TIM2_DRL
      00000082H   SFRSYM    DATA     BYTE      DPL
      000000EEH   SFRSYM    DATA     BYTE      PI_KPL
      000000A4H   SFRSYM    DATA     BYTE      TIM3_DRL
      000000F8H.7 SFRSYM    DATA     BIT       MOE
      000000C0H.6 SFRSYM    DATA     BIT       PCMP0
      000000EDH   SFRSYM    DATA     BYTE      PI_UKH
      00000094H   SFRSYM    DATA     BYTE      TIM4_DRL
      000000C0H.7 SFRSYM    DATA     BIT       PCMP1
      000000DFH   SFRSYM    DATA     BYTE      LPF_XH
      0000008CH   SFRSYM    DATA     BYTE      TIM5_DRL
      000000AEH   SFRSYM    DATA     WORD      TIM2_ARR
      000000A8H.5 SFRSYM    DATA     BIT       MCDIE
      000000C9H   SFRSYM    DATA     BYTE      RSTSRC
      000000E7H   SFRSYM    DATA     BYTE      LPF_YH
      000000A6H   SFRSYM    DATA     WORD      TIM3_ARR
      00000088H.6 SFRSYM    DATA     BIT       MCDIF
      00000098H.4 SFRSYM    DATA     BIT       REN
      00000096H   SFRSYM    DATA     WORD      TIM4_ARR
      000000ECH   SFRSYM    DATA     BYTE      PI_UKL
      000000D7H   SFRSYM    DATA     BYTE      CMP_SR
      0000008EH   SFRSYM    DATA     WORD      TIM5_ARR
      000000DEH   SFRSYM    DATA     BYTE      LPF_XL
      000000E6H   SFRSYM    DATA     BYTE      LPF_YL
      000000C8H   SFRSYM    DATA     BIT       PRTC0
      000000C8H.1 SFRSYM    DATA     BIT       PRTC1
      000000E8H.7 SFRSYM    DATA     BIT       FOCEN
      000000C8H.6 SFRSYM    DATA     BIT       PTSD0
      000000D8H.4 SFRSYM    DATA     BIT       PSPI0
LX51 LINKER/LOCATER V4.66.1.0                                                         08/07/2017  15:30:51  PAGE 86


      000000C8H.7 SFRSYM    DATA     BIT       PTSD1
      000000D8H.5 SFRSYM    DATA     BIT       PSPI1
      0000009BH   SFRSYM    DATA     BYTE      UT_BAUDH
      000000E4H   SFRSYM    DATA     WORD      SV_ANGLE
      000000B5H   SFRSYM    DATA     BYTE      TIM2_ADTRH
      0000009AH   SFRSYM    DATA     BYTE      UT_BAUDL
      000000FCH   SFRSYM    DATA     BYTE      P0_OE
      000000FDH   SFRSYM    DATA     BYTE      P1_OE
      000000D0H.5 SFRSYM    DATA     BIT       F0
      000000B4H   SFRSYM    DATA     BYTE      TIM2_ADTRL
      000000FEH   SFRSYM    DATA     BYTE      P2_OE
      000000D0H.1 SFRSYM    DATA     BIT       F1
      00000080H   SFRSYM    DATA     BIT       GP00
      000000FFH   SFRSYM    DATA     BYTE      P3_OE
      00000090H   SFRSYM    DATA     BIT       GP10
      00000080H.1 SFRSYM    DATA     BIT       GP01
      000000A8H.6 SFRSYM    DATA     BIT       RTCIE
      000000A0H   SFRSYM    DATA     BIT       GP20
      00000090H.1 SFRSYM    DATA     BIT       GP11
      00000080H.2 SFRSYM    DATA     BIT       GP02
      000000E3H   SFRSYM    DATA     BYTE      SV_USH
      000000B0H   SFRSYM    DATA     BIT       GP30
      000000A0H.1 SFRSYM    DATA     BIT       GP21
      00000090H.2 SFRSYM    DATA     BIT       GP12
      00000080H.3 SFRSYM    DATA     BIT       GP03
      000000B8H   SFRSYM    DATA     BIT       PLVW0
      000000A8H.1 SFRSYM    DATA     BIT       TSDIE
      000000D0H   SFRSYM    DATA     BYTE      PSW
      000000B0H.1 SFRSYM    DATA     BIT       GP31
      000000A0H.2 SFRSYM    DATA     BIT       GP22
      00000090H.3 SFRSYM    DATA     BIT       GP13
      00000080H.4 SFRSYM    DATA     BIT       GP04
      000000B8H.1 SFRSYM    DATA     BIT       PLVW1
      000000A8H.3 SFRSYM    DATA     BIT       SPIIE
      00000088H.5 SFRSYM    DATA     BIT       TSDIF
      000000B0H.2 SFRSYM    DATA     BIT       GP32
      000000A0H.3 SFRSYM    DATA     BIT       GP23
      00000090H.4 SFRSYM    DATA     BIT       GP14
      00000080H.5 SFRSYM    DATA     BIT       GP05
      00000084H   SFRSYM    DATA     BYTE      FLKEY
      000000B3H   SFRSYM    DATA     BYTE      TIM2_CMTRH
      000000B0H.3 SFRSYM    DATA     BIT       GP33
      000000A0H.4 SFRSYM    DATA     BIT       GP24
      00000090H.5 SFRSYM    DATA     BIT       GP15
      00000080H.6 SFRSYM    DATA     BIT       GP06
      00000088H   SFRSYM    DATA     BIT       IT00

      01002811H   BLOCK     CODE     ---       LVL=0
      00000001H   SYMBOL    DATA     BYTE      value
      01002814H   BLOCK     CODE     NEAR LAB  LVL=1
      00000006H   SYMBOL    DATA     WORD      temp
      ---         BLOCKEND  ---      ---       LVL=1
      01002811H   LINE      CODE     ---       #33
      01002814H   LINE      CODE     ---       #34
      01002814H   LINE      CODE     ---       #36
      01002818H   LINE      CODE     ---       #37
      0100281BH   LINE      CODE     ---       #38
      0100281BH   LINE      CODE     ---       #39
      01002828H   LINE      CODE     ---       #40
      01002828H   LINE      CODE     ---       #41
      01002838H   LINE      CODE     ---       #42
      01002838H   LINE      CODE     ---       #43
      0100284CH   LINE      CODE     ---       #44
      0100284CH   LINE      CODE     ---       #45
      01002851H   LINE      CODE     ---       #46
LX51 LINKER/LOCATER V4.66.1.0                                                         08/07/2017  15:30:51  PAGE 87


      01002855H   LINE      CODE     ---       #47
      01002857H   LINE      CODE     ---       #48
      01002857H   LINE      CODE     ---       #49
      01002858H   LINE      CODE     ---       #51
      01002858H   LINE      CODE     ---       #56
      0100286CH   LINE      CODE     ---       #57
      0100286CH   LINE      CODE     ---       #58
      01002871H   LINE      CODE     ---       #59
      01002873H   LINE      CODE     ---       #60
      01002873H   LINE      CODE     ---       #62
      01002873H   LINE      CODE     ---       #63
      01002873H   LINE      CODE     ---       #64
      01002874H   LINE      CODE     ---       #66
      01002874H   LINE      CODE     ---       #67
      0100287BH   LINE      CODE     ---       #68
      0100287BH   LINE      CODE     ---       #70
      ---         BLOCKEND  ---      ---       LVL=0

      0100002EH   BLOCK     CODE     ---       LVL=0
      0100002EH   LINE      CODE     ---       #79
      0100002EH   LINE      CODE     ---       #80
      0100002EH   LINE      CODE     ---       #218
      ---         BLOCKEND  ---      ---       LVL=0

      ---         MODULE    ---      ---       FU68XX_SYS
      010029AAH   PUBLIC    CODE     ---       Driver_Init
      01003084H   PUBLIC    CODE     ---       fu68xx_xram_erase
      01000006H   PUBLIC    CODE     ---       SystemInit
      000000E2H   SFRSYM    DATA     BYTE      SV_USL
      000000ABH   SFRSYM    DATA     BYTE      TIM2_CNTRH
      000000B0H.4 SFRSYM    DATA     BIT       GP34
      000000A0H.5 SFRSYM    DATA     BIT       GP25
      00000090H.6 SFRSYM    DATA     BIT       GP16
      00000080H.7 SFRSYM    DATA     BIT       GP07
      00000088H.1 SFRSYM    DATA     BIT       IT01
      00000088H.3 SFRSYM    DATA     BIT       IT10
      000000F6H   SFRSYM    DATA     WORD      PI_UKMIN
      000000C2H   SFRSYM    DATA     WORD      MD_MA
      000000A3H   SFRSYM    DATA     BYTE      TIM3_CNTRH
      000000B0H.5 SFRSYM    DATA     BIT       GP35
      000000A0H.6 SFRSYM    DATA     BIT       GP26
      00000090H.7 SFRSYM    DATA     BIT       GP17
      00000080H   SFRSYM    DATA     BYTE      P0
      00000088H.4 SFRSYM    DATA     BIT       IT11
      000000CAH   SFRSYM    DATA     WORD      MD_MB
      00000093H   SFRSYM    DATA     BYTE      TIM4_CNTRH
      000000B0H.6 SFRSYM    DATA     BIT       GP36
      000000A0H.7 SFRSYM    DATA     BIT       GP27
      00000090H   SFRSYM    DATA     BYTE      P1
      000000D9H   SFRSYM    DATA     BYTE      EVT_FILT
      000000F4H   SFRSYM    DATA     WORD      PI_UKMAX
      0000008BH   SFRSYM    DATA     BYTE      TIM5_CNTRH
      000000B2H   SFRSYM    DATA     BYTE      TIM2_CMTRL
      000000B0H.7 SFRSYM    DATA     BIT       GP37
      000000A0H   SFRSYM    DATA     BYTE      P2
      000000AAH   SFRSYM    DATA     BYTE      TIM2_CNTRL
      000000B0H   SFRSYM    DATA     BYTE      P3
      000000A2H   SFRSYM    DATA     BYTE      TIM3_CNTRL
      000000D0H.6 SFRSYM    DATA     BIT       AC
      00000092H   SFRSYM    DATA     BYTE      TIM4_CNTRL
      0000008AH   SFRSYM    DATA     BYTE      TIM5_CNTRL
      000000B6H   SFRSYM    DATA     WORD      TIM0_CCR1
      000000A8H.7 SFRSYM    DATA     BIT       EA
      000000D5H   SFRSYM    DATA     BYTE      CMP_CR0
      000000BAH   SFRSYM    DATA     WORD      TIM0_CCR2
LX51 LINKER/LOCATER V4.66.1.0                                                         08/07/2017  15:30:51  PAGE 88


      000000D6H   SFRSYM    DATA     BYTE      CMP_CR1
      000000BCH   SFRSYM    DATA     WORD      TIM0_CCR3
      00000085H   SFRSYM    DATA     BYTE      PSCTL
      000000DAH   SFRSYM    DATA     BYTE      CMP_CR2
      000000BEH   SFRSYM    DATA     WORD      TIM0_CCR4
      000000B8H.2 SFRSYM    DATA     BIT       PX00
      000000EAH   SFRSYM    DATA     WORD      PI_EK
      000000F8H   SFRSYM    DATA     BIT       OISUH
      000000B8H.3 SFRSYM    DATA     BIT       PX01
      000000B8H.4 SFRSYM    DATA     BIT       PX10
      000000F8H.2 SFRSYM    DATA     BIT       OISVH
      000000B8H.5 SFRSYM    DATA     BIT       PX11
      000000F8H.4 SFRSYM    DATA     BIT       OISWH
      000000DCH   SFRSYM    DATA     WORD      LPF_K
      000000F2H   SFRSYM    DATA     WORD      PI_KI
      000000F8H.1 SFRSYM    DATA     BIT       OISUL
      000000A8H   SFRSYM    DATA     BYTE      IE
      000000F8H.3 SFRSYM    DATA     BIT       OISVL
      000000F8H.5 SFRSYM    DATA     BIT       OISWL
      000000D1H   SFRSYM    DATA     BYTE      P1IE
      00000098H.6 SFRSYM    DATA     BIT       MOD0
      000000D3H   SFRSYM    DATA     BYTE      P2IE
      000000D2H   SFRSYM    DATA     BYTE      P1IF
      000000F9H   SFRSYM    DATA     BYTE      PL_CR
      00000098H.7 SFRSYM    DATA     BIT       MOD1
      000000D4H   SFRSYM    DATA     BYTE      P2IF
      000000ACH   SFRSYM    DATA     WORD      TIM2_DR
      00000082H   SFRSYM    DATA     WORD      DP
      000000EEH   SFRSYM    DATA     WORD      PI_KP
      000000A4H   SFRSYM    DATA     WORD      TIM3_DR
      00000094H   SFRSYM    DATA     WORD      TIM4_DR
      0000008CH   SFRSYM    DATA     WORD      TIM5_DR
      000000F1H   SFRSYM    DATA     BYTE      OSC_CFG
      000000C1H   SFRSYM    DATA     BYTE      MD_MODE
      000000ECH   SFRSYM    DATA     WORD      PI_UK
      000000DEH   SFRSYM    DATA     WORD      LPF_X
      00000098H   SFRSYM    DATA     BIT       RI
      000000E6H   SFRSYM    DATA     WORD      LPF_Y
      000000C0H   SFRSYM    DATA     BIT       PTIM00
      000000D0H.7 SFRSYM    DATA     BIT       CY
      00000098H.1 SFRSYM    DATA     BIT       TI
      000000C0H.1 SFRSYM    DATA     BIT       PTIM01
      000000C0H.2 SFRSYM    DATA     BIT       PTIM10
      000000C0H.3 SFRSYM    DATA     BIT       PTIM11
      000000E1H   SFRSYM    DATA     BYTE      SV_CR
      00000098H   SFRSYM    DATA     BYTE      UT_CR
      00000099H   SFRSYM    DATA     BYTE      UT_DR
      000000F8H.6 SFRSYM    DATA     BIT       OIS4
      00000081H   SFRSYM    DATA     BYTE      SP
      000000D0H.2 SFRSYM    DATA     BIT       OV
      000000C4H   SFRSYM    DATA     BYTE      MD_DA0
      0000009AH   SFRSYM    DATA     WORD      UT_BAUD
      000000CCH   SFRSYM    DATA     BYTE      MD_DB0
      000000C5H   SFRSYM    DATA     BYTE      MD_DA1
      000000CDH   SFRSYM    DATA     BYTE      MD_DB1
      000000C6H   SFRSYM    DATA     BYTE      MD_DA2
      000000CEH   SFRSYM    DATA     BYTE      MD_DB2
      000000C7H   SFRSYM    DATA     BYTE      MD_DA3
      000000B4H   SFRSYM    DATA     WORD      TIM2_ADTR
      000000CFH   SFRSYM    DATA     BYTE      MD_DB3
      000000AFH   SFRSYM    DATA     BYTE      TIM2_ARRH
      000000A7H   SFRSYM    DATA     BYTE      TIM3_ARRH
      00000097H   SFRSYM    DATA     BYTE      TIM4_ARRH
      0000008FH   SFRSYM    DATA     BYTE      TIM5_ARRH
      000000AEH   SFRSYM    DATA     BYTE      TIM2_ARRL
LX51 LINKER/LOCATER V4.66.1.0                                                         08/07/2017  15:30:51  PAGE 89


      000000A6H   SFRSYM    DATA     BYTE      TIM3_ARRL
      00000087H   SFRSYM    DATA     BYTE      PCON
      000000E2H   SFRSYM    DATA     WORD      SV_US
      00000096H   SFRSYM    DATA     BYTE      TIM4_ARRL
      0000008EH   SFRSYM    DATA     BYTE      TIM5_ARRL
      000000B2H   SFRSYM    DATA     WORD      TIM2_CMTR
      00000088H   SFRSYM    DATA     BYTE      TCON
      000000AAH   SFRSYM    DATA     WORD      TIM2_CNTR
      000000A2H   SFRSYM    DATA     WORD      TIM3_CNTR
      00000092H   SFRSYM    DATA     WORD      TIM4_CNTR
      0000008AH   SFRSYM    DATA     WORD      TIM5_CNTR
      000000E5H   SFRSYM    DATA     BYTE      SV_ANGLEH
      000000D8H   SFRSYM    DATA     BIT       PUART0
      000000E4H   SFRSYM    DATA     BYTE      SV_ANGLEL
      000000C6H   SFRSYM    DATA     WORD      MD_DAH
      000000D8H.1 SFRSYM    DATA     BIT       PUART1
      000000D8H.2 SFRSYM    DATA     BIT       PI2C0
      00000088H.2 SFRSYM    DATA     BIT       IF0
      000000CEH   SFRSYM    DATA     WORD      MD_DBH
      000000D8H.3 SFRSYM    DATA     BIT       PI2C1
      000000F0H   SFRSYM    DATA     BYTE      B
      000000C4H   SFRSYM    DATA     WORD      MD_DAL
      000000A1H   SFRSYM    DATA     BYTE      TIM2_CR0
      000000CCH   SFRSYM    DATA     WORD      MD_DBL
      0000009CH   SFRSYM    DATA     BYTE      TIM3_CR0
      000000A9H   SFRSYM    DATA     BYTE      TIM2_CR1
      0000009EH   SFRSYM    DATA     BYTE      TIM4_CR0
      0000009DH   SFRSYM    DATA     BYTE      TIM3_CR1
      00000089H   SFRSYM    DATA     BYTE      TIM5_CR0
      0000009FH   SFRSYM    DATA     BYTE      TIM4_CR1
      000000F8H   SFRSYM    DATA     BYTE      DRV_OUT
      00000091H   SFRSYM    DATA     BYTE      TIM5_CR1
      000000E0H   SFRSYM    DATA     BYTE      ACC
      000000F7H   SFRSYM    DATA     BYTE      PI_UKMINH
      000000C3H   SFRSYM    DATA     BYTE      MD_MAH
      000000A8H.4 SFRSYM    DATA     BIT       ES0
      000000DBH   SFRSYM    DATA     BYTE      LVSR
      000000CBH   SFRSYM    DATA     BYTE      MD_MBH
      000000C0H.4 SFRSYM    DATA     BIT       PADC0
      000000B8H   SFRSYM    DATA     BYTE      IP0
      000000F5H   SFRSYM    DATA     BYTE      PI_UKMAXH
      000000C0H.5 SFRSYM    DATA     BIT       PADC1
      000000C0H   SFRSYM    DATA     BYTE      IP1
      000000C8H   SFRSYM    DATA     BYTE      IP2
      000000F6H   SFRSYM    DATA     BYTE      PI_UKMINL
      000000C2H   SFRSYM    DATA     BYTE      MD_MAL
      00000098H.2 SFRSYM    DATA     BIT       RB8
      000000D8H   SFRSYM    DATA     BYTE      IP3
      000000CAH   SFRSYM    DATA     BYTE      MD_MBL
      000000A8H   SFRSYM    DATA     BIT       EX0
      000000F4H   SFRSYM    DATA     BYTE      PI_UKMAXL
      00000098H.3 SFRSYM    DATA     BIT       TB8
      000000B7H   SFRSYM    DATA     BYTE      TIM0_CCR1H
      000000A8H.2 SFRSYM    DATA     BIT       EX1
      000000BBH   SFRSYM    DATA     BYTE      TIM0_CCR2H
      000000D0H   SFRSYM    DATA     BIT       P
      000000BDH   SFRSYM    DATA     BYTE      TIM0_CCR3H
      000000BFH   SFRSYM    DATA     BYTE      TIM0_CCR4H
      000000C8H.2 SFRSYM    DATA     BIT       PTIM230
      000000EBH   SFRSYM    DATA     BYTE      PI_EKH
      00000098H.5 SFRSYM    DATA     BIT       SM2
      000000B6H   SFRSYM    DATA     BYTE      TIM0_CCR1L
      000000B1H   SFRSYM    DATA     BYTE      TIM0_SR1
      000000C8H.3 SFRSYM    DATA     BIT       PTIM231
      000000BAH   SFRSYM    DATA     BYTE      TIM0_CCR2L
LX51 LINKER/LOCATER V4.66.1.0                                                         08/07/2017  15:30:51  PAGE 90


      000000BCH   SFRSYM    DATA     BYTE      TIM0_CCR3L
      000000BEH   SFRSYM    DATA     BYTE      TIM0_CCR4L
      000000D8H.6 SFRSYM    DATA     BIT       PMCD0
      000000C8H.4 SFRSYM    DATA     BIT       PTIM450
      000000D0H.3 SFRSYM    DATA     BIT       RS0
      000000DDH   SFRSYM    DATA     BYTE      LPF_KH
      000000F3H   SFRSYM    DATA     BYTE      PI_KIH
      000000EAH   SFRSYM    DATA     BYTE      PI_EKL
      000000E8H   SFRSYM    DATA     BYTE      FOC_SET0
      000000D8H.7 SFRSYM    DATA     BIT       PMCD1
      000000C8H.5 SFRSYM    DATA     BIT       PTIM451
      000000D0H.4 SFRSYM    DATA     BIT       RS1
      000000E9H   SFRSYM    DATA     BYTE      FOC_SET1
      000000B8H.6 SFRSYM    DATA     BIT       PFOC0
      000000DCH   SFRSYM    DATA     BYTE      LPF_KL
      000000F2H   SFRSYM    DATA     BYTE      PI_KIL
      000000B8H.7 SFRSYM    DATA     BIT       PFOC1
      000000ADH   SFRSYM    DATA     BYTE      TIM2_DRH
      000000B9H   SFRSYM    DATA     BYTE      TIM0_IER
      00000083H   SFRSYM    DATA     BYTE      DPH
      000000EFH   SFRSYM    DATA     BYTE      PI_KPH
      000000A5H   SFRSYM    DATA     BYTE      TIM3_DRH
      00000095H   SFRSYM    DATA     BYTE      TIM4_DRH
      0000008DH   SFRSYM    DATA     BYTE      TIM5_DRH
      000000ACH   SFRSYM    DATA     BYTE      TIM2_DRL
      00000082H   SFRSYM    DATA     BYTE      DPL
      000000EEH   SFRSYM    DATA     BYTE      PI_KPL
      000000A4H   SFRSYM    DATA     BYTE      TIM3_DRL
      000000F8H.7 SFRSYM    DATA     BIT       MOE
      000000C0H.6 SFRSYM    DATA     BIT       PCMP0
      000000EDH   SFRSYM    DATA     BYTE      PI_UKH
      00000094H   SFRSYM    DATA     BYTE      TIM4_DRL
      000000C0H.7 SFRSYM    DATA     BIT       PCMP1
      000000DFH   SFRSYM    DATA     BYTE      LPF_XH
      0000008CH   SFRSYM    DATA     BYTE      TIM5_DRL
      000000AEH   SFRSYM    DATA     WORD      TIM2_ARR
      000000A8H.5 SFRSYM    DATA     BIT       MCDIE
      000000C9H   SFRSYM    DATA     BYTE      RSTSRC
      000000E7H   SFRSYM    DATA     BYTE      LPF_YH
      000000A6H   SFRSYM    DATA     WORD      TIM3_ARR
      00000088H.6 SFRSYM    DATA     BIT       MCDIF
      00000098H.4 SFRSYM    DATA     BIT       REN
      00000096H   SFRSYM    DATA     WORD      TIM4_ARR
      000000ECH   SFRSYM    DATA     BYTE      PI_UKL
      000000D7H   SFRSYM    DATA     BYTE      CMP_SR
      0000008EH   SFRSYM    DATA     WORD      TIM5_ARR
      000000DEH   SFRSYM    DATA     BYTE      LPF_XL
      000000E6H   SFRSYM    DATA     BYTE      LPF_YL
      000000C8H   SFRSYM    DATA     BIT       PRTC0
      000000C8H.1 SFRSYM    DATA     BIT       PRTC1
      000000E8H.7 SFRSYM    DATA     BIT       FOCEN
      000000C8H.6 SFRSYM    DATA     BIT       PTSD0
      000000D8H.4 SFRSYM    DATA     BIT       PSPI0
      000000C8H.7 SFRSYM    DATA     BIT       PTSD1
      000000D8H.5 SFRSYM    DATA     BIT       PSPI1
      0000009BH   SFRSYM    DATA     BYTE      UT_BAUDH
      000000E4H   SFRSYM    DATA     WORD      SV_ANGLE
      000000B5H   SFRSYM    DATA     BYTE      TIM2_ADTRH
      0000009AH   SFRSYM    DATA     BYTE      UT_BAUDL
      000000FCH   SFRSYM    DATA     BYTE      P0_OE
      000000FDH   SFRSYM    DATA     BYTE      P1_OE
      000000D0H.5 SFRSYM    DATA     BIT       F0
      000000B4H   SFRSYM    DATA     BYTE      TIM2_ADTRL
      000000FEH   SFRSYM    DATA     BYTE      P2_OE
      000000D0H.1 SFRSYM    DATA     BIT       F1
LX51 LINKER/LOCATER V4.66.1.0                                                         08/07/2017  15:30:51  PAGE 91


      00000080H   SFRSYM    DATA     BIT       GP00
      000000FFH   SFRSYM    DATA     BYTE      P3_OE
      00000090H   SFRSYM    DATA     BIT       GP10
      00000080H.1 SFRSYM    DATA     BIT       GP01
      000000A8H.6 SFRSYM    DATA     BIT       RTCIE
      000000A0H   SFRSYM    DATA     BIT       GP20
      00000090H.1 SFRSYM    DATA     BIT       GP11
      00000080H.2 SFRSYM    DATA     BIT       GP02
      000000E3H   SFRSYM    DATA     BYTE      SV_USH
      000000B0H   SFRSYM    DATA     BIT       GP30
      000000A0H.1 SFRSYM    DATA     BIT       GP21
      00000090H.2 SFRSYM    DATA     BIT       GP12
      00000080H.3 SFRSYM    DATA     BIT       GP03
      000000B8H   SFRSYM    DATA     BIT       PLVW0
      000000A8H.1 SFRSYM    DATA     BIT       TSDIE
      000000D0H   SFRSYM    DATA     BYTE      PSW
      000000B0H.1 SFRSYM    DATA     BIT       GP31
      000000A0H.2 SFRSYM    DATA     BIT       GP22
      00000090H.3 SFRSYM    DATA     BIT       GP13
      00000080H.4 SFRSYM    DATA     BIT       GP04
      000000B8H.1 SFRSYM    DATA     BIT       PLVW1
      000000A8H.3 SFRSYM    DATA     BIT       SPIIE
      00000088H.5 SFRSYM    DATA     BIT       TSDIF
      000000B0H.2 SFRSYM    DATA     BIT       GP32
      000000A0H.3 SFRSYM    DATA     BIT       GP23
      00000090H.4 SFRSYM    DATA     BIT       GP14
      00000080H.5 SFRSYM    DATA     BIT       GP05
      00000084H   SFRSYM    DATA     BYTE      FLKEY
      000000B3H   SFRSYM    DATA     BYTE      TIM2_CMTRH
      000000B0H.3 SFRSYM    DATA     BIT       GP33
      000000A0H.4 SFRSYM    DATA     BIT       GP24
      00000090H.5 SFRSYM    DATA     BIT       GP15
      00000080H.6 SFRSYM    DATA     BIT       GP06
      00000088H   SFRSYM    DATA     BIT       IT00

      01000006H   BLOCK     CODE     ---       LVL=0
      01000006H   LINE      CODE     ---       #9
      01000006H   LINE      CODE     ---       #10
      01000006H   LINE      CODE     ---       #13
      01000009H   LINE      CODE     ---       #17
      0100000CH   LINE      CODE     ---       #22
      01000013H   LINE      CODE     ---       #23
      0100001AH   LINE      CODE     ---       #37
      0100001DH   LINE      CODE     ---       #42
      01000020H   LINE      CODE     ---       #51
      01000023H   LINE      CODE     ---       #52
      01000026H   LINE      CODE     ---       #53
      01000029H   LINE      CODE     ---       #54
      ---         BLOCKEND  ---      ---       LVL=0

      01003084H   BLOCK     CODE     ---       LVL=0
      01003084H   BLOCK     CODE     NEAR LAB  LVL=1
      00000082H   SYMBOL    DATA     ---       port
      ---         BLOCKEND  ---      ---       LVL=1
      01003084H   LINE      CODE     ---       #65
      01003084H   LINE      CODE     ---       #66
      01003084H   LINE      CODE     ---       #69
      01003087H   LINE      CODE     ---       #70
      01003094H   LINE      CODE     ---       #71
      01003094H   LINE      CODE     ---       #72
      01003096H   LINE      CODE     ---       #73
      01003097H   LINE      CODE     ---       #74
      01003099H   LINE      CODE     ---       #75
      ---         BLOCKEND  ---      ---       LVL=0

LX51 LINKER/LOCATER V4.66.1.0                                                         08/07/2017  15:30:51  PAGE 92


      010029AAH   BLOCK     CODE     ---       LVL=0
      010029AAH   BLOCK     CODE     NEAR LAB  LVL=1
      02000211H   SYMBOL    XDATA    DWORD     PRDRVCnt
      ---         BLOCKEND  ---      ---       LVL=1
      010029AAH   LINE      CODE     ---       #84
      010029AAH   LINE      CODE     ---       #85
      010029AAH   LINE      CODE     ---       #95
      010029B1H   LINE      CODE     ---       #96
      010029B5H   LINE      CODE     ---       #98
      010029B9H   LINE      CODE     ---       #99
      010029F1H   LINE      CODE     ---       #101
      010029F8H   LINE      CODE     ---       #106
      010029FAH   LINE      CODE     ---       #107
      010029FCH   LINE      CODE     ---       #108
      010029FEH   LINE      CODE     ---       #109
      01002A00H   LINE      CODE     ---       #110
      01002A02H   LINE      CODE     ---       #111
      01002A04H   LINE      CODE     ---       #112
      ---         BLOCKEND  ---      ---       LVL=0

      ---         MODULE    ---      ---       FU68XX_DMC
      02000220H   PUBLIC    XDATA    ---       MDUControl
      01000EB0H   PUBLIC    CODE     ---       MDUAPP
      010030B0H   PUBLIC    CODE     ---       MDUControlInit
      01003100H   PUBLIC    CODE     ---       MDUInit
      01002E5FH   PUBLIC    CODE     ---       PDEventPeriodCalc
      000000E2H   SFRSYM    DATA     BYTE      SV_USL
      000000ABH   SFRSYM    DATA     BYTE      TIM2_CNTRH
      000000B0H.4 SFRSYM    DATA     BIT       GP34
      000000A0H.5 SFRSYM    DATA     BIT       GP25
      00000090H.6 SFRSYM    DATA     BIT       GP16
      00000080H.7 SFRSYM    DATA     BIT       GP07
      00000088H.1 SFRSYM    DATA     BIT       IT01
      00000088H.3 SFRSYM    DATA     BIT       IT10
      000000F6H   SFRSYM    DATA     WORD      PI_UKMIN
      000000C2H   SFRSYM    DATA     WORD      MD_MA
      000000A3H   SFRSYM    DATA     BYTE      TIM3_CNTRH
      000000B0H.5 SFRSYM    DATA     BIT       GP35
      000000A0H.6 SFRSYM    DATA     BIT       GP26
      00000090H.7 SFRSYM    DATA     BIT       GP17
      00000080H   SFRSYM    DATA     BYTE      P0
      00000088H.4 SFRSYM    DATA     BIT       IT11
      000000CAH   SFRSYM    DATA     WORD      MD_MB
      00000093H   SFRSYM    DATA     BYTE      TIM4_CNTRH
      000000B0H.6 SFRSYM    DATA     BIT       GP36
      000000A0H.7 SFRSYM    DATA     BIT       GP27
      00000090H   SFRSYM    DATA     BYTE      P1
      000000D9H   SFRSYM    DATA     BYTE      EVT_FILT
      000000F4H   SFRSYM    DATA     WORD      PI_UKMAX
      0000008BH   SFRSYM    DATA     BYTE      TIM5_CNTRH
      000000B2H   SFRSYM    DATA     BYTE      TIM2_CMTRL
      000000B0H.7 SFRSYM    DATA     BIT       GP37
      000000A0H   SFRSYM    DATA     BYTE      P2
      000000AAH   SFRSYM    DATA     BYTE      TIM2_CNTRL
      000000B0H   SFRSYM    DATA     BYTE      P3
      000000A2H   SFRSYM    DATA     BYTE      TIM3_CNTRL
      000000D0H.6 SFRSYM    DATA     BIT       AC
      00000092H   SFRSYM    DATA     BYTE      TIM4_CNTRL
      0000008AH   SFRSYM    DATA     BYTE      TIM5_CNTRL
      000000B6H   SFRSYM    DATA     WORD      TIM0_CCR1
      000000A8H.7 SFRSYM    DATA     BIT       EA
      000000D5H   SFRSYM    DATA     BYTE      CMP_CR0
      000000BAH   SFRSYM    DATA     WORD      TIM0_CCR2
      000000D6H   SFRSYM    DATA     BYTE      CMP_CR1
      000000BCH   SFRSYM    DATA     WORD      TIM0_CCR3
LX51 LINKER/LOCATER V4.66.1.0                                                         08/07/2017  15:30:51  PAGE 93


      00000085H   SFRSYM    DATA     BYTE      PSCTL
      000000DAH   SFRSYM    DATA     BYTE      CMP_CR2
      000000BEH   SFRSYM    DATA     WORD      TIM0_CCR4
      000000B8H.2 SFRSYM    DATA     BIT       PX00
      000000EAH   SFRSYM    DATA     WORD      PI_EK
      000000F8H   SFRSYM    DATA     BIT       OISUH
      000000B8H.3 SFRSYM    DATA     BIT       PX01
      000000B8H.4 SFRSYM    DATA     BIT       PX10
      000000F8H.2 SFRSYM    DATA     BIT       OISVH
      000000B8H.5 SFRSYM    DATA     BIT       PX11
      000000F8H.4 SFRSYM    DATA     BIT       OISWH
      000000DCH   SFRSYM    DATA     WORD      LPF_K
      000000F2H   SFRSYM    DATA     WORD      PI_KI
      000000F8H.1 SFRSYM    DATA     BIT       OISUL
      000000A8H   SFRSYM    DATA     BYTE      IE
      000000F8H.3 SFRSYM    DATA     BIT       OISVL
      000000F8H.5 SFRSYM    DATA     BIT       OISWL
      000000D1H   SFRSYM    DATA     BYTE      P1IE
      00000098H.6 SFRSYM    DATA     BIT       MOD0
      000000D3H   SFRSYM    DATA     BYTE      P2IE
      000000D2H   SFRSYM    DATA     BYTE      P1IF
      000000F9H   SFRSYM    DATA     BYTE      PL_CR
      00000098H.7 SFRSYM    DATA     BIT       MOD1
      000000D4H   SFRSYM    DATA     BYTE      P2IF
      000000ACH   SFRSYM    DATA     WORD      TIM2_DR
      00000082H   SFRSYM    DATA     WORD      DP
      000000EEH   SFRSYM    DATA     WORD      PI_KP
      000000A4H   SFRSYM    DATA     WORD      TIM3_DR
      00000094H   SFRSYM    DATA     WORD      TIM4_DR
      0000008CH   SFRSYM    DATA     WORD      TIM5_DR
      000000F1H   SFRSYM    DATA     BYTE      OSC_CFG
      000000C1H   SFRSYM    DATA     BYTE      MD_MODE
      000000ECH   SFRSYM    DATA     WORD      PI_UK
      000000DEH   SFRSYM    DATA     WORD      LPF_X
      00000098H   SFRSYM    DATA     BIT       RI
      000000E6H   SFRSYM    DATA     WORD      LPF_Y
      000000C0H   SFRSYM    DATA     BIT       PTIM00
      000000D0H.7 SFRSYM    DATA     BIT       CY
      00000098H.1 SFRSYM    DATA     BIT       TI
      000000C0H.1 SFRSYM    DATA     BIT       PTIM01
      000000C0H.2 SFRSYM    DATA     BIT       PTIM10
      000000C0H.3 SFRSYM    DATA     BIT       PTIM11
      000000E1H   SFRSYM    DATA     BYTE      SV_CR
      00000098H   SFRSYM    DATA     BYTE      UT_CR
      00000099H   SFRSYM    DATA     BYTE      UT_DR
      000000F8H.6 SFRSYM    DATA     BIT       OIS4
      00000081H   SFRSYM    DATA     BYTE      SP
      000000D0H.2 SFRSYM    DATA     BIT       OV
      000000C4H   SFRSYM    DATA     BYTE      MD_DA0
      0000009AH   SFRSYM    DATA     WORD      UT_BAUD
      000000CCH   SFRSYM    DATA     BYTE      MD_DB0
      000000C5H   SFRSYM    DATA     BYTE      MD_DA1
      000000CDH   SFRSYM    DATA     BYTE      MD_DB1
      000000C6H   SFRSYM    DATA     BYTE      MD_DA2
      000000CEH   SFRSYM    DATA     BYTE      MD_DB2
      000000C7H   SFRSYM    DATA     BYTE      MD_DA3
      000000B4H   SFRSYM    DATA     WORD      TIM2_ADTR
      000000CFH   SFRSYM    DATA     BYTE      MD_DB3
      000000AFH   SFRSYM    DATA     BYTE      TIM2_ARRH
      000000A7H   SFRSYM    DATA     BYTE      TIM3_ARRH
      00000097H   SFRSYM    DATA     BYTE      TIM4_ARRH
      0000008FH   SFRSYM    DATA     BYTE      TIM5_ARRH
      000000AEH   SFRSYM    DATA     BYTE      TIM2_ARRL
      000000A6H   SFRSYM    DATA     BYTE      TIM3_ARRL
      00000087H   SFRSYM    DATA     BYTE      PCON
LX51 LINKER/LOCATER V4.66.1.0                                                         08/07/2017  15:30:51  PAGE 94


      000000E2H   SFRSYM    DATA     WORD      SV_US
      00000096H   SFRSYM    DATA     BYTE      TIM4_ARRL
      0000008EH   SFRSYM    DATA     BYTE      TIM5_ARRL
      000000B2H   SFRSYM    DATA     WORD      TIM2_CMTR
      00000088H   SFRSYM    DATA     BYTE      TCON
      000000AAH   SFRSYM    DATA     WORD      TIM2_CNTR
      000000A2H   SFRSYM    DATA     WORD      TIM3_CNTR
      00000092H   SFRSYM    DATA     WORD      TIM4_CNTR
      0000008AH   SFRSYM    DATA     WORD      TIM5_CNTR
      000000E5H   SFRSYM    DATA     BYTE      SV_ANGLEH
      000000D8H   SFRSYM    DATA     BIT       PUART0
      000000E4H   SFRSYM    DATA     BYTE      SV_ANGLEL
      000000C6H   SFRSYM    DATA     WORD      MD_DAH
      000000D8H.1 SFRSYM    DATA     BIT       PUART1
      000000D8H.2 SFRSYM    DATA     BIT       PI2C0
      00000088H.2 SFRSYM    DATA     BIT       IF0
      000000CEH   SFRSYM    DATA     WORD      MD_DBH
      000000D8H.3 SFRSYM    DATA     BIT       PI2C1
      000000F0H   SFRSYM    DATA     BYTE      B
      000000C4H   SFRSYM    DATA     WORD      MD_DAL
      000000A1H   SFRSYM    DATA     BYTE      TIM2_CR0
      000000CCH   SFRSYM    DATA     WORD      MD_DBL
      0000009CH   SFRSYM    DATA     BYTE      TIM3_CR0
      000000A9H   SFRSYM    DATA     BYTE      TIM2_CR1
      0000009EH   SFRSYM    DATA     BYTE      TIM4_CR0
      0000009DH   SFRSYM    DATA     BYTE      TIM3_CR1
      00000089H   SFRSYM    DATA     BYTE      TIM5_CR0
      0000009FH   SFRSYM    DATA     BYTE      TIM4_CR1
      000000F8H   SFRSYM    DATA     BYTE      DRV_OUT
      00000091H   SFRSYM    DATA     BYTE      TIM5_CR1
      000000E0H   SFRSYM    DATA     BYTE      ACC
      000000F7H   SFRSYM    DATA     BYTE      PI_UKMINH
      000000C3H   SFRSYM    DATA     BYTE      MD_MAH
      000000A8H.4 SFRSYM    DATA     BIT       ES0
      000000DBH   SFRSYM    DATA     BYTE      LVSR
      000000CBH   SFRSYM    DATA     BYTE      MD_MBH
      000000C0H.4 SFRSYM    DATA     BIT       PADC0
      000000B8H   SFRSYM    DATA     BYTE      IP0
      000000F5H   SFRSYM    DATA     BYTE      PI_UKMAXH
      000000C0H.5 SFRSYM    DATA     BIT       PADC1
      000000C0H   SFRSYM    DATA     BYTE      IP1
      000000C8H   SFRSYM    DATA     BYTE      IP2
      000000F6H   SFRSYM    DATA     BYTE      PI_UKMINL
      000000C2H   SFRSYM    DATA     BYTE      MD_MAL
      00000098H.2 SFRSYM    DATA     BIT       RB8
      000000D8H   SFRSYM    DATA     BYTE      IP3
      000000CAH   SFRSYM    DATA     BYTE      MD_MBL
      000000A8H   SFRSYM    DATA     BIT       EX0
      000000F4H   SFRSYM    DATA     BYTE      PI_UKMAXL
      00000098H.3 SFRSYM    DATA     BIT       TB8
      000000B7H   SFRSYM    DATA     BYTE      TIM0_CCR1H
      000000A8H.2 SFRSYM    DATA     BIT       EX1
      000000BBH   SFRSYM    DATA     BYTE      TIM0_CCR2H
      000000D0H   SFRSYM    DATA     BIT       P
      000000BDH   SFRSYM    DATA     BYTE      TIM0_CCR3H
      000000BFH   SFRSYM    DATA     BYTE      TIM0_CCR4H
      000000C8H.2 SFRSYM    DATA     BIT       PTIM230
      000000EBH   SFRSYM    DATA     BYTE      PI_EKH
      00000098H.5 SFRSYM    DATA     BIT       SM2
      000000B6H   SFRSYM    DATA     BYTE      TIM0_CCR1L
      000000B1H   SFRSYM    DATA     BYTE      TIM0_SR1
      000000C8H.3 SFRSYM    DATA     BIT       PTIM231
      000000BAH   SFRSYM    DATA     BYTE      TIM0_CCR2L
      000000BCH   SFRSYM    DATA     BYTE      TIM0_CCR3L
      000000BEH   SFRSYM    DATA     BYTE      TIM0_CCR4L
LX51 LINKER/LOCATER V4.66.1.0                                                         08/07/2017  15:30:51  PAGE 95


      000000D8H.6 SFRSYM    DATA     BIT       PMCD0
      000000C8H.4 SFRSYM    DATA     BIT       PTIM450
      000000D0H.3 SFRSYM    DATA     BIT       RS0
      000000DDH   SFRSYM    DATA     BYTE      LPF_KH
      000000F3H   SFRSYM    DATA     BYTE      PI_KIH
      000000EAH   SFRSYM    DATA     BYTE      PI_EKL
      000000E8H   SFRSYM    DATA     BYTE      FOC_SET0
      000000D8H.7 SFRSYM    DATA     BIT       PMCD1
      000000C8H.5 SFRSYM    DATA     BIT       PTIM451
      000000D0H.4 SFRSYM    DATA     BIT       RS1
      000000E9H   SFRSYM    DATA     BYTE      FOC_SET1
      000000B8H.6 SFRSYM    DATA     BIT       PFOC0
      000000DCH   SFRSYM    DATA     BYTE      LPF_KL
      000000F2H   SFRSYM    DATA     BYTE      PI_KIL
      000000B8H.7 SFRSYM    DATA     BIT       PFOC1
      000000ADH   SFRSYM    DATA     BYTE      TIM2_DRH
      000000B9H   SFRSYM    DATA     BYTE      TIM0_IER
      00000083H   SFRSYM    DATA     BYTE      DPH
      000000EFH   SFRSYM    DATA     BYTE      PI_KPH
      000000A5H   SFRSYM    DATA     BYTE      TIM3_DRH
      00000095H   SFRSYM    DATA     BYTE      TIM4_DRH
      0000008DH   SFRSYM    DATA     BYTE      TIM5_DRH
      000000ACH   SFRSYM    DATA     BYTE      TIM2_DRL
      00000082H   SFRSYM    DATA     BYTE      DPL
      000000EEH   SFRSYM    DATA     BYTE      PI_KPL
      000000A4H   SFRSYM    DATA     BYTE      TIM3_DRL
      000000F8H.7 SFRSYM    DATA     BIT       MOE
      000000C0H.6 SFRSYM    DATA     BIT       PCMP0
      000000EDH   SFRSYM    DATA     BYTE      PI_UKH
      00000094H   SFRSYM    DATA     BYTE      TIM4_DRL
      000000C0H.7 SFRSYM    DATA     BIT       PCMP1
      000000DFH   SFRSYM    DATA     BYTE      LPF_XH
      0000008CH   SFRSYM    DATA     BYTE      TIM5_DRL
      000000AEH   SFRSYM    DATA     WORD      TIM2_ARR
      000000A8H.5 SFRSYM    DATA     BIT       MCDIE
      000000C9H   SFRSYM    DATA     BYTE      RSTSRC
      000000E7H   SFRSYM    DATA     BYTE      LPF_YH
      000000A6H   SFRSYM    DATA     WORD      TIM3_ARR
      00000088H.6 SFRSYM    DATA     BIT       MCDIF
      00000098H.4 SFRSYM    DATA     BIT       REN
      00000096H   SFRSYM    DATA     WORD      TIM4_ARR
      000000ECH   SFRSYM    DATA     BYTE      PI_UKL
      000000D7H   SFRSYM    DATA     BYTE      CMP_SR
      0000008EH   SFRSYM    DATA     WORD      TIM5_ARR
      000000DEH   SFRSYM    DATA     BYTE      LPF_XL
      000000E6H   SFRSYM    DATA     BYTE      LPF_YL
      000000C8H   SFRSYM    DATA     BIT       PRTC0
      000000C8H.1 SFRSYM    DATA     BIT       PRTC1
      000000E8H.7 SFRSYM    DATA     BIT       FOCEN
      000000C8H.6 SFRSYM    DATA     BIT       PTSD0
      000000D8H.4 SFRSYM    DATA     BIT       PSPI0
      000000C8H.7 SFRSYM    DATA     BIT       PTSD1
      000000D8H.5 SFRSYM    DATA     BIT       PSPI1
      0000009BH   SFRSYM    DATA     BYTE      UT_BAUDH
      000000E4H   SFRSYM    DATA     WORD      SV_ANGLE
      000000B5H   SFRSYM    DATA     BYTE      TIM2_ADTRH
      0000009AH   SFRSYM    DATA     BYTE      UT_BAUDL
      000000FCH   SFRSYM    DATA     BYTE      P0_OE
      000000FDH   SFRSYM    DATA     BYTE      P1_OE
      000000D0H.5 SFRSYM    DATA     BIT       F0
      000000B4H   SFRSYM    DATA     BYTE      TIM2_ADTRL
      000000FEH   SFRSYM    DATA     BYTE      P2_OE
      000000D0H.1 SFRSYM    DATA     BIT       F1
      00000080H   SFRSYM    DATA     BIT       GP00
      000000FFH   SFRSYM    DATA     BYTE      P3_OE
LX51 LINKER/LOCATER V4.66.1.0                                                         08/07/2017  15:30:51  PAGE 96


      00000090H   SFRSYM    DATA     BIT       GP10
      00000080H.1 SFRSYM    DATA     BIT       GP01
      000000A8H.6 SFRSYM    DATA     BIT       RTCIE
      000000A0H   SFRSYM    DATA     BIT       GP20
      00000090H.1 SFRSYM    DATA     BIT       GP11
      00000080H.2 SFRSYM    DATA     BIT       GP02
      000000E3H   SFRSYM    DATA     BYTE      SV_USH
      000000B0H   SFRSYM    DATA     BIT       GP30
      000000A0H.1 SFRSYM    DATA     BIT       GP21
      00000090H.2 SFRSYM    DATA     BIT       GP12
      00000080H.3 SFRSYM    DATA     BIT       GP03
      000000B8H   SFRSYM    DATA     BIT       PLVW0
      000000A8H.1 SFRSYM    DATA     BIT       TSDIE
      000000D0H   SFRSYM    DATA     BYTE      PSW
      000000B0H.1 SFRSYM    DATA     BIT       GP31
      000000A0H.2 SFRSYM    DATA     BIT       GP22
      00000090H.3 SFRSYM    DATA     BIT       GP13
      00000080H.4 SFRSYM    DATA     BIT       GP04
      000000B8H.1 SFRSYM    DATA     BIT       PLVW1
      000000A8H.3 SFRSYM    DATA     BIT       SPIIE
      00000088H.5 SFRSYM    DATA     BIT       TSDIF
      000000B0H.2 SFRSYM    DATA     BIT       GP32
      000000A0H.3 SFRSYM    DATA     BIT       GP23
      00000090H.4 SFRSYM    DATA     BIT       GP14
      00000080H.5 SFRSYM    DATA     BIT       GP05
      00000084H   SFRSYM    DATA     BYTE      FLKEY
      000000B3H   SFRSYM    DATA     BYTE      TIM2_CMTRH
      000000B0H.3 SFRSYM    DATA     BIT       GP33
      000000A0H.4 SFRSYM    DATA     BIT       GP24
      00000090H.5 SFRSYM    DATA     BIT       GP15
      00000080H.6 SFRSYM    DATA     BIT       GP06
      00000088H   SFRSYM    DATA     BIT       IT00

      01002E5FH   BLOCK     CODE     ---       LVL=0
      01002E5FH   LINE      CODE     ---       #46
      01002E5FH   LINE      CODE     ---       #47
      01002E5FH   LINE      CODE     ---       #48
      01002E6EH   LINE      CODE     ---       #49
      01002E6EH   LINE      CODE     ---       #50
      01002E7DH   LINE      CODE     ---       #52
      01002E7DH   LINE      CODE     ---       #53
      01002E8CH   LINE      CODE     ---       #54
      01002E8FH   LINE      CODE     ---       #55
      01002E8FH   LINE      CODE     ---       #56
      01002E8FH   LINE      CODE     ---       #58
      01002E95H   LINE      CODE     ---       #59
      ---         BLOCKEND  ---      ---       LVL=0

      01003100H   BLOCK     CODE     ---       LVL=0
      01003100H   LINE      CODE     ---       #67
      01003100H   LINE      CODE     ---       #68
      01003100H   LINE      CODE     ---       #73
      01003103H   LINE      CODE     ---       #74
      01003106H   LINE      CODE     ---       #76
      01003109H   LINE      CODE     ---       #78
      ---         BLOCKEND  ---      ---       LVL=0

      010030B0H   BLOCK     CODE     ---       LVL=0
      010030B0H   LINE      CODE     ---       #87
      010030B0H   LINE      CODE     ---       #88
      010030B0H   LINE      CODE     ---       #100
      010030B5H   LINE      CODE     ---       #102
      010030B9H   LINE      CODE     ---       #103
      010030BDH   LINE      CODE     ---       #105
      010030C1H   LINE      CODE     ---       #106
LX51 LINKER/LOCATER V4.66.1.0                                                         08/07/2017  15:30:51  PAGE 97


      010030C3H   LINE      CODE     ---       #107
      ---         BLOCKEND  ---      ---       LVL=0

      01000EB0H   BLOCK     CODE     ---       LVL=0
      01000EB0H   LINE      CODE     ---       #115
      01000EB0H   LINE      CODE     ---       #116
      01000EB0H   LINE      CODE     ---       #117
      01000EB7H   LINE      CODE     ---       #118
      01000EB7H   LINE      CODE     ---       #119
      01000ED4H   LINE      CODE     ---       #120
      01000EDAH   LINE      CODE     ---       #121
      01000EDAH   LINE      CODE     ---       #122
      01000EE1H   LINE      CODE     ---       #123
      01000EE1H   LINE      CODE     ---       #124
      01000EFEH   LINE      CODE     ---       #125
      01000F04H   LINE      CODE     ---       #126
      01000F04H   LINE      CODE     ---       #127
      01000F0FH   LINE      CODE     ---       #128
      01000F0FH   LINE      CODE     ---       #129
      01000F16H   LINE      CODE     ---       #130
      01000F16H   LINE      CODE     ---       #131
      01000F1EH   LINE      CODE     ---       #132
      01000F1EH   LINE      CODE     ---       #133
      01000F2CH   LINE      CODE     ---       #134
      01000F2CH   LINE      CODE     ---       #135
      01000F2EH   LINE      CODE     ---       #136
      01000F38H   LINE      CODE     ---       #137
      01000F38H   LINE      CODE     ---       #138
      01000F43H   LINE      CODE     ---       #139
      01000F45H   LINE      CODE     ---       #141
      01000F45H   LINE      CODE     ---       #142
      01000F57H   LINE      CODE     ---       #143
      01000F57H   LINE      CODE     ---       #144
      01000F6AH   LINE      CODE     ---       #145
      01000F6AH   LINE      CODE     ---       #146
      01000F96H   LINE      CODE     ---       #147
      01000F98H   LINE      CODE     ---       #149
      01000F98H   LINE      CODE     ---       #150
      01000FA4H   LINE      CODE     ---       #151
      01000FA4H   LINE      CODE     ---       #153
      01000FB0H   LINE      CODE     ---       #154
      01000FB6H   LINE      CODE     ---       #155
      01000FB6H   LINE      CODE     ---       #157
      01000FBDH   LINE      CODE     ---       #158
      01000FBDH   LINE      CODE     ---       #159
      01000FDDH   LINE      CODE     ---       #160
      01000FE3H   LINE      CODE     ---       #161
      01000FE3H   LINE      CODE     ---       #162
      01000FEAH   LINE      CODE     ---       #163
      01000FEAH   LINE      CODE     ---       #164
      01001017H   LINE      CODE     ---       #165
      0100101DH   LINE      CODE     ---       #166
      0100101DH   LINE      CODE     ---       #168
      01001024H   LINE      CODE     ---       #169
      0100103AH   LINE      CODE     ---       #170
      0100103AH   LINE      CODE     ---       #172
      01001059H   LINE      CODE     ---       #173
      01001059H   LINE      CODE     ---       #174
      0100105FH   LINE      CODE     ---       #175
      0100105FH   LINE      CODE     ---       #176
      ---         BLOCKEND  ---      ---       LVL=0

      ---         MODULE    ---      ---       FU68XX_MCADC
      01002EF4H   PUBLIC    CODE     ---       ADCGetConversionValue
      01001980H   PUBLIC    CODE     ---       ADCGetValue
LX51 LINKER/LOCATER V4.66.1.0                                                         08/07/2017  15:30:51  PAGE 98


      0100149EH   PUBLIC    CODE     ---       ADCInit
      01002321H   PUBLIC    CODE     ---       ADC_Config
      000000E2H   SFRSYM    DATA     BYTE      SV_USL
      000000ABH   SFRSYM    DATA     BYTE      TIM2_CNTRH
      000000B0H.4 SFRSYM    DATA     BIT       GP34
      000000A0H.5 SFRSYM    DATA     BIT       GP25
      00000090H.6 SFRSYM    DATA     BIT       GP16
      00000080H.7 SFRSYM    DATA     BIT       GP07
      00000088H.1 SFRSYM    DATA     BIT       IT01
      00000088H.3 SFRSYM    DATA     BIT       IT10
      000000F6H   SFRSYM    DATA     WORD      PI_UKMIN
      000000C2H   SFRSYM    DATA     WORD      MD_MA
      000000A3H   SFRSYM    DATA     BYTE      TIM3_CNTRH
      000000B0H.5 SFRSYM    DATA     BIT       GP35
      000000A0H.6 SFRSYM    DATA     BIT       GP26
      00000090H.7 SFRSYM    DATA     BIT       GP17
      00000080H   SFRSYM    DATA     BYTE      P0
      00000088H.4 SFRSYM    DATA     BIT       IT11
      000000CAH   SFRSYM    DATA     WORD      MD_MB
      00000093H   SFRSYM    DATA     BYTE      TIM4_CNTRH
      000000B0H.6 SFRSYM    DATA     BIT       GP36
      000000A0H.7 SFRSYM    DATA     BIT       GP27
      00000090H   SFRSYM    DATA     BYTE      P1
      000000D9H   SFRSYM    DATA     BYTE      EVT_FILT
      000000F4H   SFRSYM    DATA     WORD      PI_UKMAX
      0000008BH   SFRSYM    DATA     BYTE      TIM5_CNTRH
      000000B2H   SFRSYM    DATA     BYTE      TIM2_CMTRL
      000000B0H.7 SFRSYM    DATA     BIT       GP37
      000000A0H   SFRSYM    DATA     BYTE      P2
      000000AAH   SFRSYM    DATA     BYTE      TIM2_CNTRL
      000000B0H   SFRSYM    DATA     BYTE      P3
      000000A2H   SFRSYM    DATA     BYTE      TIM3_CNTRL
      000000D0H.6 SFRSYM    DATA     BIT       AC
      00000092H   SFRSYM    DATA     BYTE      TIM4_CNTRL
      0000008AH   SFRSYM    DATA     BYTE      TIM5_CNTRL
      000000B6H   SFRSYM    DATA     WORD      TIM0_CCR1
      000000A8H.7 SFRSYM    DATA     BIT       EA
      000000D5H   SFRSYM    DATA     BYTE      CMP_CR0
      000000BAH   SFRSYM    DATA     WORD      TIM0_CCR2
      000000D6H   SFRSYM    DATA     BYTE      CMP_CR1
      000000BCH   SFRSYM    DATA     WORD      TIM0_CCR3
      00000085H   SFRSYM    DATA     BYTE      PSCTL
      000000DAH   SFRSYM    DATA     BYTE      CMP_CR2
      000000BEH   SFRSYM    DATA     WORD      TIM0_CCR4
      000000B8H.2 SFRSYM    DATA     BIT       PX00
      000000EAH   SFRSYM    DATA     WORD      PI_EK
      000000F8H   SFRSYM    DATA     BIT       OISUH
      000000B8H.3 SFRSYM    DATA     BIT       PX01
      000000B8H.4 SFRSYM    DATA     BIT       PX10
      000000F8H.2 SFRSYM    DATA     BIT       OISVH
      000000B8H.5 SFRSYM    DATA     BIT       PX11
      000000F8H.4 SFRSYM    DATA     BIT       OISWH
      000000DCH   SFRSYM    DATA     WORD      LPF_K
      000000F2H   SFRSYM    DATA     WORD      PI_KI
      000000F8H.1 SFRSYM    DATA     BIT       OISUL
      000000A8H   SFRSYM    DATA     BYTE      IE
      000000F8H.3 SFRSYM    DATA     BIT       OISVL
      000000F8H.5 SFRSYM    DATA     BIT       OISWL
      000000D1H   SFRSYM    DATA     BYTE      P1IE
      00000098H.6 SFRSYM    DATA     BIT       MOD0
      000000D3H   SFRSYM    DATA     BYTE      P2IE
      000000D2H   SFRSYM    DATA     BYTE      P1IF
      000000F9H   SFRSYM    DATA     BYTE      PL_CR
      00000098H.7 SFRSYM    DATA     BIT       MOD1
      000000D4H   SFRSYM    DATA     BYTE      P2IF
LX51 LINKER/LOCATER V4.66.1.0                                                         08/07/2017  15:30:51  PAGE 99


      000000ACH   SFRSYM    DATA     WORD      TIM2_DR
      00000082H   SFRSYM    DATA     WORD      DP
      000000EEH   SFRSYM    DATA     WORD      PI_KP
      000000A4H   SFRSYM    DATA     WORD      TIM3_DR
      00000094H   SFRSYM    DATA     WORD      TIM4_DR
      0000008CH   SFRSYM    DATA     WORD      TIM5_DR
      000000F1H   SFRSYM    DATA     BYTE      OSC_CFG
      000000C1H   SFRSYM    DATA     BYTE      MD_MODE
      000000ECH   SFRSYM    DATA     WORD      PI_UK
      000000DEH   SFRSYM    DATA     WORD      LPF_X
      00000098H   SFRSYM    DATA     BIT       RI
      000000E6H   SFRSYM    DATA     WORD      LPF_Y
      000000C0H   SFRSYM    DATA     BIT       PTIM00
      000000D0H.7 SFRSYM    DATA     BIT       CY
      00000098H.1 SFRSYM    DATA     BIT       TI
      000000C0H.1 SFRSYM    DATA     BIT       PTIM01
      000000C0H.2 SFRSYM    DATA     BIT       PTIM10
      000000C0H.3 SFRSYM    DATA     BIT       PTIM11
      000000E1H   SFRSYM    DATA     BYTE      SV_CR
      00000098H   SFRSYM    DATA     BYTE      UT_CR
      00000099H   SFRSYM    DATA     BYTE      UT_DR
      000000F8H.6 SFRSYM    DATA     BIT       OIS4
      00000081H   SFRSYM    DATA     BYTE      SP
      000000D0H.2 SFRSYM    DATA     BIT       OV
      000000C4H   SFRSYM    DATA     BYTE      MD_DA0
      0000009AH   SFRSYM    DATA     WORD      UT_BAUD
      000000CCH   SFRSYM    DATA     BYTE      MD_DB0
      000000C5H   SFRSYM    DATA     BYTE      MD_DA1
      000000CDH   SFRSYM    DATA     BYTE      MD_DB1
      000000C6H   SFRSYM    DATA     BYTE      MD_DA2
      000000CEH   SFRSYM    DATA     BYTE      MD_DB2
      000000C7H   SFRSYM    DATA     BYTE      MD_DA3
      000000B4H   SFRSYM    DATA     WORD      TIM2_ADTR
      000000CFH   SFRSYM    DATA     BYTE      MD_DB3
      000000AFH   SFRSYM    DATA     BYTE      TIM2_ARRH
      000000A7H   SFRSYM    DATA     BYTE      TIM3_ARRH
      00000097H   SFRSYM    DATA     BYTE      TIM4_ARRH
      0000008FH   SFRSYM    DATA     BYTE      TIM5_ARRH
      000000AEH   SFRSYM    DATA     BYTE      TIM2_ARRL
      000000A6H   SFRSYM    DATA     BYTE      TIM3_ARRL
      00000087H   SFRSYM    DATA     BYTE      PCON
      000000E2H   SFRSYM    DATA     WORD      SV_US
      00000096H   SFRSYM    DATA     BYTE      TIM4_ARRL
      0000008EH   SFRSYM    DATA     BYTE      TIM5_ARRL
      000000B2H   SFRSYM    DATA     WORD      TIM2_CMTR
      00000088H   SFRSYM    DATA     BYTE      TCON
      000000AAH   SFRSYM    DATA     WORD      TIM2_CNTR
      000000A2H   SFRSYM    DATA     WORD      TIM3_CNTR
      00000092H   SFRSYM    DATA     WORD      TIM4_CNTR
      0000008AH   SFRSYM    DATA     WORD      TIM5_CNTR
      000000E5H   SFRSYM    DATA     BYTE      SV_ANGLEH
      000000D8H   SFRSYM    DATA     BIT       PUART0
      000000E4H   SFRSYM    DATA     BYTE      SV_ANGLEL
      000000C6H   SFRSYM    DATA     WORD      MD_DAH
      000000D8H.1 SFRSYM    DATA     BIT       PUART1
      000000D8H.2 SFRSYM    DATA     BIT       PI2C0
      00000088H.2 SFRSYM    DATA     BIT       IF0
      000000CEH   SFRSYM    DATA     WORD      MD_DBH
      000000D8H.3 SFRSYM    DATA     BIT       PI2C1
      000000F0H   SFRSYM    DATA     BYTE      B
      000000C4H   SFRSYM    DATA     WORD      MD_DAL
      000000A1H   SFRSYM    DATA     BYTE      TIM2_CR0
      000000CCH   SFRSYM    DATA     WORD      MD_DBL
      0000009CH   SFRSYM    DATA     BYTE      TIM3_CR0
      000000A9H   SFRSYM    DATA     BYTE      TIM2_CR1
LX51 LINKER/LOCATER V4.66.1.0                                                         08/07/2017  15:30:51  PAGE 100


      0000009EH   SFRSYM    DATA     BYTE      TIM4_CR0
      0000009DH   SFRSYM    DATA     BYTE      TIM3_CR1
      00000089H   SFRSYM    DATA     BYTE      TIM5_CR0
      0000009FH   SFRSYM    DATA     BYTE      TIM4_CR1
      000000F8H   SFRSYM    DATA     BYTE      DRV_OUT
      00000091H   SFRSYM    DATA     BYTE      TIM5_CR1
      000000E0H   SFRSYM    DATA     BYTE      ACC
      000000F7H   SFRSYM    DATA     BYTE      PI_UKMINH
      000000C3H   SFRSYM    DATA     BYTE      MD_MAH
      000000A8H.4 SFRSYM    DATA     BIT       ES0
      000000DBH   SFRSYM    DATA     BYTE      LVSR
      000000CBH   SFRSYM    DATA     BYTE      MD_MBH
      000000C0H.4 SFRSYM    DATA     BIT       PADC0
      000000B8H   SFRSYM    DATA     BYTE      IP0
      000000F5H   SFRSYM    DATA     BYTE      PI_UKMAXH
      000000C0H.5 SFRSYM    DATA     BIT       PADC1
      000000C0H   SFRSYM    DATA     BYTE      IP1
      000000C8H   SFRSYM    DATA     BYTE      IP2
      000000F6H   SFRSYM    DATA     BYTE      PI_UKMINL
      000000C2H   SFRSYM    DATA     BYTE      MD_MAL
      00000098H.2 SFRSYM    DATA     BIT       RB8
      000000D8H   SFRSYM    DATA     BYTE      IP3
      000000CAH   SFRSYM    DATA     BYTE      MD_MBL
      000000A8H   SFRSYM    DATA     BIT       EX0
      000000F4H   SFRSYM    DATA     BYTE      PI_UKMAXL
      00000098H.3 SFRSYM    DATA     BIT       TB8
      000000B7H   SFRSYM    DATA     BYTE      TIM0_CCR1H
      000000A8H.2 SFRSYM    DATA     BIT       EX1
      000000BBH   SFRSYM    DATA     BYTE      TIM0_CCR2H
      000000D0H   SFRSYM    DATA     BIT       P
      000000BDH   SFRSYM    DATA     BYTE      TIM0_CCR3H
      000000BFH   SFRSYM    DATA     BYTE      TIM0_CCR4H
      000000C8H.2 SFRSYM    DATA     BIT       PTIM230
      000000EBH   SFRSYM    DATA     BYTE      PI_EKH
      00000098H.5 SFRSYM    DATA     BIT       SM2
      000000B6H   SFRSYM    DATA     BYTE      TIM0_CCR1L
      000000B1H   SFRSYM    DATA     BYTE      TIM0_SR1
      000000C8H.3 SFRSYM    DATA     BIT       PTIM231
      000000BAH   SFRSYM    DATA     BYTE      TIM0_CCR2L
      000000BCH   SFRSYM    DATA     BYTE      TIM0_CCR3L
      000000BEH   SFRSYM    DATA     BYTE      TIM0_CCR4L
      000000D8H.6 SFRSYM    DATA     BIT       PMCD0
      000000C8H.4 SFRSYM    DATA     BIT       PTIM450
      000000D0H.3 SFRSYM    DATA     BIT       RS0
      000000DDH   SFRSYM    DATA     BYTE      LPF_KH
      000000F3H   SFRSYM    DATA     BYTE      PI_KIH
      000000EAH   SFRSYM    DATA     BYTE      PI_EKL
      000000E8H   SFRSYM    DATA     BYTE      FOC_SET0
      000000D8H.7 SFRSYM    DATA     BIT       PMCD1
      000000C8H.5 SFRSYM    DATA     BIT       PTIM451
      000000D0H.4 SFRSYM    DATA     BIT       RS1
      000000E9H   SFRSYM    DATA     BYTE      FOC_SET1
      000000B8H.6 SFRSYM    DATA     BIT       PFOC0
      000000DCH   SFRSYM    DATA     BYTE      LPF_KL
      000000F2H   SFRSYM    DATA     BYTE      PI_KIL
      000000B8H.7 SFRSYM    DATA     BIT       PFOC1
      000000ADH   SFRSYM    DATA     BYTE      TIM2_DRH
      000000B9H   SFRSYM    DATA     BYTE      TIM0_IER
      00000083H   SFRSYM    DATA     BYTE      DPH
      000000EFH   SFRSYM    DATA     BYTE      PI_KPH
      000000A5H   SFRSYM    DATA     BYTE      TIM3_DRH
      00000095H   SFRSYM    DATA     BYTE      TIM4_DRH
      0000008DH   SFRSYM    DATA     BYTE      TIM5_DRH
      000000ACH   SFRSYM    DATA     BYTE      TIM2_DRL
      00000082H   SFRSYM    DATA     BYTE      DPL
LX51 LINKER/LOCATER V4.66.1.0                                                         08/07/2017  15:30:51  PAGE 101


      000000EEH   SFRSYM    DATA     BYTE      PI_KPL
      000000A4H   SFRSYM    DATA     BYTE      TIM3_DRL
      000000F8H.7 SFRSYM    DATA     BIT       MOE
      000000C0H.6 SFRSYM    DATA     BIT       PCMP0
      000000EDH   SFRSYM    DATA     BYTE      PI_UKH
      00000094H   SFRSYM    DATA     BYTE      TIM4_DRL
      000000C0H.7 SFRSYM    DATA     BIT       PCMP1
      000000DFH   SFRSYM    DATA     BYTE      LPF_XH
      0000008CH   SFRSYM    DATA     BYTE      TIM5_DRL
      000000AEH   SFRSYM    DATA     WORD      TIM2_ARR
      000000A8H.5 SFRSYM    DATA     BIT       MCDIE
      000000C9H   SFRSYM    DATA     BYTE      RSTSRC
      000000E7H   SFRSYM    DATA     BYTE      LPF_YH
      000000A6H   SFRSYM    DATA     WORD      TIM3_ARR
      00000088H.6 SFRSYM    DATA     BIT       MCDIF
      00000098H.4 SFRSYM    DATA     BIT       REN
      00000096H   SFRSYM    DATA     WORD      TIM4_ARR
      000000ECH   SFRSYM    DATA     BYTE      PI_UKL
      000000D7H   SFRSYM    DATA     BYTE      CMP_SR
      0000008EH   SFRSYM    DATA     WORD      TIM5_ARR
      000000DEH   SFRSYM    DATA     BYTE      LPF_XL
      000000E6H   SFRSYM    DATA     BYTE      LPF_YL
      000000C8H   SFRSYM    DATA     BIT       PRTC0
      000000C8H.1 SFRSYM    DATA     BIT       PRTC1
      000000E8H.7 SFRSYM    DATA     BIT       FOCEN
      000000C8H.6 SFRSYM    DATA     BIT       PTSD0
      000000D8H.4 SFRSYM    DATA     BIT       PSPI0
      000000C8H.7 SFRSYM    DATA     BIT       PTSD1
      000000D8H.5 SFRSYM    DATA     BIT       PSPI1
      0000009BH   SFRSYM    DATA     BYTE      UT_BAUDH
      000000E4H   SFRSYM    DATA     WORD      SV_ANGLE
      000000B5H   SFRSYM    DATA     BYTE      TIM2_ADTRH
      0000009AH   SFRSYM    DATA     BYTE      UT_BAUDL
      000000FCH   SFRSYM    DATA     BYTE      P0_OE
      000000FDH   SFRSYM    DATA     BYTE      P1_OE
      000000D0H.5 SFRSYM    DATA     BIT       F0
      000000B4H   SFRSYM    DATA     BYTE      TIM2_ADTRL
      000000FEH   SFRSYM    DATA     BYTE      P2_OE
      000000D0H.1 SFRSYM    DATA     BIT       F1
      00000080H   SFRSYM    DATA     BIT       GP00
      000000FFH   SFRSYM    DATA     BYTE      P3_OE
      00000090H   SFRSYM    DATA     BIT       GP10
      00000080H.1 SFRSYM    DATA     BIT       GP01
      000000A8H.6 SFRSYM    DATA     BIT       RTCIE
      000000A0H   SFRSYM    DATA     BIT       GP20
      00000090H.1 SFRSYM    DATA     BIT       GP11
      00000080H.2 SFRSYM    DATA     BIT       GP02
      000000E3H   SFRSYM    DATA     BYTE      SV_USH
      000000B0H   SFRSYM    DATA     BIT       GP30
      000000A0H.1 SFRSYM    DATA     BIT       GP21
      00000090H.2 SFRSYM    DATA     BIT       GP12
      00000080H.3 SFRSYM    DATA     BIT       GP03
      000000B8H   SFRSYM    DATA     BIT       PLVW0
      000000A8H.1 SFRSYM    DATA     BIT       TSDIE
      000000D0H   SFRSYM    DATA     BYTE      PSW
      000000B0H.1 SFRSYM    DATA     BIT       GP31
      000000A0H.2 SFRSYM    DATA     BIT       GP22
      00000090H.3 SFRSYM    DATA     BIT       GP13
      00000080H.4 SFRSYM    DATA     BIT       GP04
      000000B8H.1 SFRSYM    DATA     BIT       PLVW1
      000000A8H.3 SFRSYM    DATA     BIT       SPIIE
      00000088H.5 SFRSYM    DATA     BIT       TSDIF
      000000B0H.2 SFRSYM    DATA     BIT       GP32
      000000A0H.3 SFRSYM    DATA     BIT       GP23
      00000090H.4 SFRSYM    DATA     BIT       GP14
LX51 LINKER/LOCATER V4.66.1.0                                                         08/07/2017  15:30:51  PAGE 102


      00000080H.5 SFRSYM    DATA     BIT       GP05
      00000084H   SFRSYM    DATA     BYTE      FLKEY
      000000B3H   SFRSYM    DATA     BYTE      TIM2_CMTRH
      000000B0H.3 SFRSYM    DATA     BIT       GP33
      000000A0H.4 SFRSYM    DATA     BIT       GP24
      00000090H.5 SFRSYM    DATA     BIT       GP15
      00000080H.6 SFRSYM    DATA     BIT       GP06
      00000088H   SFRSYM    DATA     BIT       IT00

      01002321H   BLOCK     CODE     ---       LVL=0
      01002321H   LINE      CODE     ---       #37
      01002321H   LINE      CODE     ---       #38
      01002321H   LINE      CODE     ---       #45
      01002328H   LINE      CODE     ---       #46
      0100232CH   LINE      CODE     ---       #47
      01002333H   LINE      CODE     ---       #48
      01002339H   LINE      CODE     ---       #55
      0100233DH   LINE      CODE     ---       #56
      01002341H   LINE      CODE     ---       #63
      01002348H   LINE      CODE     ---       #64
      0100234FH   LINE      CODE     ---       #72
      01002356H   LINE      CODE     ---       #73
      0100235DH   LINE      CODE     ---       #75
      01002364H   LINE      CODE     ---       #76
      0100236BH   LINE      CODE     ---       #78
      01002372H   LINE      CODE     ---       #79
      01002379H   LINE      CODE     ---       #81
      01002380H   LINE      CODE     ---       #82
      01002387H   LINE      CODE     ---       #84
      0100238EH   LINE      CODE     ---       #85
      01002395H   LINE      CODE     ---       #88
      0100239BH   LINE      CODE     ---       #89
      0100239FH   LINE      CODE     ---       #97
      010023A6H   LINE      CODE     ---       #98
      010023AAH   LINE      CODE     ---       #100
      010023B1H   LINE      CODE     ---       #101
      010023B5H   LINE      CODE     ---       #103
      ---         BLOCKEND  ---      ---       LVL=0

      0100149EH   BLOCK     CODE     ---       LVL=0
      0100149EH   LINE      CODE     ---       #112
      0100149EH   LINE      CODE     ---       #113
      0100149EH   LINE      CODE     ---       #116
      010014A8H   LINE      CODE     ---       #117
      010014AFH   LINE      CODE     ---       #118
      010014B7H   LINE      CODE     ---       #120
      010014C2H   LINE      CODE     ---       #121
      010014C2H   LINE      CODE     ---       #122
      010014D4H   LINE      CODE     ---       #123
      010014D4H   LINE      CODE     ---       #124
      010014DFH   LINE      CODE     ---       #125
      010014DFH   LINE      CODE     ---       #126
      010014F1H   LINE      CODE     ---       #127
      010014F1H   LINE      CODE     ---       #128
      010014FCH   LINE      CODE     ---       #129
      010014FCH   LINE      CODE     ---       #130
      0100150EH   LINE      CODE     ---       #131
      0100150EH   LINE      CODE     ---       #133
      01001519H   LINE      CODE     ---       #134
      01001519H   LINE      CODE     ---       #135
      0100151FH   LINE      CODE     ---       #136
      01001521H   LINE      CODE     ---       #137
      01001540H   LINE      CODE     ---       #138
      01001540H   LINE      CODE     ---       #139
      01001551H   LINE      CODE     ---       #140
LX51 LINKER/LOCATER V4.66.1.0                                                         08/07/2017  15:30:51  PAGE 103


      01001551H   LINE      CODE     ---       #141
      0100155BH   LINE      CODE     ---       #142
      01001562H   LINE      CODE     ---       #143
      0100156AH   LINE      CODE     ---       #145
      01001571H   LINE      CODE     ---       #146
      01001575H   LINE      CODE     ---       #147
      0100157DH   LINE      CODE     ---       #149
      01001584H   LINE      CODE     ---       #150
      01001588H   LINE      CODE     ---       #151
      01001590H   LINE      CODE     ---       #153
      01001597H   LINE      CODE     ---       #154
      0100159BH   LINE      CODE     ---       #155
      010015A3H   LINE      CODE     ---       #157
      010015AAH   LINE      CODE     ---       #158
      010015AEH   LINE      CODE     ---       #159
      ---         BLOCKEND  ---      ---       LVL=0
      00000004H   SYMBOL    DATA     WORD      tVmeasA
      00000002H   SYMBOL    DATA     WORD      tVmeasC

      01001980H   BLOCK     CODE     ---       LVL=0
      01001980H   BLOCK     CODE     NEAR LAB  LVL=1
      00000006H   SYMBOL    DATA     WORD      DataMeasValue
      0200020DH   SYMBOL    XDATA    WORD      tImeasBus
      ---         BLOCKEND  ---      ---       LVL=1
      01001980H   LINE      CODE     ---       #220
      01001980H   LINE      CODE     ---       #221
      01001980H   LINE      CODE     ---       #224
      01001991H   LINE      CODE     ---       #225
      010019A8H   LINE      CODE     ---       #227
      010019C1H   LINE      CODE     ---       #228
      010019CAH   LINE      CODE     ---       #229
      010019CAH   LINE      CODE     ---       #230
      010019E9H   LINE      CODE     ---       #231
      010019EBH   LINE      CODE     ---       #233
      010019EBH   LINE      CODE     ---       #234
      01001A05H   LINE      CODE     ---       #235
      01001A10H   LINE      CODE     ---       #236
      01001A10H   LINE      CODE     ---       #237
      01001A14H   LINE      CODE     ---       #238
      01001A14H   LINE      CODE     ---       #239
      01001A14H   LINE      CODE     ---       #242
      01001A2DH   LINE      CODE     ---       #243
      01001A46H   LINE      CODE     ---       #244
      01001A5FH   LINE      CODE     ---       #245
      ---         BLOCKEND  ---      ---       LVL=0

      01002EF4H   BLOCK     CODE     ---       LVL=0
      01002EF4H   BLOCK     CODE     NEAR LAB  LVL=1
      02000211H   SYMBOL    XDATA    WORD      DataMeasValue
      02000213H   SYMBOL    XDATA    FLOAT     fValue
      ---         BLOCKEND  ---      ---       LVL=1
      01002EF4H   LINE      CODE     ---       #254
      01002EF4H   LINE      CODE     ---       #255
      01002EF4H   LINE      CODE     ---       #256
      01002EFBH   LINE      CODE     ---       #257
      01002F03H   LINE      CODE     ---       #259
      ---         BLOCKEND  ---      ---       LVL=0

      ---         MODULE    ---      ---       FU68XX_MCAMP
      0100306CH   PUBLIC    CODE     ---       AMP_Config
      000000E2H   SFRSYM    DATA     BYTE      SV_USL
      000000ABH   SFRSYM    DATA     BYTE      TIM2_CNTRH
      000000B0H.4 SFRSYM    DATA     BIT       GP34
      000000A0H.5 SFRSYM    DATA     BIT       GP25
      00000090H.6 SFRSYM    DATA     BIT       GP16
LX51 LINKER/LOCATER V4.66.1.0                                                         08/07/2017  15:30:51  PAGE 104


      00000080H.7 SFRSYM    DATA     BIT       GP07
      00000088H.1 SFRSYM    DATA     BIT       IT01
      00000088H.3 SFRSYM    DATA     BIT       IT10
      000000F6H   SFRSYM    DATA     WORD      PI_UKMIN
      000000C2H   SFRSYM    DATA     WORD      MD_MA
      000000A3H   SFRSYM    DATA     BYTE      TIM3_CNTRH
      000000B0H.5 SFRSYM    DATA     BIT       GP35
      000000A0H.6 SFRSYM    DATA     BIT       GP26
      00000090H.7 SFRSYM    DATA     BIT       GP17
      00000080H   SFRSYM    DATA     BYTE      P0
      00000088H.4 SFRSYM    DATA     BIT       IT11
      000000CAH   SFRSYM    DATA     WORD      MD_MB
      00000093H   SFRSYM    DATA     BYTE      TIM4_CNTRH
      000000B0H.6 SFRSYM    DATA     BIT       GP36
      000000A0H.7 SFRSYM    DATA     BIT       GP27
      00000090H   SFRSYM    DATA     BYTE      P1
      000000D9H   SFRSYM    DATA     BYTE      EVT_FILT
      000000F4H   SFRSYM    DATA     WORD      PI_UKMAX
      0000008BH   SFRSYM    DATA     BYTE      TIM5_CNTRH
      000000B2H   SFRSYM    DATA     BYTE      TIM2_CMTRL
      000000B0H.7 SFRSYM    DATA     BIT       GP37
      000000A0H   SFRSYM    DATA     BYTE      P2
      000000AAH   SFRSYM    DATA     BYTE      TIM2_CNTRL
      000000B0H   SFRSYM    DATA     BYTE      P3
      000000A2H   SFRSYM    DATA     BYTE      TIM3_CNTRL
      000000D0H.6 SFRSYM    DATA     BIT       AC
      00000092H   SFRSYM    DATA     BYTE      TIM4_CNTRL
      0000008AH   SFRSYM    DATA     BYTE      TIM5_CNTRL
      000000B6H   SFRSYM    DATA     WORD      TIM0_CCR1
      000000A8H.7 SFRSYM    DATA     BIT       EA
      000000D5H   SFRSYM    DATA     BYTE      CMP_CR0
      000000BAH   SFRSYM    DATA     WORD      TIM0_CCR2
      000000D6H   SFRSYM    DATA     BYTE      CMP_CR1
      000000BCH   SFRSYM    DATA     WORD      TIM0_CCR3
      00000085H   SFRSYM    DATA     BYTE      PSCTL
      000000DAH   SFRSYM    DATA     BYTE      CMP_CR2
      000000BEH   SFRSYM    DATA     WORD      TIM0_CCR4
      000000B8H.2 SFRSYM    DATA     BIT       PX00
      000000EAH   SFRSYM    DATA     WORD      PI_EK
      000000F8H   SFRSYM    DATA     BIT       OISUH
      000000B8H.3 SFRSYM    DATA     BIT       PX01
      000000B8H.4 SFRSYM    DATA     BIT       PX10
      000000F8H.2 SFRSYM    DATA     BIT       OISVH
      000000B8H.5 SFRSYM    DATA     BIT       PX11
      000000F8H.4 SFRSYM    DATA     BIT       OISWH
      000000DCH   SFRSYM    DATA     WORD      LPF_K
      000000F2H   SFRSYM    DATA     WORD      PI_KI
      000000F8H.1 SFRSYM    DATA     BIT       OISUL
      000000A8H   SFRSYM    DATA     BYTE      IE
      000000F8H.3 SFRSYM    DATA     BIT       OISVL
      000000F8H.5 SFRSYM    DATA     BIT       OISWL
      000000D1H   SFRSYM    DATA     BYTE      P1IE
      00000098H.6 SFRSYM    DATA     BIT       MOD0
      000000D3H   SFRSYM    DATA     BYTE      P2IE
      000000D2H   SFRSYM    DATA     BYTE      P1IF
      000000F9H   SFRSYM    DATA     BYTE      PL_CR
      00000098H.7 SFRSYM    DATA     BIT       MOD1
      000000D4H   SFRSYM    DATA     BYTE      P2IF
      000000ACH   SFRSYM    DATA     WORD      TIM2_DR
      00000082H   SFRSYM    DATA     WORD      DP
      000000EEH   SFRSYM    DATA     WORD      PI_KP
      000000A4H   SFRSYM    DATA     WORD      TIM3_DR
      00000094H   SFRSYM    DATA     WORD      TIM4_DR
      0000008CH   SFRSYM    DATA     WORD      TIM5_DR
      000000F1H   SFRSYM    DATA     BYTE      OSC_CFG
LX51 LINKER/LOCATER V4.66.1.0                                                         08/07/2017  15:30:51  PAGE 105


      000000C1H   SFRSYM    DATA     BYTE      MD_MODE
      000000ECH   SFRSYM    DATA     WORD      PI_UK
      000000DEH   SFRSYM    DATA     WORD      LPF_X
      00000098H   SFRSYM    DATA     BIT       RI
      000000E6H   SFRSYM    DATA     WORD      LPF_Y
      000000C0H   SFRSYM    DATA     BIT       PTIM00
      000000D0H.7 SFRSYM    DATA     BIT       CY
      00000098H.1 SFRSYM    DATA     BIT       TI
      000000C0H.1 SFRSYM    DATA     BIT       PTIM01
      000000C0H.2 SFRSYM    DATA     BIT       PTIM10
      000000C0H.3 SFRSYM    DATA     BIT       PTIM11
      000000E1H   SFRSYM    DATA     BYTE      SV_CR
      00000098H   SFRSYM    DATA     BYTE      UT_CR
      00000099H   SFRSYM    DATA     BYTE      UT_DR
      000000F8H.6 SFRSYM    DATA     BIT       OIS4
      00000081H   SFRSYM    DATA     BYTE      SP
      000000D0H.2 SFRSYM    DATA     BIT       OV
      000000C4H   SFRSYM    DATA     BYTE      MD_DA0
      0000009AH   SFRSYM    DATA     WORD      UT_BAUD
      000000CCH   SFRSYM    DATA     BYTE      MD_DB0
      000000C5H   SFRSYM    DATA     BYTE      MD_DA1
      000000CDH   SFRSYM    DATA     BYTE      MD_DB1
      000000C6H   SFRSYM    DATA     BYTE      MD_DA2
      000000CEH   SFRSYM    DATA     BYTE      MD_DB2
      000000C7H   SFRSYM    DATA     BYTE      MD_DA3
      000000B4H   SFRSYM    DATA     WORD      TIM2_ADTR
      000000CFH   SFRSYM    DATA     BYTE      MD_DB3
      000000AFH   SFRSYM    DATA     BYTE      TIM2_ARRH
      000000A7H   SFRSYM    DATA     BYTE      TIM3_ARRH
      00000097H   SFRSYM    DATA     BYTE      TIM4_ARRH
      0000008FH   SFRSYM    DATA     BYTE      TIM5_ARRH
      000000AEH   SFRSYM    DATA     BYTE      TIM2_ARRL
      000000A6H   SFRSYM    DATA     BYTE      TIM3_ARRL
      00000087H   SFRSYM    DATA     BYTE      PCON
      000000E2H   SFRSYM    DATA     WORD      SV_US
      00000096H   SFRSYM    DATA     BYTE      TIM4_ARRL
      0000008EH   SFRSYM    DATA     BYTE      TIM5_ARRL
      000000B2H   SFRSYM    DATA     WORD      TIM2_CMTR
      00000088H   SFRSYM    DATA     BYTE      TCON
      000000AAH   SFRSYM    DATA     WORD      TIM2_CNTR
      000000A2H   SFRSYM    DATA     WORD      TIM3_CNTR
      00000092H   SFRSYM    DATA     WORD      TIM4_CNTR
      0000008AH   SFRSYM    DATA     WORD      TIM5_CNTR
      000000E5H   SFRSYM    DATA     BYTE      SV_ANGLEH
      000000D8H   SFRSYM    DATA     BIT       PUART0
      000000E4H   SFRSYM    DATA     BYTE      SV_ANGLEL
      000000C6H   SFRSYM    DATA     WORD      MD_DAH
      000000D8H.1 SFRSYM    DATA     BIT       PUART1
      000000D8H.2 SFRSYM    DATA     BIT       PI2C0
      00000088H.2 SFRSYM    DATA     BIT       IF0
      000000CEH   SFRSYM    DATA     WORD      MD_DBH
      000000D8H.3 SFRSYM    DATA     BIT       PI2C1
      000000F0H   SFRSYM    DATA     BYTE      B
      000000C4H   SFRSYM    DATA     WORD      MD_DAL
      000000A1H   SFRSYM    DATA     BYTE      TIM2_CR0
      000000CCH   SFRSYM    DATA     WORD      MD_DBL
      0000009CH   SFRSYM    DATA     BYTE      TIM3_CR0
      000000A9H   SFRSYM    DATA     BYTE      TIM2_CR1
      0000009EH   SFRSYM    DATA     BYTE      TIM4_CR0
      0000009DH   SFRSYM    DATA     BYTE      TIM3_CR1
      00000089H   SFRSYM    DATA     BYTE      TIM5_CR0
      0000009FH   SFRSYM    DATA     BYTE      TIM4_CR1
      000000F8H   SFRSYM    DATA     BYTE      DRV_OUT
      00000091H   SFRSYM    DATA     BYTE      TIM5_CR1
      000000E0H   SFRSYM    DATA     BYTE      ACC
LX51 LINKER/LOCATER V4.66.1.0                                                         08/07/2017  15:30:51  PAGE 106


      000000F7H   SFRSYM    DATA     BYTE      PI_UKMINH
      000000C3H   SFRSYM    DATA     BYTE      MD_MAH
      000000A8H.4 SFRSYM    DATA     BIT       ES0
      000000DBH   SFRSYM    DATA     BYTE      LVSR
      000000CBH   SFRSYM    DATA     BYTE      MD_MBH
      000000C0H.4 SFRSYM    DATA     BIT       PADC0
      000000B8H   SFRSYM    DATA     BYTE      IP0
      000000F5H   SFRSYM    DATA     BYTE      PI_UKMAXH
      000000C0H.5 SFRSYM    DATA     BIT       PADC1
      000000C0H   SFRSYM    DATA     BYTE      IP1
      000000C8H   SFRSYM    DATA     BYTE      IP2
      000000F6H   SFRSYM    DATA     BYTE      PI_UKMINL
      000000C2H   SFRSYM    DATA     BYTE      MD_MAL
      00000098H.2 SFRSYM    DATA     BIT       RB8
      000000D8H   SFRSYM    DATA     BYTE      IP3
      000000CAH   SFRSYM    DATA     BYTE      MD_MBL
      000000A8H   SFRSYM    DATA     BIT       EX0
      000000F4H   SFRSYM    DATA     BYTE      PI_UKMAXL
      00000098H.3 SFRSYM    DATA     BIT       TB8
      000000B7H   SFRSYM    DATA     BYTE      TIM0_CCR1H
      000000A8H.2 SFRSYM    DATA     BIT       EX1
      000000BBH   SFRSYM    DATA     BYTE      TIM0_CCR2H
      000000D0H   SFRSYM    DATA     BIT       P
      000000BDH   SFRSYM    DATA     BYTE      TIM0_CCR3H
      000000BFH   SFRSYM    DATA     BYTE      TIM0_CCR4H
      000000C8H.2 SFRSYM    DATA     BIT       PTIM230
      000000EBH   SFRSYM    DATA     BYTE      PI_EKH
      00000098H.5 SFRSYM    DATA     BIT       SM2
      000000B6H   SFRSYM    DATA     BYTE      TIM0_CCR1L
      000000B1H   SFRSYM    DATA     BYTE      TIM0_SR1
      000000C8H.3 SFRSYM    DATA     BIT       PTIM231
      000000BAH   SFRSYM    DATA     BYTE      TIM0_CCR2L
      000000BCH   SFRSYM    DATA     BYTE      TIM0_CCR3L
      000000BEH   SFRSYM    DATA     BYTE      TIM0_CCR4L
      000000D8H.6 SFRSYM    DATA     BIT       PMCD0
      000000C8H.4 SFRSYM    DATA     BIT       PTIM450
      000000D0H.3 SFRSYM    DATA     BIT       RS0
      000000DDH   SFRSYM    DATA     BYTE      LPF_KH
      000000F3H   SFRSYM    DATA     BYTE      PI_KIH
      000000EAH   SFRSYM    DATA     BYTE      PI_EKL
      000000E8H   SFRSYM    DATA     BYTE      FOC_SET0
      000000D8H.7 SFRSYM    DATA     BIT       PMCD1
      000000C8H.5 SFRSYM    DATA     BIT       PTIM451
      000000D0H.4 SFRSYM    DATA     BIT       RS1
      000000E9H   SFRSYM    DATA     BYTE      FOC_SET1
      000000B8H.6 SFRSYM    DATA     BIT       PFOC0
      000000DCH   SFRSYM    DATA     BYTE      LPF_KL
      000000F2H   SFRSYM    DATA     BYTE      PI_KIL
      000000B8H.7 SFRSYM    DATA     BIT       PFOC1
      000000ADH   SFRSYM    DATA     BYTE      TIM2_DRH
      000000B9H   SFRSYM    DATA     BYTE      TIM0_IER
      00000083H   SFRSYM    DATA     BYTE      DPH
      000000EFH   SFRSYM    DATA     BYTE      PI_KPH
      000000A5H   SFRSYM    DATA     BYTE      TIM3_DRH
      00000095H   SFRSYM    DATA     BYTE      TIM4_DRH
      0000008DH   SFRSYM    DATA     BYTE      TIM5_DRH
      000000ACH   SFRSYM    DATA     BYTE      TIM2_DRL
      00000082H   SFRSYM    DATA     BYTE      DPL
      000000EEH   SFRSYM    DATA     BYTE      PI_KPL
      000000A4H   SFRSYM    DATA     BYTE      TIM3_DRL
      000000F8H.7 SFRSYM    DATA     BIT       MOE
      000000C0H.6 SFRSYM    DATA     BIT       PCMP0
      000000EDH   SFRSYM    DATA     BYTE      PI_UKH
      00000094H   SFRSYM    DATA     BYTE      TIM4_DRL
      000000C0H.7 SFRSYM    DATA     BIT       PCMP1
LX51 LINKER/LOCATER V4.66.1.0                                                         08/07/2017  15:30:51  PAGE 107


      000000DFH   SFRSYM    DATA     BYTE      LPF_XH
      0000008CH   SFRSYM    DATA     BYTE      TIM5_DRL
      000000AEH   SFRSYM    DATA     WORD      TIM2_ARR
      000000A8H.5 SFRSYM    DATA     BIT       MCDIE
      000000C9H   SFRSYM    DATA     BYTE      RSTSRC
      000000E7H   SFRSYM    DATA     BYTE      LPF_YH
      000000A6H   SFRSYM    DATA     WORD      TIM3_ARR
      00000088H.6 SFRSYM    DATA     BIT       MCDIF
      00000098H.4 SFRSYM    DATA     BIT       REN
      00000096H   SFRSYM    DATA     WORD      TIM4_ARR
      000000ECH   SFRSYM    DATA     BYTE      PI_UKL
      000000D7H   SFRSYM    DATA     BYTE      CMP_SR
      0000008EH   SFRSYM    DATA     WORD      TIM5_ARR
      000000DEH   SFRSYM    DATA     BYTE      LPF_XL
      000000E6H   SFRSYM    DATA     BYTE      LPF_YL
      000000C8H   SFRSYM    DATA     BIT       PRTC0
      000000C8H.1 SFRSYM    DATA     BIT       PRTC1
      000000E8H.7 SFRSYM    DATA     BIT       FOCEN
      000000C8H.6 SFRSYM    DATA     BIT       PTSD0
      000000D8H.4 SFRSYM    DATA     BIT       PSPI0
      000000C8H.7 SFRSYM    DATA     BIT       PTSD1
      000000D8H.5 SFRSYM    DATA     BIT       PSPI1
      0000009BH   SFRSYM    DATA     BYTE      UT_BAUDH
      000000E4H   SFRSYM    DATA     WORD      SV_ANGLE
      000000B5H   SFRSYM    DATA     BYTE      TIM2_ADTRH
      0000009AH   SFRSYM    DATA     BYTE      UT_BAUDL
      000000FCH   SFRSYM    DATA     BYTE      P0_OE
      000000FDH   SFRSYM    DATA     BYTE      P1_OE
      000000D0H.5 SFRSYM    DATA     BIT       F0
      000000B4H   SFRSYM    DATA     BYTE      TIM2_ADTRL
      000000FEH   SFRSYM    DATA     BYTE      P2_OE
      000000D0H.1 SFRSYM    DATA     BIT       F1
      00000080H   SFRSYM    DATA     BIT       GP00
      000000FFH   SFRSYM    DATA     BYTE      P3_OE
      00000090H   SFRSYM    DATA     BIT       GP10
      00000080H.1 SFRSYM    DATA     BIT       GP01
      000000A8H.6 SFRSYM    DATA     BIT       RTCIE
      000000A0H   SFRSYM    DATA     BIT       GP20
      00000090H.1 SFRSYM    DATA     BIT       GP11
      00000080H.2 SFRSYM    DATA     BIT       GP02
      000000E3H   SFRSYM    DATA     BYTE      SV_USH
      000000B0H   SFRSYM    DATA     BIT       GP30
      000000A0H.1 SFRSYM    DATA     BIT       GP21
      00000090H.2 SFRSYM    DATA     BIT       GP12
      00000080H.3 SFRSYM    DATA     BIT       GP03
      000000B8H   SFRSYM    DATA     BIT       PLVW0
      000000A8H.1 SFRSYM    DATA     BIT       TSDIE
      000000D0H   SFRSYM    DATA     BYTE      PSW
      000000B0H.1 SFRSYM    DATA     BIT       GP31
      000000A0H.2 SFRSYM    DATA     BIT       GP22
      00000090H.3 SFRSYM    DATA     BIT       GP13
      00000080H.4 SFRSYM    DATA     BIT       GP04
      000000B8H.1 SFRSYM    DATA     BIT       PLVW1
      000000A8H.3 SFRSYM    DATA     BIT       SPIIE
      00000088H.5 SFRSYM    DATA     BIT       TSDIF
      000000B0H.2 SFRSYM    DATA     BIT       GP32
      000000A0H.3 SFRSYM    DATA     BIT       GP23
      00000090H.4 SFRSYM    DATA     BIT       GP14
      00000080H.5 SFRSYM    DATA     BIT       GP05
      00000084H   SFRSYM    DATA     BYTE      FLKEY
      000000B3H   SFRSYM    DATA     BYTE      TIM2_CMTRH
      000000B0H.3 SFRSYM    DATA     BIT       GP33
      000000A0H.4 SFRSYM    DATA     BIT       GP24
      00000090H.5 SFRSYM    DATA     BIT       GP15
      00000080H.6 SFRSYM    DATA     BIT       GP06
LX51 LINKER/LOCATER V4.66.1.0                                                         08/07/2017  15:30:51  PAGE 108


      00000088H   SFRSYM    DATA     BIT       IT00

      0100306CH   BLOCK     CODE     ---       LVL=0
      0100306CH   LINE      CODE     ---       #31
      0100306CH   LINE      CODE     ---       #32
      0100306CH   LINE      CODE     ---       #34
      01003073H   LINE      CODE     ---       #35
      01003078H   LINE      CODE     ---       #36
      0100307CH   LINE      CODE     ---       #47
      01003083H   LINE      CODE     ---       #50
      ---         BLOCKEND  ---      ---       LVL=0

      ---         MODULE    ---      ---       FU68XX_MCCMP
      01002566H   PUBLIC    CODE     ---       CMP_Config
      000000E2H   SFRSYM    DATA     BYTE      SV_USL
      000000ABH   SFRSYM    DATA     BYTE      TIM2_CNTRH
      000000B0H.4 SFRSYM    DATA     BIT       GP34
      000000A0H.5 SFRSYM    DATA     BIT       GP25
      00000090H.6 SFRSYM    DATA     BIT       GP16
      00000080H.7 SFRSYM    DATA     BIT       GP07
      00000088H.1 SFRSYM    DATA     BIT       IT01
      00000088H.3 SFRSYM    DATA     BIT       IT10
      000000F6H   SFRSYM    DATA     WORD      PI_UKMIN
      000000C2H   SFRSYM    DATA     WORD      MD_MA
      000000A3H   SFRSYM    DATA     BYTE      TIM3_CNTRH
      000000B0H.5 SFRSYM    DATA     BIT       GP35
      000000A0H.6 SFRSYM    DATA     BIT       GP26
      00000090H.7 SFRSYM    DATA     BIT       GP17
      00000080H   SFRSYM    DATA     BYTE      P0
      00000088H.4 SFRSYM    DATA     BIT       IT11
      000000CAH   SFRSYM    DATA     WORD      MD_MB
      00000093H   SFRSYM    DATA     BYTE      TIM4_CNTRH
      000000B0H.6 SFRSYM    DATA     BIT       GP36
      000000A0H.7 SFRSYM    DATA     BIT       GP27
      00000090H   SFRSYM    DATA     BYTE      P1
      000000D9H   SFRSYM    DATA     BYTE      EVT_FILT
      000000F4H   SFRSYM    DATA     WORD      PI_UKMAX
      0000008BH   SFRSYM    DATA     BYTE      TIM5_CNTRH
      000000B2H   SFRSYM    DATA     BYTE      TIM2_CMTRL
      000000B0H.7 SFRSYM    DATA     BIT       GP37
      000000A0H   SFRSYM    DATA     BYTE      P2
      000000AAH   SFRSYM    DATA     BYTE      TIM2_CNTRL
      000000B0H   SFRSYM    DATA     BYTE      P3
      000000A2H   SFRSYM    DATA     BYTE      TIM3_CNTRL
      000000D0H.6 SFRSYM    DATA     BIT       AC
      00000092H   SFRSYM    DATA     BYTE      TIM4_CNTRL
      0000008AH   SFRSYM    DATA     BYTE      TIM5_CNTRL
      000000B6H   SFRSYM    DATA     WORD      TIM0_CCR1
      000000A8H.7 SFRSYM    DATA     BIT       EA
      000000D5H   SFRSYM    DATA     BYTE      CMP_CR0
      000000BAH   SFRSYM    DATA     WORD      TIM0_CCR2
      000000D6H   SFRSYM    DATA     BYTE      CMP_CR1
      000000BCH   SFRSYM    DATA     WORD      TIM0_CCR3
      00000085H   SFRSYM    DATA     BYTE      PSCTL
      000000DAH   SFRSYM    DATA     BYTE      CMP_CR2
      000000BEH   SFRSYM    DATA     WORD      TIM0_CCR4
      000000B8H.2 SFRSYM    DATA     BIT       PX00
      000000EAH   SFRSYM    DATA     WORD      PI_EK
      000000F8H   SFRSYM    DATA     BIT       OISUH
      000000B8H.3 SFRSYM    DATA     BIT       PX01
      000000B8H.4 SFRSYM    DATA     BIT       PX10
      000000F8H.2 SFRSYM    DATA     BIT       OISVH
      000000B8H.5 SFRSYM    DATA     BIT       PX11
      000000F8H.4 SFRSYM    DATA     BIT       OISWH
      000000DCH   SFRSYM    DATA     WORD      LPF_K
LX51 LINKER/LOCATER V4.66.1.0                                                         08/07/2017  15:30:51  PAGE 109


      000000F2H   SFRSYM    DATA     WORD      PI_KI
      000000F8H.1 SFRSYM    DATA     BIT       OISUL
      000000A8H   SFRSYM    DATA     BYTE      IE
      000000F8H.3 SFRSYM    DATA     BIT       OISVL
      000000F8H.5 SFRSYM    DATA     BIT       OISWL
      000000D1H   SFRSYM    DATA     BYTE      P1IE
      00000098H.6 SFRSYM    DATA     BIT       MOD0
      000000D3H   SFRSYM    DATA     BYTE      P2IE
      000000D2H   SFRSYM    DATA     BYTE      P1IF
      000000F9H   SFRSYM    DATA     BYTE      PL_CR
      00000098H.7 SFRSYM    DATA     BIT       MOD1
      000000D4H   SFRSYM    DATA     BYTE      P2IF
      000000ACH   SFRSYM    DATA     WORD      TIM2_DR
      00000082H   SFRSYM    DATA     WORD      DP
      000000EEH   SFRSYM    DATA     WORD      PI_KP
      000000A4H   SFRSYM    DATA     WORD      TIM3_DR
      00000094H   SFRSYM    DATA     WORD      TIM4_DR
      0000008CH   SFRSYM    DATA     WORD      TIM5_DR
      000000F1H   SFRSYM    DATA     BYTE      OSC_CFG
      000000C1H   SFRSYM    DATA     BYTE      MD_MODE
      000000ECH   SFRSYM    DATA     WORD      PI_UK
      000000DEH   SFRSYM    DATA     WORD      LPF_X
      00000098H   SFRSYM    DATA     BIT       RI
      000000E6H   SFRSYM    DATA     WORD      LPF_Y
      000000C0H   SFRSYM    DATA     BIT       PTIM00
      000000D0H.7 SFRSYM    DATA     BIT       CY
      00000098H.1 SFRSYM    DATA     BIT       TI
      000000C0H.1 SFRSYM    DATA     BIT       PTIM01
      000000C0H.2 SFRSYM    DATA     BIT       PTIM10
      000000C0H.3 SFRSYM    DATA     BIT       PTIM11
      000000E1H   SFRSYM    DATA     BYTE      SV_CR
      00000098H   SFRSYM    DATA     BYTE      UT_CR
      00000099H   SFRSYM    DATA     BYTE      UT_DR
      000000F8H.6 SFRSYM    DATA     BIT       OIS4
      00000081H   SFRSYM    DATA     BYTE      SP
      000000D0H.2 SFRSYM    DATA     BIT       OV
      000000C4H   SFRSYM    DATA     BYTE      MD_DA0
      0000009AH   SFRSYM    DATA     WORD      UT_BAUD
      000000CCH   SFRSYM    DATA     BYTE      MD_DB0
      000000C5H   SFRSYM    DATA     BYTE      MD_DA1
      000000CDH   SFRSYM    DATA     BYTE      MD_DB1
      000000C6H   SFRSYM    DATA     BYTE      MD_DA2
      000000CEH   SFRSYM    DATA     BYTE      MD_DB2
      000000C7H   SFRSYM    DATA     BYTE      MD_DA3
      000000B4H   SFRSYM    DATA     WORD      TIM2_ADTR
      000000CFH   SFRSYM    DATA     BYTE      MD_DB3
      000000AFH   SFRSYM    DATA     BYTE      TIM2_ARRH
      000000A7H   SFRSYM    DATA     BYTE      TIM3_ARRH
      00000097H   SFRSYM    DATA     BYTE      TIM4_ARRH
      0000008FH   SFRSYM    DATA     BYTE      TIM5_ARRH
      000000AEH   SFRSYM    DATA     BYTE      TIM2_ARRL
      000000A6H   SFRSYM    DATA     BYTE      TIM3_ARRL
      00000087H   SFRSYM    DATA     BYTE      PCON
      000000E2H   SFRSYM    DATA     WORD      SV_US
      00000096H   SFRSYM    DATA     BYTE      TIM4_ARRL
      0000008EH   SFRSYM    DATA     BYTE      TIM5_ARRL
      000000B2H   SFRSYM    DATA     WORD      TIM2_CMTR
      00000088H   SFRSYM    DATA     BYTE      TCON
      000000AAH   SFRSYM    DATA     WORD      TIM2_CNTR
      000000A2H   SFRSYM    DATA     WORD      TIM3_CNTR
      00000092H   SFRSYM    DATA     WORD      TIM4_CNTR
      0000008AH   SFRSYM    DATA     WORD      TIM5_CNTR
      000000E5H   SFRSYM    DATA     BYTE      SV_ANGLEH
      000000D8H   SFRSYM    DATA     BIT       PUART0
      000000E4H   SFRSYM    DATA     BYTE      SV_ANGLEL
LX51 LINKER/LOCATER V4.66.1.0                                                         08/07/2017  15:30:51  PAGE 110


      000000C6H   SFRSYM    DATA     WORD      MD_DAH
      000000D8H.1 SFRSYM    DATA     BIT       PUART1
      000000D8H.2 SFRSYM    DATA     BIT       PI2C0
      00000088H.2 SFRSYM    DATA     BIT       IF0
      000000CEH   SFRSYM    DATA     WORD      MD_DBH
      000000D8H.3 SFRSYM    DATA     BIT       PI2C1
      000000F0H   SFRSYM    DATA     BYTE      B
      000000C4H   SFRSYM    DATA     WORD      MD_DAL
      000000A1H   SFRSYM    DATA     BYTE      TIM2_CR0
      000000CCH   SFRSYM    DATA     WORD      MD_DBL
      0000009CH   SFRSYM    DATA     BYTE      TIM3_CR0
      000000A9H   SFRSYM    DATA     BYTE      TIM2_CR1
      0000009EH   SFRSYM    DATA     BYTE      TIM4_CR0
      0000009DH   SFRSYM    DATA     BYTE      TIM3_CR1
      00000089H   SFRSYM    DATA     BYTE      TIM5_CR0
      0000009FH   SFRSYM    DATA     BYTE      TIM4_CR1
      000000F8H   SFRSYM    DATA     BYTE      DRV_OUT
      00000091H   SFRSYM    DATA     BYTE      TIM5_CR1
      000000E0H   SFRSYM    DATA     BYTE      ACC
      000000F7H   SFRSYM    DATA     BYTE      PI_UKMINH
      000000C3H   SFRSYM    DATA     BYTE      MD_MAH
      000000A8H.4 SFRSYM    DATA     BIT       ES0
      000000DBH   SFRSYM    DATA     BYTE      LVSR
      000000CBH   SFRSYM    DATA     BYTE      MD_MBH
      000000C0H.4 SFRSYM    DATA     BIT       PADC0
      000000B8H   SFRSYM    DATA     BYTE      IP0
      000000F5H   SFRSYM    DATA     BYTE      PI_UKMAXH
      000000C0H.5 SFRSYM    DATA     BIT       PADC1
      000000C0H   SFRSYM    DATA     BYTE      IP1
      000000C8H   SFRSYM    DATA     BYTE      IP2
      000000F6H   SFRSYM    DATA     BYTE      PI_UKMINL
      000000C2H   SFRSYM    DATA     BYTE      MD_MAL
      00000098H.2 SFRSYM    DATA     BIT       RB8
      000000D8H   SFRSYM    DATA     BYTE      IP3
      000000CAH   SFRSYM    DATA     BYTE      MD_MBL
      000000A8H   SFRSYM    DATA     BIT       EX0
      000000F4H   SFRSYM    DATA     BYTE      PI_UKMAXL
      00000098H.3 SFRSYM    DATA     BIT       TB8
      000000B7H   SFRSYM    DATA     BYTE      TIM0_CCR1H
      000000A8H.2 SFRSYM    DATA     BIT       EX1
      000000BBH   SFRSYM    DATA     BYTE      TIM0_CCR2H
      000000D0H   SFRSYM    DATA     BIT       P
      000000BDH   SFRSYM    DATA     BYTE      TIM0_CCR3H
      000000BFH   SFRSYM    DATA     BYTE      TIM0_CCR4H
      000000C8H.2 SFRSYM    DATA     BIT       PTIM230
      000000EBH   SFRSYM    DATA     BYTE      PI_EKH
      00000098H.5 SFRSYM    DATA     BIT       SM2
      000000B6H   SFRSYM    DATA     BYTE      TIM0_CCR1L
      000000B1H   SFRSYM    DATA     BYTE      TIM0_SR1
      000000C8H.3 SFRSYM    DATA     BIT       PTIM231
      000000BAH   SFRSYM    DATA     BYTE      TIM0_CCR2L
      000000BCH   SFRSYM    DATA     BYTE      TIM0_CCR3L
      000000BEH   SFRSYM    DATA     BYTE      TIM0_CCR4L
      000000D8H.6 SFRSYM    DATA     BIT       PMCD0
      000000C8H.4 SFRSYM    DATA     BIT       PTIM450
      000000D0H.3 SFRSYM    DATA     BIT       RS0
      000000DDH   SFRSYM    DATA     BYTE      LPF_KH
      000000F3H   SFRSYM    DATA     BYTE      PI_KIH
      000000EAH   SFRSYM    DATA     BYTE      PI_EKL
      000000E8H   SFRSYM    DATA     BYTE      FOC_SET0
      000000D8H.7 SFRSYM    DATA     BIT       PMCD1
      000000C8H.5 SFRSYM    DATA     BIT       PTIM451
      000000D0H.4 SFRSYM    DATA     BIT       RS1
      000000E9H   SFRSYM    DATA     BYTE      FOC_SET1
      000000B8H.6 SFRSYM    DATA     BIT       PFOC0
LX51 LINKER/LOCATER V4.66.1.0                                                         08/07/2017  15:30:51  PAGE 111


      000000DCH   SFRSYM    DATA     BYTE      LPF_KL
      000000F2H   SFRSYM    DATA     BYTE      PI_KIL
      000000B8H.7 SFRSYM    DATA     BIT       PFOC1
      000000ADH   SFRSYM    DATA     BYTE      TIM2_DRH
      000000B9H   SFRSYM    DATA     BYTE      TIM0_IER
      00000083H   SFRSYM    DATA     BYTE      DPH
      000000EFH   SFRSYM    DATA     BYTE      PI_KPH
      000000A5H   SFRSYM    DATA     BYTE      TIM3_DRH
      00000095H   SFRSYM    DATA     BYTE      TIM4_DRH
      0000008DH   SFRSYM    DATA     BYTE      TIM5_DRH
      000000ACH   SFRSYM    DATA     BYTE      TIM2_DRL
      00000082H   SFRSYM    DATA     BYTE      DPL
      000000EEH   SFRSYM    DATA     BYTE      PI_KPL
      000000A4H   SFRSYM    DATA     BYTE      TIM3_DRL
      000000F8H.7 SFRSYM    DATA     BIT       MOE
      000000C0H.6 SFRSYM    DATA     BIT       PCMP0
      000000EDH   SFRSYM    DATA     BYTE      PI_UKH
      00000094H   SFRSYM    DATA     BYTE      TIM4_DRL
      000000C0H.7 SFRSYM    DATA     BIT       PCMP1
      000000DFH   SFRSYM    DATA     BYTE      LPF_XH
      0000008CH   SFRSYM    DATA     BYTE      TIM5_DRL
      000000AEH   SFRSYM    DATA     WORD      TIM2_ARR
      000000A8H.5 SFRSYM    DATA     BIT       MCDIE
      000000C9H   SFRSYM    DATA     BYTE      RSTSRC
      000000E7H   SFRSYM    DATA     BYTE      LPF_YH
      000000A6H   SFRSYM    DATA     WORD      TIM3_ARR
      00000088H.6 SFRSYM    DATA     BIT       MCDIF
      00000098H.4 SFRSYM    DATA     BIT       REN
      00000096H   SFRSYM    DATA     WORD      TIM4_ARR
      000000ECH   SFRSYM    DATA     BYTE      PI_UKL
      000000D7H   SFRSYM    DATA     BYTE      CMP_SR
      0000008EH   SFRSYM    DATA     WORD      TIM5_ARR
      000000DEH   SFRSYM    DATA     BYTE      LPF_XL
      000000E6H   SFRSYM    DATA     BYTE      LPF_YL
      000000C8H   SFRSYM    DATA     BIT       PRTC0
      000000C8H.1 SFRSYM    DATA     BIT       PRTC1
      000000E8H.7 SFRSYM    DATA     BIT       FOCEN
      000000C8H.6 SFRSYM    DATA     BIT       PTSD0
      000000D8H.4 SFRSYM    DATA     BIT       PSPI0
      000000C8H.7 SFRSYM    DATA     BIT       PTSD1
      000000D8H.5 SFRSYM    DATA     BIT       PSPI1
      0000009BH   SFRSYM    DATA     BYTE      UT_BAUDH
      000000E4H   SFRSYM    DATA     WORD      SV_ANGLE
      000000B5H   SFRSYM    DATA     BYTE      TIM2_ADTRH
      0000009AH   SFRSYM    DATA     BYTE      UT_BAUDL
      000000FCH   SFRSYM    DATA     BYTE      P0_OE
      000000FDH   SFRSYM    DATA     BYTE      P1_OE
      000000D0H.5 SFRSYM    DATA     BIT       F0
      000000B4H   SFRSYM    DATA     BYTE      TIM2_ADTRL
      000000FEH   SFRSYM    DATA     BYTE      P2_OE
      000000D0H.1 SFRSYM    DATA     BIT       F1
      00000080H   SFRSYM    DATA     BIT       GP00
      000000FFH   SFRSYM    DATA     BYTE      P3_OE
      00000090H   SFRSYM    DATA     BIT       GP10
      00000080H.1 SFRSYM    DATA     BIT       GP01
      000000A8H.6 SFRSYM    DATA     BIT       RTCIE
      000000A0H   SFRSYM    DATA     BIT       GP20
      00000090H.1 SFRSYM    DATA     BIT       GP11
      00000080H.2 SFRSYM    DATA     BIT       GP02
      000000E3H   SFRSYM    DATA     BYTE      SV_USH
      000000B0H   SFRSYM    DATA     BIT       GP30
      000000A0H.1 SFRSYM    DATA     BIT       GP21
      00000090H.2 SFRSYM    DATA     BIT       GP12
      00000080H.3 SFRSYM    DATA     BIT       GP03
      000000B8H   SFRSYM    DATA     BIT       PLVW0
LX51 LINKER/LOCATER V4.66.1.0                                                         08/07/2017  15:30:51  PAGE 112


      000000A8H.1 SFRSYM    DATA     BIT       TSDIE
      000000D0H   SFRSYM    DATA     BYTE      PSW
      000000B0H.1 SFRSYM    DATA     BIT       GP31
      000000A0H.2 SFRSYM    DATA     BIT       GP22
      00000090H.3 SFRSYM    DATA     BIT       GP13
      00000080H.4 SFRSYM    DATA     BIT       GP04
      000000B8H.1 SFRSYM    DATA     BIT       PLVW1
      000000A8H.3 SFRSYM    DATA     BIT       SPIIE
      00000088H.5 SFRSYM    DATA     BIT       TSDIF
      000000B0H.2 SFRSYM    DATA     BIT       GP32
      000000A0H.3 SFRSYM    DATA     BIT       GP23
      00000090H.4 SFRSYM    DATA     BIT       GP14
      00000080H.5 SFRSYM    DATA     BIT       GP05
      00000084H   SFRSYM    DATA     BYTE      FLKEY
      000000B3H   SFRSYM    DATA     BYTE      TIM2_CMTRH
      000000B0H.3 SFRSYM    DATA     BIT       GP33
      000000A0H.4 SFRSYM    DATA     BIT       GP24
      00000090H.5 SFRSYM    DATA     BIT       GP15
      00000080H.6 SFRSYM    DATA     BIT       GP06
      00000088H   SFRSYM    DATA     BIT       IT00

      01002566H   BLOCK     CODE     ---       LVL=0
      01002566H   LINE      CODE     ---       #31
      01002566H   LINE      CODE     ---       #32
      01002566H   LINE      CODE     ---       #41
      0100256DH   LINE      CODE     ---       #42
      01002571H   LINE      CODE     ---       #43
      01002574H   LINE      CODE     ---       #49
      01002577H   LINE      CODE     ---       #50
      0100257AH   LINE      CODE     ---       #51
      0100257DH   LINE      CODE     ---       #57
      01002580H   LINE      CODE     ---       #59
      01002583H   LINE      CODE     ---       #60
      01002586H   LINE      CODE     ---       #67
      01002589H   LINE      CODE     ---       #68
      0100258CH   LINE      CODE     ---       #71
      0100258FH   LINE      CODE     ---       #73
      01002596H   LINE      CODE     ---       #74
      0100259AH   LINE      CODE     ---       #75
      0100259EH   LINE      CODE     ---       #76
      010025A2H   LINE      CODE     ---       #77
      010025A7H   LINE      CODE     ---       #78
      010025ABH   LINE      CODE     ---       #85
      010025AEH   LINE      CODE     ---       #86
      010025B1H   LINE      CODE     ---       #87
      010025B4H   LINE      CODE     ---       #91
      010025B7H   LINE      CODE     ---       #96
      010025BAH   LINE      CODE     ---       #97
      010025BDH   LINE      CODE     ---       #98
      010025C0H   LINE      CODE     ---       #99
      010025C3H   LINE      CODE     ---       #102
      010025C6H   LINE      CODE     ---       #103
      010025C9H   LINE      CODE     ---       #104
      010025CCH   LINE      CODE     ---       #105
      010025CFH   LINE      CODE     ---       #106
      010025D2H   LINE      CODE     ---       #107
      010025D5H   LINE      CODE     ---       #109
      010025D8H   LINE      CODE     ---       #110
      010025DBH   LINE      CODE     ---       #111
      010025DEH   LINE      CODE     ---       #113
      ---         BLOCKEND  ---      ---       LVL=0

      ---         MODULE    ---      ---       FU68XX_MCFLASH
      0200027DH   PUBLIC    XDATA    ---       PageRomAddress
      0200027CH   PUBLIC    XDATA    BYTE      WriteRomValue
LX51 LINKER/LOCATER V4.66.1.0                                                         08/07/2017  15:30:51  PAGE 113


      0200027BH   PUBLIC    XDATA    BYTE      ReadRomValue
      0200027AH   PUBLIC    XDATA    BYTE      OffsetRomAddressCur
      02000279H   PUBLIC    XDATA    BYTE      OffsetRomAddressTar
      000000E2H   SFRSYM    DATA     BYTE      SV_USL
      000000ABH   SFRSYM    DATA     BYTE      TIM2_CNTRH
      000000B0H.4 SFRSYM    DATA     BIT       GP34
      000000A0H.5 SFRSYM    DATA     BIT       GP25
      00000090H.6 SFRSYM    DATA     BIT       GP16
      00000080H.7 SFRSYM    DATA     BIT       GP07
      00000088H.1 SFRSYM    DATA     BIT       IT01
      00000088H.3 SFRSYM    DATA     BIT       IT10
      000000F6H   SFRSYM    DATA     WORD      PI_UKMIN
      000000C2H   SFRSYM    DATA     WORD      MD_MA
      000000A3H   SFRSYM    DATA     BYTE      TIM3_CNTRH
      000000B0H.5 SFRSYM    DATA     BIT       GP35
      000000A0H.6 SFRSYM    DATA     BIT       GP26
      00000090H.7 SFRSYM    DATA     BIT       GP17
      00000080H   SFRSYM    DATA     BYTE      P0
      00000088H.4 SFRSYM    DATA     BIT       IT11
      000000CAH   SFRSYM    DATA     WORD      MD_MB
      00000093H   SFRSYM    DATA     BYTE      TIM4_CNTRH
      000000B0H.6 SFRSYM    DATA     BIT       GP36
      000000A0H.7 SFRSYM    DATA     BIT       GP27
      00000090H   SFRSYM    DATA     BYTE      P1
      000000D9H   SFRSYM    DATA     BYTE      EVT_FILT
      000000F4H   SFRSYM    DATA     WORD      PI_UKMAX
      0000008BH   SFRSYM    DATA     BYTE      TIM5_CNTRH
      000000B2H   SFRSYM    DATA     BYTE      TIM2_CMTRL
      000000B0H.7 SFRSYM    DATA     BIT       GP37
      000000A0H   SFRSYM    DATA     BYTE      P2
      000000AAH   SFRSYM    DATA     BYTE      TIM2_CNTRL
      000000B0H   SFRSYM    DATA     BYTE      P3
      000000A2H   SFRSYM    DATA     BYTE      TIM3_CNTRL
      000000D0H.6 SFRSYM    DATA     BIT       AC
      00000092H   SFRSYM    DATA     BYTE      TIM4_CNTRL
      0000008AH   SFRSYM    DATA     BYTE      TIM5_CNTRL
      000000B6H   SFRSYM    DATA     WORD      TIM0_CCR1
      000000A8H.7 SFRSYM    DATA     BIT       EA
      000000D5H   SFRSYM    DATA     BYTE      CMP_CR0
      000000BAH   SFRSYM    DATA     WORD      TIM0_CCR2
      000000D6H   SFRSYM    DATA     BYTE      CMP_CR1
      000000BCH   SFRSYM    DATA     WORD      TIM0_CCR3
      00000085H   SFRSYM    DATA     BYTE      PSCTL
      000000DAH   SFRSYM    DATA     BYTE      CMP_CR2
      000000BEH   SFRSYM    DATA     WORD      TIM0_CCR4
      000000B8H.2 SFRSYM    DATA     BIT       PX00
      000000EAH   SFRSYM    DATA     WORD      PI_EK
      000000F8H   SFRSYM    DATA     BIT       OISUH
      000000B8H.3 SFRSYM    DATA     BIT       PX01
      000000B8H.4 SFRSYM    DATA     BIT       PX10
      000000F8H.2 SFRSYM    DATA     BIT       OISVH
      000000B8H.5 SFRSYM    DATA     BIT       PX11
      000000F8H.4 SFRSYM    DATA     BIT       OISWH
      000000DCH   SFRSYM    DATA     WORD      LPF_K
      000000F2H   SFRSYM    DATA     WORD      PI_KI
      000000F8H.1 SFRSYM    DATA     BIT       OISUL
      000000A8H   SFRSYM    DATA     BYTE      IE
      000000F8H.3 SFRSYM    DATA     BIT       OISVL
      000000F8H.5 SFRSYM    DATA     BIT       OISWL
      000000D1H   SFRSYM    DATA     BYTE      P1IE
      00000098H.6 SFRSYM    DATA     BIT       MOD0
      000000D3H   SFRSYM    DATA     BYTE      P2IE
      000000D2H   SFRSYM    DATA     BYTE      P1IF
      000000F9H   SFRSYM    DATA     BYTE      PL_CR
      00000098H.7 SFRSYM    DATA     BIT       MOD1
LX51 LINKER/LOCATER V4.66.1.0                                                         08/07/2017  15:30:51  PAGE 114


      000000D4H   SFRSYM    DATA     BYTE      P2IF
      000000ACH   SFRSYM    DATA     WORD      TIM2_DR
      00000082H   SFRSYM    DATA     WORD      DP
      000000EEH   SFRSYM    DATA     WORD      PI_KP
      000000A4H   SFRSYM    DATA     WORD      TIM3_DR
      00000094H   SFRSYM    DATA     WORD      TIM4_DR
      0000008CH   SFRSYM    DATA     WORD      TIM5_DR
      000000F1H   SFRSYM    DATA     BYTE      OSC_CFG
      000000C1H   SFRSYM    DATA     BYTE      MD_MODE
      000000ECH   SFRSYM    DATA     WORD      PI_UK
      000000DEH   SFRSYM    DATA     WORD      LPF_X
      00000098H   SFRSYM    DATA     BIT       RI
      000000E6H   SFRSYM    DATA     WORD      LPF_Y
      000000C0H   SFRSYM    DATA     BIT       PTIM00
      000000D0H.7 SFRSYM    DATA     BIT       CY
      00000098H.1 SFRSYM    DATA     BIT       TI
      000000C0H.1 SFRSYM    DATA     BIT       PTIM01
      000000C0H.2 SFRSYM    DATA     BIT       PTIM10
      000000C0H.3 SFRSYM    DATA     BIT       PTIM11
      000000E1H   SFRSYM    DATA     BYTE      SV_CR
      00000098H   SFRSYM    DATA     BYTE      UT_CR
      00000099H   SFRSYM    DATA     BYTE      UT_DR
      000000F8H.6 SFRSYM    DATA     BIT       OIS4
      00000081H   SFRSYM    DATA     BYTE      SP
      000000D0H.2 SFRSYM    DATA     BIT       OV
      000000C4H   SFRSYM    DATA     BYTE      MD_DA0
      0000009AH   SFRSYM    DATA     WORD      UT_BAUD
      000000CCH   SFRSYM    DATA     BYTE      MD_DB0
      000000C5H   SFRSYM    DATA     BYTE      MD_DA1
      000000CDH   SFRSYM    DATA     BYTE      MD_DB1
      000000C6H   SFRSYM    DATA     BYTE      MD_DA2
      000000CEH   SFRSYM    DATA     BYTE      MD_DB2
      000000C7H   SFRSYM    DATA     BYTE      MD_DA3
      000000B4H   SFRSYM    DATA     WORD      TIM2_ADTR
      000000CFH   SFRSYM    DATA     BYTE      MD_DB3
      000000AFH   SFRSYM    DATA     BYTE      TIM2_ARRH
      000000A7H   SFRSYM    DATA     BYTE      TIM3_ARRH
      00000097H   SFRSYM    DATA     BYTE      TIM4_ARRH
      0000008FH   SFRSYM    DATA     BYTE      TIM5_ARRH
      000000AEH   SFRSYM    DATA     BYTE      TIM2_ARRL
      000000A6H   SFRSYM    DATA     BYTE      TIM3_ARRL
      00000087H   SFRSYM    DATA     BYTE      PCON
      000000E2H   SFRSYM    DATA     WORD      SV_US
      00000096H   SFRSYM    DATA     BYTE      TIM4_ARRL
      0000008EH   SFRSYM    DATA     BYTE      TIM5_ARRL
      000000B2H   SFRSYM    DATA     WORD      TIM2_CMTR
      00000088H   SFRSYM    DATA     BYTE      TCON
      000000AAH   SFRSYM    DATA     WORD      TIM2_CNTR
      000000A2H   SFRSYM    DATA     WORD      TIM3_CNTR
      00000092H   SFRSYM    DATA     WORD      TIM4_CNTR
      0000008AH   SFRSYM    DATA     WORD      TIM5_CNTR
      000000E5H   SFRSYM    DATA     BYTE      SV_ANGLEH
      000000D8H   SFRSYM    DATA     BIT       PUART0
      000000E4H   SFRSYM    DATA     BYTE      SV_ANGLEL
      000000C6H   SFRSYM    DATA     WORD      MD_DAH
      000000D8H.1 SFRSYM    DATA     BIT       PUART1
      000000D8H.2 SFRSYM    DATA     BIT       PI2C0
      00000088H.2 SFRSYM    DATA     BIT       IF0
      000000CEH   SFRSYM    DATA     WORD      MD_DBH
      000000D8H.3 SFRSYM    DATA     BIT       PI2C1
      000000F0H   SFRSYM    DATA     BYTE      B
      000000C4H   SFRSYM    DATA     WORD      MD_DAL
      000000A1H   SFRSYM    DATA     BYTE      TIM2_CR0
      000000CCH   SFRSYM    DATA     WORD      MD_DBL
      0000009CH   SFRSYM    DATA     BYTE      TIM3_CR0
LX51 LINKER/LOCATER V4.66.1.0                                                         08/07/2017  15:30:51  PAGE 115


      000000A9H   SFRSYM    DATA     BYTE      TIM2_CR1
      0000009EH   SFRSYM    DATA     BYTE      TIM4_CR0
      0000009DH   SFRSYM    DATA     BYTE      TIM3_CR1
      00000089H   SFRSYM    DATA     BYTE      TIM5_CR0
      0000009FH   SFRSYM    DATA     BYTE      TIM4_CR1
      000000F8H   SFRSYM    DATA     BYTE      DRV_OUT
      00000091H   SFRSYM    DATA     BYTE      TIM5_CR1
      000000E0H   SFRSYM    DATA     BYTE      ACC
      000000F7H   SFRSYM    DATA     BYTE      PI_UKMINH
      000000C3H   SFRSYM    DATA     BYTE      MD_MAH
      000000A8H.4 SFRSYM    DATA     BIT       ES0
      000000DBH   SFRSYM    DATA     BYTE      LVSR
      000000CBH   SFRSYM    DATA     BYTE      MD_MBH
      000000C0H.4 SFRSYM    DATA     BIT       PADC0
      000000B8H   SFRSYM    DATA     BYTE      IP0
      000000F5H   SFRSYM    DATA     BYTE      PI_UKMAXH
      000000C0H.5 SFRSYM    DATA     BIT       PADC1
      000000C0H   SFRSYM    DATA     BYTE      IP1
      000000C8H   SFRSYM    DATA     BYTE      IP2
      000000F6H   SFRSYM    DATA     BYTE      PI_UKMINL
      000000C2H   SFRSYM    DATA     BYTE      MD_MAL
      00000098H.2 SFRSYM    DATA     BIT       RB8
      000000D8H   SFRSYM    DATA     BYTE      IP3
      000000CAH   SFRSYM    DATA     BYTE      MD_MBL
      000000A8H   SFRSYM    DATA     BIT       EX0
      000000F4H   SFRSYM    DATA     BYTE      PI_UKMAXL
      00000098H.3 SFRSYM    DATA     BIT       TB8
      000000B7H   SFRSYM    DATA     BYTE      TIM0_CCR1H
      000000A8H.2 SFRSYM    DATA     BIT       EX1
      000000BBH   SFRSYM    DATA     BYTE      TIM0_CCR2H
      000000D0H   SFRSYM    DATA     BIT       P
      000000BDH   SFRSYM    DATA     BYTE      TIM0_CCR3H
      000000BFH   SFRSYM    DATA     BYTE      TIM0_CCR4H
      000000C8H.2 SFRSYM    DATA     BIT       PTIM230
      000000EBH   SFRSYM    DATA     BYTE      PI_EKH
      00000098H.5 SFRSYM    DATA     BIT       SM2
      000000B6H   SFRSYM    DATA     BYTE      TIM0_CCR1L
      000000B1H   SFRSYM    DATA     BYTE      TIM0_SR1
      000000C8H.3 SFRSYM    DATA     BIT       PTIM231
      000000BAH   SFRSYM    DATA     BYTE      TIM0_CCR2L
      000000BCH   SFRSYM    DATA     BYTE      TIM0_CCR3L
      000000BEH   SFRSYM    DATA     BYTE      TIM0_CCR4L
      000000D8H.6 SFRSYM    DATA     BIT       PMCD0
      000000C8H.4 SFRSYM    DATA     BIT       PTIM450
      000000D0H.3 SFRSYM    DATA     BIT       RS0
      000000DDH   SFRSYM    DATA     BYTE      LPF_KH
      000000F3H   SFRSYM    DATA     BYTE      PI_KIH
      000000EAH   SFRSYM    DATA     BYTE      PI_EKL
      000000E8H   SFRSYM    DATA     BYTE      FOC_SET0
      000000D8H.7 SFRSYM    DATA     BIT       PMCD1
      000000C8H.5 SFRSYM    DATA     BIT       PTIM451
      000000D0H.4 SFRSYM    DATA     BIT       RS1
      000000E9H   SFRSYM    DATA     BYTE      FOC_SET1
      000000B8H.6 SFRSYM    DATA     BIT       PFOC0
      000000DCH   SFRSYM    DATA     BYTE      LPF_KL
      000000F2H   SFRSYM    DATA     BYTE      PI_KIL
      000000B8H.7 SFRSYM    DATA     BIT       PFOC1
      000000ADH   SFRSYM    DATA     BYTE      TIM2_DRH
      000000B9H   SFRSYM    DATA     BYTE      TIM0_IER
      00000083H   SFRSYM    DATA     BYTE      DPH
      000000EFH   SFRSYM    DATA     BYTE      PI_KPH
      000000A5H   SFRSYM    DATA     BYTE      TIM3_DRH
      00000095H   SFRSYM    DATA     BYTE      TIM4_DRH
      0000008DH   SFRSYM    DATA     BYTE      TIM5_DRH
      000000ACH   SFRSYM    DATA     BYTE      TIM2_DRL
LX51 LINKER/LOCATER V4.66.1.0                                                         08/07/2017  15:30:51  PAGE 116


      00000082H   SFRSYM    DATA     BYTE      DPL
      000000EEH   SFRSYM    DATA     BYTE      PI_KPL
      000000A4H   SFRSYM    DATA     BYTE      TIM3_DRL
      000000F8H.7 SFRSYM    DATA     BIT       MOE
      000000C0H.6 SFRSYM    DATA     BIT       PCMP0
      000000EDH   SFRSYM    DATA     BYTE      PI_UKH
      00000094H   SFRSYM    DATA     BYTE      TIM4_DRL
      000000C0H.7 SFRSYM    DATA     BIT       PCMP1
      000000DFH   SFRSYM    DATA     BYTE      LPF_XH
      0000008CH   SFRSYM    DATA     BYTE      TIM5_DRL
      000000AEH   SFRSYM    DATA     WORD      TIM2_ARR
      000000A8H.5 SFRSYM    DATA     BIT       MCDIE
      000000C9H   SFRSYM    DATA     BYTE      RSTSRC
      000000E7H   SFRSYM    DATA     BYTE      LPF_YH
      000000A6H   SFRSYM    DATA     WORD      TIM3_ARR
      00000088H.6 SFRSYM    DATA     BIT       MCDIF
      00000098H.4 SFRSYM    DATA     BIT       REN
      00000096H   SFRSYM    DATA     WORD      TIM4_ARR
      000000ECH   SFRSYM    DATA     BYTE      PI_UKL
      000000D7H   SFRSYM    DATA     BYTE      CMP_SR
      0000008EH   SFRSYM    DATA     WORD      TIM5_ARR
      000000DEH   SFRSYM    DATA     BYTE      LPF_XL
      000000E6H   SFRSYM    DATA     BYTE      LPF_YL
      000000C8H   SFRSYM    DATA     BIT       PRTC0
      000000C8H.1 SFRSYM    DATA     BIT       PRTC1
      000000E8H.7 SFRSYM    DATA     BIT       FOCEN
      000000C8H.6 SFRSYM    DATA     BIT       PTSD0
      000000D8H.4 SFRSYM    DATA     BIT       PSPI0
      000000C8H.7 SFRSYM    DATA     BIT       PTSD1
      000000D8H.5 SFRSYM    DATA     BIT       PSPI1
      0000009BH   SFRSYM    DATA     BYTE      UT_BAUDH
      000000E4H   SFRSYM    DATA     WORD      SV_ANGLE
      000000B5H   SFRSYM    DATA     BYTE      TIM2_ADTRH
      0000009AH   SFRSYM    DATA     BYTE      UT_BAUDL
      000000FCH   SFRSYM    DATA     BYTE      P0_OE
      000000FDH   SFRSYM    DATA     BYTE      P1_OE
      000000D0H.5 SFRSYM    DATA     BIT       F0
      000000B4H   SFRSYM    DATA     BYTE      TIM2_ADTRL
      000000FEH   SFRSYM    DATA     BYTE      P2_OE
      000000D0H.1 SFRSYM    DATA     BIT       F1
      00000080H   SFRSYM    DATA     BIT       GP00
      000000FFH   SFRSYM    DATA     BYTE      P3_OE
      00000090H   SFRSYM    DATA     BIT       GP10
      00000080H.1 SFRSYM    DATA     BIT       GP01
      000000A8H.6 SFRSYM    DATA     BIT       RTCIE
      000000A0H   SFRSYM    DATA     BIT       GP20
      00000090H.1 SFRSYM    DATA     BIT       GP11
      00000080H.2 SFRSYM    DATA     BIT       GP02
      000000E3H   SFRSYM    DATA     BYTE      SV_USH
      000000B0H   SFRSYM    DATA     BIT       GP30
      000000A0H.1 SFRSYM    DATA     BIT       GP21
      00000090H.2 SFRSYM    DATA     BIT       GP12
      00000080H.3 SFRSYM    DATA     BIT       GP03
      000000B8H   SFRSYM    DATA     BIT       PLVW0
      000000A8H.1 SFRSYM    DATA     BIT       TSDIE
      000000D0H   SFRSYM    DATA     BYTE      PSW
      000000B0H.1 SFRSYM    DATA     BIT       GP31
      000000A0H.2 SFRSYM    DATA     BIT       GP22
      00000090H.3 SFRSYM    DATA     BIT       GP13
      00000080H.4 SFRSYM    DATA     BIT       GP04
      000000B8H.1 SFRSYM    DATA     BIT       PLVW1
      000000A8H.3 SFRSYM    DATA     BIT       SPIIE
      00000088H.5 SFRSYM    DATA     BIT       TSDIF
      000000B0H.2 SFRSYM    DATA     BIT       GP32
      000000A0H.3 SFRSYM    DATA     BIT       GP23
LX51 LINKER/LOCATER V4.66.1.0                                                         08/07/2017  15:30:51  PAGE 117


      00000090H.4 SFRSYM    DATA     BIT       GP14
      00000080H.5 SFRSYM    DATA     BIT       GP05
      00000084H   SFRSYM    DATA     BYTE      FLKEY
      000000B3H   SFRSYM    DATA     BYTE      TIM2_CMTRH
      000000B0H.3 SFRSYM    DATA     BIT       GP33
      000000A0H.4 SFRSYM    DATA     BIT       GP24
      00000090H.5 SFRSYM    DATA     BIT       GP15
      00000080H.6 SFRSYM    DATA     BIT       GP06
      00000088H   SFRSYM    DATA     BIT       IT00
      00000007H   SYMBOL    DATA     BYTE      i
      00000005H   SYMBOL    DATA     BYTE      tevalue
      00000007H   SYMBOL    DATA     BYTE      value
      00000007H   SYMBOL    DATA     BYTE      TempReadRomValue

      ---         MODULE    ---      ---       FU68XX_MCHALL
      010030D5H   PUBLIC    CODE     ---       Hall_Init
      000000E2H   SFRSYM    DATA     BYTE      SV_USL
      000000ABH   SFRSYM    DATA     BYTE      TIM2_CNTRH
      000000B0H.4 SFRSYM    DATA     BIT       GP34
      000000A0H.5 SFRSYM    DATA     BIT       GP25
      00000090H.6 SFRSYM    DATA     BIT       GP16
      00000080H.7 SFRSYM    DATA     BIT       GP07
      00000088H.1 SFRSYM    DATA     BIT       IT01
      00000088H.3 SFRSYM    DATA     BIT       IT10
      000000F6H   SFRSYM    DATA     WORD      PI_UKMIN
      000000C2H   SFRSYM    DATA     WORD      MD_MA
      000000A3H   SFRSYM    DATA     BYTE      TIM3_CNTRH
      000000B0H.5 SFRSYM    DATA     BIT       GP35
      000000A0H.6 SFRSYM    DATA     BIT       GP26
      00000090H.7 SFRSYM    DATA     BIT       GP17
      00000080H   SFRSYM    DATA     BYTE      P0
      00000088H.4 SFRSYM    DATA     BIT       IT11
      000000CAH   SFRSYM    DATA     WORD      MD_MB
      00000093H   SFRSYM    DATA     BYTE      TIM4_CNTRH
      000000B0H.6 SFRSYM    DATA     BIT       GP36
      000000A0H.7 SFRSYM    DATA     BIT       GP27
      00000090H   SFRSYM    DATA     BYTE      P1
      000000D9H   SFRSYM    DATA     BYTE      EVT_FILT
      000000F4H   SFRSYM    DATA     WORD      PI_UKMAX
      0000008BH   SFRSYM    DATA     BYTE      TIM5_CNTRH
      000000B2H   SFRSYM    DATA     BYTE      TIM2_CMTRL
      000000B0H.7 SFRSYM    DATA     BIT       GP37
      000000A0H   SFRSYM    DATA     BYTE      P2
      000000AAH   SFRSYM    DATA     BYTE      TIM2_CNTRL
      000000B0H   SFRSYM    DATA     BYTE      P3
      000000A2H   SFRSYM    DATA     BYTE      TIM3_CNTRL
      000000D0H.6 SFRSYM    DATA     BIT       AC
      00000092H   SFRSYM    DATA     BYTE      TIM4_CNTRL
      0000008AH   SFRSYM    DATA     BYTE      TIM5_CNTRL
      000000B6H   SFRSYM    DATA     WORD      TIM0_CCR1
      000000A8H.7 SFRSYM    DATA     BIT       EA
      000000D5H   SFRSYM    DATA     BYTE      CMP_CR0
      000000BAH   SFRSYM    DATA     WORD      TIM0_CCR2
      000000D6H   SFRSYM    DATA     BYTE      CMP_CR1
      000000BCH   SFRSYM    DATA     WORD      TIM0_CCR3
      00000085H   SFRSYM    DATA     BYTE      PSCTL
      000000DAH   SFRSYM    DATA     BYTE      CMP_CR2
      000000BEH   SFRSYM    DATA     WORD      TIM0_CCR4
      000000B8H.2 SFRSYM    DATA     BIT       PX00
      000000EAH   SFRSYM    DATA     WORD      PI_EK
      000000F8H   SFRSYM    DATA     BIT       OISUH
      000000B8H.3 SFRSYM    DATA     BIT       PX01
      000000B8H.4 SFRSYM    DATA     BIT       PX10
      000000F8H.2 SFRSYM    DATA     BIT       OISVH
      000000B8H.5 SFRSYM    DATA     BIT       PX11
LX51 LINKER/LOCATER V4.66.1.0                                                         08/07/2017  15:30:51  PAGE 118


      000000F8H.4 SFRSYM    DATA     BIT       OISWH
      000000DCH   SFRSYM    DATA     WORD      LPF_K
      000000F2H   SFRSYM    DATA     WORD      PI_KI
      000000F8H.1 SFRSYM    DATA     BIT       OISUL
      000000A8H   SFRSYM    DATA     BYTE      IE
      000000F8H.3 SFRSYM    DATA     BIT       OISVL
      000000F8H.5 SFRSYM    DATA     BIT       OISWL
      000000D1H   SFRSYM    DATA     BYTE      P1IE
      00000098H.6 SFRSYM    DATA     BIT       MOD0
      000000D3H   SFRSYM    DATA     BYTE      P2IE
      000000D2H   SFRSYM    DATA     BYTE      P1IF
      000000F9H   SFRSYM    DATA     BYTE      PL_CR
      00000098H.7 SFRSYM    DATA     BIT       MOD1
      000000D4H   SFRSYM    DATA     BYTE      P2IF
      000000ACH   SFRSYM    DATA     WORD      TIM2_DR
      00000082H   SFRSYM    DATA     WORD      DP
      000000EEH   SFRSYM    DATA     WORD      PI_KP
      000000A4H   SFRSYM    DATA     WORD      TIM3_DR
      00000094H   SFRSYM    DATA     WORD      TIM4_DR
      0000008CH   SFRSYM    DATA     WORD      TIM5_DR
      000000F1H   SFRSYM    DATA     BYTE      OSC_CFG
      000000C1H   SFRSYM    DATA     BYTE      MD_MODE
      000000ECH   SFRSYM    DATA     WORD      PI_UK
      000000DEH   SFRSYM    DATA     WORD      LPF_X
      00000098H   SFRSYM    DATA     BIT       RI
      000000E6H   SFRSYM    DATA     WORD      LPF_Y
      000000C0H   SFRSYM    DATA     BIT       PTIM00
      000000D0H.7 SFRSYM    DATA     BIT       CY
      00000098H.1 SFRSYM    DATA     BIT       TI
      000000C0H.1 SFRSYM    DATA     BIT       PTIM01
      000000C0H.2 SFRSYM    DATA     BIT       PTIM10
      000000C0H.3 SFRSYM    DATA     BIT       PTIM11
      000000E1H   SFRSYM    DATA     BYTE      SV_CR
      00000098H   SFRSYM    DATA     BYTE      UT_CR
      00000099H   SFRSYM    DATA     BYTE      UT_DR
      000000F8H.6 SFRSYM    DATA     BIT       OIS4
      00000081H   SFRSYM    DATA     BYTE      SP
      000000D0H.2 SFRSYM    DATA     BIT       OV
      000000C4H   SFRSYM    DATA     BYTE      MD_DA0
      0000009AH   SFRSYM    DATA     WORD      UT_BAUD
      000000CCH   SFRSYM    DATA     BYTE      MD_DB0
      000000C5H   SFRSYM    DATA     BYTE      MD_DA1
      000000CDH   SFRSYM    DATA     BYTE      MD_DB1
      000000C6H   SFRSYM    DATA     BYTE      MD_DA2
      000000CEH   SFRSYM    DATA     BYTE      MD_DB2
      000000C7H   SFRSYM    DATA     BYTE      MD_DA3
      000000B4H   SFRSYM    DATA     WORD      TIM2_ADTR
      000000CFH   SFRSYM    DATA     BYTE      MD_DB3
      000000AFH   SFRSYM    DATA     BYTE      TIM2_ARRH
      000000A7H   SFRSYM    DATA     BYTE      TIM3_ARRH
      00000097H   SFRSYM    DATA     BYTE      TIM4_ARRH
      0000008FH   SFRSYM    DATA     BYTE      TIM5_ARRH
      000000AEH   SFRSYM    DATA     BYTE      TIM2_ARRL
      000000A6H   SFRSYM    DATA     BYTE      TIM3_ARRL
      00000087H   SFRSYM    DATA     BYTE      PCON
      000000E2H   SFRSYM    DATA     WORD      SV_US
      00000096H   SFRSYM    DATA     BYTE      TIM4_ARRL
      0000008EH   SFRSYM    DATA     BYTE      TIM5_ARRL
      000000B2H   SFRSYM    DATA     WORD      TIM2_CMTR
      00000088H   SFRSYM    DATA     BYTE      TCON
      000000AAH   SFRSYM    DATA     WORD      TIM2_CNTR
      000000A2H   SFRSYM    DATA     WORD      TIM3_CNTR
      00000092H   SFRSYM    DATA     WORD      TIM4_CNTR
      0000008AH   SFRSYM    DATA     WORD      TIM5_CNTR
      000000E5H   SFRSYM    DATA     BYTE      SV_ANGLEH
LX51 LINKER/LOCATER V4.66.1.0                                                         08/07/2017  15:30:51  PAGE 119


      000000D8H   SFRSYM    DATA     BIT       PUART0
      000000E4H   SFRSYM    DATA     BYTE      SV_ANGLEL
      000000C6H   SFRSYM    DATA     WORD      MD_DAH
      000000D8H.1 SFRSYM    DATA     BIT       PUART1
      000000D8H.2 SFRSYM    DATA     BIT       PI2C0
      00000088H.2 SFRSYM    DATA     BIT       IF0
      000000CEH   SFRSYM    DATA     WORD      MD_DBH
      000000D8H.3 SFRSYM    DATA     BIT       PI2C1
      000000F0H   SFRSYM    DATA     BYTE      B
      000000C4H   SFRSYM    DATA     WORD      MD_DAL
      000000A1H   SFRSYM    DATA     BYTE      TIM2_CR0
      000000CCH   SFRSYM    DATA     WORD      MD_DBL
      0000009CH   SFRSYM    DATA     BYTE      TIM3_CR0
      000000A9H   SFRSYM    DATA     BYTE      TIM2_CR1
      0000009EH   SFRSYM    DATA     BYTE      TIM4_CR0
      0000009DH   SFRSYM    DATA     BYTE      TIM3_CR1
      00000089H   SFRSYM    DATA     BYTE      TIM5_CR0
      0000009FH   SFRSYM    DATA     BYTE      TIM4_CR1
      000000F8H   SFRSYM    DATA     BYTE      DRV_OUT
      00000091H   SFRSYM    DATA     BYTE      TIM5_CR1
      000000E0H   SFRSYM    DATA     BYTE      ACC
      000000F7H   SFRSYM    DATA     BYTE      PI_UKMINH
      000000C3H   SFRSYM    DATA     BYTE      MD_MAH
      000000A8H.4 SFRSYM    DATA     BIT       ES0
      000000DBH   SFRSYM    DATA     BYTE      LVSR
      000000CBH   SFRSYM    DATA     BYTE      MD_MBH
      000000C0H.4 SFRSYM    DATA     BIT       PADC0
      000000B8H   SFRSYM    DATA     BYTE      IP0
      000000F5H   SFRSYM    DATA     BYTE      PI_UKMAXH
      000000C0H.5 SFRSYM    DATA     BIT       PADC1
      000000C0H   SFRSYM    DATA     BYTE      IP1
      000000C8H   SFRSYM    DATA     BYTE      IP2
      000000F6H   SFRSYM    DATA     BYTE      PI_UKMINL
      000000C2H   SFRSYM    DATA     BYTE      MD_MAL
      00000098H.2 SFRSYM    DATA     BIT       RB8
      000000D8H   SFRSYM    DATA     BYTE      IP3
      000000CAH   SFRSYM    DATA     BYTE      MD_MBL
      000000A8H   SFRSYM    DATA     BIT       EX0
      000000F4H   SFRSYM    DATA     BYTE      PI_UKMAXL
      00000098H.3 SFRSYM    DATA     BIT       TB8
      000000B7H   SFRSYM    DATA     BYTE      TIM0_CCR1H
      000000A8H.2 SFRSYM    DATA     BIT       EX1
      000000BBH   SFRSYM    DATA     BYTE      TIM0_CCR2H
      000000D0H   SFRSYM    DATA     BIT       P
      000000BDH   SFRSYM    DATA     BYTE      TIM0_CCR3H
      000000BFH   SFRSYM    DATA     BYTE      TIM0_CCR4H
      000000C8H.2 SFRSYM    DATA     BIT       PTIM230
      000000EBH   SFRSYM    DATA     BYTE      PI_EKH
      00000098H.5 SFRSYM    DATA     BIT       SM2
      000000B6H   SFRSYM    DATA     BYTE      TIM0_CCR1L
      000000B1H   SFRSYM    DATA     BYTE      TIM0_SR1
      000000C8H.3 SFRSYM    DATA     BIT       PTIM231
      000000BAH   SFRSYM    DATA     BYTE      TIM0_CCR2L
      000000BCH   SFRSYM    DATA     BYTE      TIM0_CCR3L
      000000BEH   SFRSYM    DATA     BYTE      TIM0_CCR4L
      000000D8H.6 SFRSYM    DATA     BIT       PMCD0
      000000C8H.4 SFRSYM    DATA     BIT       PTIM450
      000000D0H.3 SFRSYM    DATA     BIT       RS0
      000000DDH   SFRSYM    DATA     BYTE      LPF_KH
      000000F3H   SFRSYM    DATA     BYTE      PI_KIH
      000000EAH   SFRSYM    DATA     BYTE      PI_EKL
      000000E8H   SFRSYM    DATA     BYTE      FOC_SET0
      000000D8H.7 SFRSYM    DATA     BIT       PMCD1
      000000C8H.5 SFRSYM    DATA     BIT       PTIM451
      000000D0H.4 SFRSYM    DATA     BIT       RS1
LX51 LINKER/LOCATER V4.66.1.0                                                         08/07/2017  15:30:51  PAGE 120


      000000E9H   SFRSYM    DATA     BYTE      FOC_SET1
      000000B8H.6 SFRSYM    DATA     BIT       PFOC0
      000000DCH   SFRSYM    DATA     BYTE      LPF_KL
      000000F2H   SFRSYM    DATA     BYTE      PI_KIL
      000000B8H.7 SFRSYM    DATA     BIT       PFOC1
      000000ADH   SFRSYM    DATA     BYTE      TIM2_DRH
      000000B9H   SFRSYM    DATA     BYTE      TIM0_IER
      00000083H   SFRSYM    DATA     BYTE      DPH
      000000EFH   SFRSYM    DATA     BYTE      PI_KPH
      000000A5H   SFRSYM    DATA     BYTE      TIM3_DRH
      00000095H   SFRSYM    DATA     BYTE      TIM4_DRH
      0000008DH   SFRSYM    DATA     BYTE      TIM5_DRH
      000000ACH   SFRSYM    DATA     BYTE      TIM2_DRL
      00000082H   SFRSYM    DATA     BYTE      DPL
      000000EEH   SFRSYM    DATA     BYTE      PI_KPL
      000000A4H   SFRSYM    DATA     BYTE      TIM3_DRL
      000000F8H.7 SFRSYM    DATA     BIT       MOE
      000000C0H.6 SFRSYM    DATA     BIT       PCMP0
      000000EDH   SFRSYM    DATA     BYTE      PI_UKH
      00000094H   SFRSYM    DATA     BYTE      TIM4_DRL
      000000C0H.7 SFRSYM    DATA     BIT       PCMP1
      000000DFH   SFRSYM    DATA     BYTE      LPF_XH
      0000008CH   SFRSYM    DATA     BYTE      TIM5_DRL
      000000AEH   SFRSYM    DATA     WORD      TIM2_ARR
      000000A8H.5 SFRSYM    DATA     BIT       MCDIE
      000000C9H   SFRSYM    DATA     BYTE      RSTSRC
      000000E7H   SFRSYM    DATA     BYTE      LPF_YH
      000000A6H   SFRSYM    DATA     WORD      TIM3_ARR
      00000088H.6 SFRSYM    DATA     BIT       MCDIF
      00000098H.4 SFRSYM    DATA     BIT       REN
      00000096H   SFRSYM    DATA     WORD      TIM4_ARR
      000000ECH   SFRSYM    DATA     BYTE      PI_UKL
      000000D7H   SFRSYM    DATA     BYTE      CMP_SR
      0000008EH   SFRSYM    DATA     WORD      TIM5_ARR
      000000DEH   SFRSYM    DATA     BYTE      LPF_XL
      000000E6H   SFRSYM    DATA     BYTE      LPF_YL
      000000C8H   SFRSYM    DATA     BIT       PRTC0
      000000C8H.1 SFRSYM    DATA     BIT       PRTC1
      000000E8H.7 SFRSYM    DATA     BIT       FOCEN
      000000C8H.6 SFRSYM    DATA     BIT       PTSD0
      000000D8H.4 SFRSYM    DATA     BIT       PSPI0
      000000C8H.7 SFRSYM    DATA     BIT       PTSD1
      000000D8H.5 SFRSYM    DATA     BIT       PSPI1
      0000009BH   SFRSYM    DATA     BYTE      UT_BAUDH
      000000E4H   SFRSYM    DATA     WORD      SV_ANGLE
      000000B5H   SFRSYM    DATA     BYTE      TIM2_ADTRH
      0000009AH   SFRSYM    DATA     BYTE      UT_BAUDL
      000000FCH   SFRSYM    DATA     BYTE      P0_OE
      000000FDH   SFRSYM    DATA     BYTE      P1_OE
      000000D0H.5 SFRSYM    DATA     BIT       F0
      000000B4H   SFRSYM    DATA     BYTE      TIM2_ADTRL
      000000FEH   SFRSYM    DATA     BYTE      P2_OE
      000000D0H.1 SFRSYM    DATA     BIT       F1
      00000080H   SFRSYM    DATA     BIT       GP00
      000000FFH   SFRSYM    DATA     BYTE      P3_OE
      00000090H   SFRSYM    DATA     BIT       GP10
      00000080H.1 SFRSYM    DATA     BIT       GP01
      000000A8H.6 SFRSYM    DATA     BIT       RTCIE
      000000A0H   SFRSYM    DATA     BIT       GP20
      00000090H.1 SFRSYM    DATA     BIT       GP11
      00000080H.2 SFRSYM    DATA     BIT       GP02
      000000E3H   SFRSYM    DATA     BYTE      SV_USH
      000000B0H   SFRSYM    DATA     BIT       GP30
      000000A0H.1 SFRSYM    DATA     BIT       GP21
      00000090H.2 SFRSYM    DATA     BIT       GP12
LX51 LINKER/LOCATER V4.66.1.0                                                         08/07/2017  15:30:51  PAGE 121


      00000080H.3 SFRSYM    DATA     BIT       GP03
      000000B8H   SFRSYM    DATA     BIT       PLVW0
      000000A8H.1 SFRSYM    DATA     BIT       TSDIE
      000000D0H   SFRSYM    DATA     BYTE      PSW
      000000B0H.1 SFRSYM    DATA     BIT       GP31
      000000A0H.2 SFRSYM    DATA     BIT       GP22
      00000090H.3 SFRSYM    DATA     BIT       GP13
      00000080H.4 SFRSYM    DATA     BIT       GP04
      000000B8H.1 SFRSYM    DATA     BIT       PLVW1
      000000A8H.3 SFRSYM    DATA     BIT       SPIIE
      00000088H.5 SFRSYM    DATA     BIT       TSDIF
      000000B0H.2 SFRSYM    DATA     BIT       GP32
      000000A0H.3 SFRSYM    DATA     BIT       GP23
      00000090H.4 SFRSYM    DATA     BIT       GP14
      00000080H.5 SFRSYM    DATA     BIT       GP05
      00000084H   SFRSYM    DATA     BYTE      FLKEY
      000000B3H   SFRSYM    DATA     BYTE      TIM2_CMTRH
      000000B0H.3 SFRSYM    DATA     BIT       GP33
      000000A0H.4 SFRSYM    DATA     BIT       GP24
      00000090H.5 SFRSYM    DATA     BIT       GP15
      00000080H.6 SFRSYM    DATA     BIT       GP06
      00000088H   SFRSYM    DATA     BIT       IT00

      010030D5H   BLOCK     CODE     ---       LVL=0
      010030D5H   LINE      CODE     ---       #36
      010030D5H   LINE      CODE     ---       #37
      010030D5H   LINE      CODE     ---       #43
      010030DCH   LINE      CODE     ---       #44
      010030E0H   LINE      CODE     ---       #45
      010030E5H   LINE      CODE     ---       #47
      ---         BLOCKEND  ---      ---       LVL=0
      00000007H   SYMBOL    DATA     BYTE      HallStatus

      ---         MODULE    ---      ---       FU68XX_MCLPF
      02000282H   PUBLIC    XDATA    BYTE      LPF_DONE
      01002F42H   PUBLIC    CODE     ---       _MC_LPF
      01002F1EH   PUBLIC    CODE     ---       _LPF
      000000E2H   SFRSYM    DATA     BYTE      SV_USL
      000000ABH   SFRSYM    DATA     BYTE      TIM2_CNTRH
      000000B0H.4 SFRSYM    DATA     BIT       GP34
      000000A0H.5 SFRSYM    DATA     BIT       GP25
      00000090H.6 SFRSYM    DATA     BIT       GP16
      00000080H.7 SFRSYM    DATA     BIT       GP07
      00000088H.1 SFRSYM    DATA     BIT       IT01
      00000088H.3 SFRSYM    DATA     BIT       IT10
      000000F6H   SFRSYM    DATA     WORD      PI_UKMIN
      000000C2H   SFRSYM    DATA     WORD      MD_MA
      000000A3H   SFRSYM    DATA     BYTE      TIM3_CNTRH
      000000B0H.5 SFRSYM    DATA     BIT       GP35
      000000A0H.6 SFRSYM    DATA     BIT       GP26
      00000090H.7 SFRSYM    DATA     BIT       GP17
      00000080H   SFRSYM    DATA     BYTE      P0
      00000088H.4 SFRSYM    DATA     BIT       IT11
      000000CAH   SFRSYM    DATA     WORD      MD_MB
      00000093H   SFRSYM    DATA     BYTE      TIM4_CNTRH
      000000B0H.6 SFRSYM    DATA     BIT       GP36
      000000A0H.7 SFRSYM    DATA     BIT       GP27
      00000090H   SFRSYM    DATA     BYTE      P1
      000000D9H   SFRSYM    DATA     BYTE      EVT_FILT
      000000F4H   SFRSYM    DATA     WORD      PI_UKMAX
      0000008BH   SFRSYM    DATA     BYTE      TIM5_CNTRH
      000000B2H   SFRSYM    DATA     BYTE      TIM2_CMTRL
      000000B0H.7 SFRSYM    DATA     BIT       GP37
      000000A0H   SFRSYM    DATA     BYTE      P2
      000000AAH   SFRSYM    DATA     BYTE      TIM2_CNTRL
LX51 LINKER/LOCATER V4.66.1.0                                                         08/07/2017  15:30:51  PAGE 122


      000000B0H   SFRSYM    DATA     BYTE      P3
      000000A2H   SFRSYM    DATA     BYTE      TIM3_CNTRL
      000000D0H.6 SFRSYM    DATA     BIT       AC
      00000092H   SFRSYM    DATA     BYTE      TIM4_CNTRL
      0000008AH   SFRSYM    DATA     BYTE      TIM5_CNTRL
      000000B6H   SFRSYM    DATA     WORD      TIM0_CCR1
      000000A8H.7 SFRSYM    DATA     BIT       EA
      000000D5H   SFRSYM    DATA     BYTE      CMP_CR0
      000000BAH   SFRSYM    DATA     WORD      TIM0_CCR2
      000000D6H   SFRSYM    DATA     BYTE      CMP_CR1
      000000BCH   SFRSYM    DATA     WORD      TIM0_CCR3
      00000085H   SFRSYM    DATA     BYTE      PSCTL
      000000DAH   SFRSYM    DATA     BYTE      CMP_CR2
      000000BEH   SFRSYM    DATA     WORD      TIM0_CCR4
      000000B8H.2 SFRSYM    DATA     BIT       PX00
      000000EAH   SFRSYM    DATA     WORD      PI_EK
      000000F8H   SFRSYM    DATA     BIT       OISUH
      000000B8H.3 SFRSYM    DATA     BIT       PX01
      000000B8H.4 SFRSYM    DATA     BIT       PX10
      000000F8H.2 SFRSYM    DATA     BIT       OISVH
      000000B8H.5 SFRSYM    DATA     BIT       PX11
      000000F8H.4 SFRSYM    DATA     BIT       OISWH
      000000DCH   SFRSYM    DATA     WORD      LPF_K
      000000F2H   SFRSYM    DATA     WORD      PI_KI
      000000F8H.1 SFRSYM    DATA     BIT       OISUL
      000000A8H   SFRSYM    DATA     BYTE      IE
      000000F8H.3 SFRSYM    DATA     BIT       OISVL
      000000F8H.5 SFRSYM    DATA     BIT       OISWL
      000000D1H   SFRSYM    DATA     BYTE      P1IE
      00000098H.6 SFRSYM    DATA     BIT       MOD0
      000000D3H   SFRSYM    DATA     BYTE      P2IE
      000000D2H   SFRSYM    DATA     BYTE      P1IF
      000000F9H   SFRSYM    DATA     BYTE      PL_CR
      00000098H.7 SFRSYM    DATA     BIT       MOD1
      000000D4H   SFRSYM    DATA     BYTE      P2IF
      000000ACH   SFRSYM    DATA     WORD      TIM2_DR
      00000082H   SFRSYM    DATA     WORD      DP
      000000EEH   SFRSYM    DATA     WORD      PI_KP
      000000A4H   SFRSYM    DATA     WORD      TIM3_DR
      00000094H   SFRSYM    DATA     WORD      TIM4_DR
      0000008CH   SFRSYM    DATA     WORD      TIM5_DR
      000000F1H   SFRSYM    DATA     BYTE      OSC_CFG
      000000C1H   SFRSYM    DATA     BYTE      MD_MODE
      000000ECH   SFRSYM    DATA     WORD      PI_UK
      000000DEH   SFRSYM    DATA     WORD      LPF_X
      00000098H   SFRSYM    DATA     BIT       RI
      000000E6H   SFRSYM    DATA     WORD      LPF_Y
      000000C0H   SFRSYM    DATA     BIT       PTIM00
      000000D0H.7 SFRSYM    DATA     BIT       CY
      00000098H.1 SFRSYM    DATA     BIT       TI
      000000C0H.1 SFRSYM    DATA     BIT       PTIM01
      000000C0H.2 SFRSYM    DATA     BIT       PTIM10
      000000C0H.3 SFRSYM    DATA     BIT       PTIM11
      000000E1H   SFRSYM    DATA     BYTE      SV_CR
      00000098H   SFRSYM    DATA     BYTE      UT_CR
      00000099H   SFRSYM    DATA     BYTE      UT_DR
      000000F8H.6 SFRSYM    DATA     BIT       OIS4
      00000081H   SFRSYM    DATA     BYTE      SP
      000000D0H.2 SFRSYM    DATA     BIT       OV
      000000C4H   SFRSYM    DATA     BYTE      MD_DA0
      0000009AH   SFRSYM    DATA     WORD      UT_BAUD
      000000CCH   SFRSYM    DATA     BYTE      MD_DB0
      000000C5H   SFRSYM    DATA     BYTE      MD_DA1
      000000CDH   SFRSYM    DATA     BYTE      MD_DB1
      000000C6H   SFRSYM    DATA     BYTE      MD_DA2
LX51 LINKER/LOCATER V4.66.1.0                                                         08/07/2017  15:30:51  PAGE 123


      000000CEH   SFRSYM    DATA     BYTE      MD_DB2
      000000C7H   SFRSYM    DATA     BYTE      MD_DA3
      000000B4H   SFRSYM    DATA     WORD      TIM2_ADTR
      000000CFH   SFRSYM    DATA     BYTE      MD_DB3
      000000AFH   SFRSYM    DATA     BYTE      TIM2_ARRH
      000000A7H   SFRSYM    DATA     BYTE      TIM3_ARRH
      00000097H   SFRSYM    DATA     BYTE      TIM4_ARRH
      0000008FH   SFRSYM    DATA     BYTE      TIM5_ARRH
      000000AEH   SFRSYM    DATA     BYTE      TIM2_ARRL
      000000A6H   SFRSYM    DATA     BYTE      TIM3_ARRL
      00000087H   SFRSYM    DATA     BYTE      PCON
      000000E2H   SFRSYM    DATA     WORD      SV_US
      00000096H   SFRSYM    DATA     BYTE      TIM4_ARRL
      0000008EH   SFRSYM    DATA     BYTE      TIM5_ARRL
      000000B2H   SFRSYM    DATA     WORD      TIM2_CMTR
      00000088H   SFRSYM    DATA     BYTE      TCON
      000000AAH   SFRSYM    DATA     WORD      TIM2_CNTR
      000000A2H   SFRSYM    DATA     WORD      TIM3_CNTR
      00000092H   SFRSYM    DATA     WORD      TIM4_CNTR
      0000008AH   SFRSYM    DATA     WORD      TIM5_CNTR
      000000E5H   SFRSYM    DATA     BYTE      SV_ANGLEH
      000000D8H   SFRSYM    DATA     BIT       PUART0
      000000E4H   SFRSYM    DATA     BYTE      SV_ANGLEL
      000000C6H   SFRSYM    DATA     WORD      MD_DAH
      000000D8H.1 SFRSYM    DATA     BIT       PUART1
      000000D8H.2 SFRSYM    DATA     BIT       PI2C0
      00000088H.2 SFRSYM    DATA     BIT       IF0
      000000CEH   SFRSYM    DATA     WORD      MD_DBH
      000000D8H.3 SFRSYM    DATA     BIT       PI2C1
      000000F0H   SFRSYM    DATA     BYTE      B
      000000C4H   SFRSYM    DATA     WORD      MD_DAL
      000000A1H   SFRSYM    DATA     BYTE      TIM2_CR0
      000000CCH   SFRSYM    DATA     WORD      MD_DBL
      0000009CH   SFRSYM    DATA     BYTE      TIM3_CR0
      000000A9H   SFRSYM    DATA     BYTE      TIM2_CR1
      0000009EH   SFRSYM    DATA     BYTE      TIM4_CR0
      0000009DH   SFRSYM    DATA     BYTE      TIM3_CR1
      00000089H   SFRSYM    DATA     BYTE      TIM5_CR0
      0000009FH   SFRSYM    DATA     BYTE      TIM4_CR1
      000000F8H   SFRSYM    DATA     BYTE      DRV_OUT
      00000091H   SFRSYM    DATA     BYTE      TIM5_CR1
      000000E0H   SFRSYM    DATA     BYTE      ACC
      000000F7H   SFRSYM    DATA     BYTE      PI_UKMINH
      000000C3H   SFRSYM    DATA     BYTE      MD_MAH
      000000A8H.4 SFRSYM    DATA     BIT       ES0
      000000DBH   SFRSYM    DATA     BYTE      LVSR
      000000CBH   SFRSYM    DATA     BYTE      MD_MBH
      000000C0H.4 SFRSYM    DATA     BIT       PADC0
      000000B8H   SFRSYM    DATA     BYTE      IP0
      000000F5H   SFRSYM    DATA     BYTE      PI_UKMAXH
      000000C0H.5 SFRSYM    DATA     BIT       PADC1
      000000C0H   SFRSYM    DATA     BYTE      IP1
      000000C8H   SFRSYM    DATA     BYTE      IP2
      000000F6H   SFRSYM    DATA     BYTE      PI_UKMINL
      000000C2H   SFRSYM    DATA     BYTE      MD_MAL
      00000098H.2 SFRSYM    DATA     BIT       RB8
      000000D8H   SFRSYM    DATA     BYTE      IP3
      000000CAH   SFRSYM    DATA     BYTE      MD_MBL
      000000A8H   SFRSYM    DATA     BIT       EX0
      000000F4H   SFRSYM    DATA     BYTE      PI_UKMAXL
      00000098H.3 SFRSYM    DATA     BIT       TB8
      000000B7H   SFRSYM    DATA     BYTE      TIM0_CCR1H
      000000A8H.2 SFRSYM    DATA     BIT       EX1
      000000BBH   SFRSYM    DATA     BYTE      TIM0_CCR2H
      000000D0H   SFRSYM    DATA     BIT       P
LX51 LINKER/LOCATER V4.66.1.0                                                         08/07/2017  15:30:51  PAGE 124


      000000BDH   SFRSYM    DATA     BYTE      TIM0_CCR3H
      000000BFH   SFRSYM    DATA     BYTE      TIM0_CCR4H
      000000C8H.2 SFRSYM    DATA     BIT       PTIM230
      000000EBH   SFRSYM    DATA     BYTE      PI_EKH
      00000098H.5 SFRSYM    DATA     BIT       SM2
      000000B6H   SFRSYM    DATA     BYTE      TIM0_CCR1L
      000000B1H   SFRSYM    DATA     BYTE      TIM0_SR1
      000000C8H.3 SFRSYM    DATA     BIT       PTIM231
      000000BAH   SFRSYM    DATA     BYTE      TIM0_CCR2L
      000000BCH   SFRSYM    DATA     BYTE      TIM0_CCR3L
      000000BEH   SFRSYM    DATA     BYTE      TIM0_CCR4L
      000000D8H.6 SFRSYM    DATA     BIT       PMCD0
      000000C8H.4 SFRSYM    DATA     BIT       PTIM450
      000000D0H.3 SFRSYM    DATA     BIT       RS0
      000000DDH   SFRSYM    DATA     BYTE      LPF_KH
      000000F3H   SFRSYM    DATA     BYTE      PI_KIH
      000000EAH   SFRSYM    DATA     BYTE      PI_EKL
      000000E8H   SFRSYM    DATA     BYTE      FOC_SET0
      000000D8H.7 SFRSYM    DATA     BIT       PMCD1
      000000C8H.5 SFRSYM    DATA     BIT       PTIM451
      000000D0H.4 SFRSYM    DATA     BIT       RS1
      000000E9H   SFRSYM    DATA     BYTE      FOC_SET1
      000000B8H.6 SFRSYM    DATA     BIT       PFOC0
      000000DCH   SFRSYM    DATA     BYTE      LPF_KL
      000000F2H   SFRSYM    DATA     BYTE      PI_KIL
      000000B8H.7 SFRSYM    DATA     BIT       PFOC1
      000000ADH   SFRSYM    DATA     BYTE      TIM2_DRH
      000000B9H   SFRSYM    DATA     BYTE      TIM0_IER
      00000083H   SFRSYM    DATA     BYTE      DPH
      000000EFH   SFRSYM    DATA     BYTE      PI_KPH
      000000A5H   SFRSYM    DATA     BYTE      TIM3_DRH
      00000095H   SFRSYM    DATA     BYTE      TIM4_DRH
      0000008DH   SFRSYM    DATA     BYTE      TIM5_DRH
      000000ACH   SFRSYM    DATA     BYTE      TIM2_DRL
      00000082H   SFRSYM    DATA     BYTE      DPL
      000000EEH   SFRSYM    DATA     BYTE      PI_KPL
      000000A4H   SFRSYM    DATA     BYTE      TIM3_DRL
      000000F8H.7 SFRSYM    DATA     BIT       MOE
      000000C0H.6 SFRSYM    DATA     BIT       PCMP0
      000000EDH   SFRSYM    DATA     BYTE      PI_UKH
      00000094H   SFRSYM    DATA     BYTE      TIM4_DRL
      000000C0H.7 SFRSYM    DATA     BIT       PCMP1
      000000DFH   SFRSYM    DATA     BYTE      LPF_XH
      0000008CH   SFRSYM    DATA     BYTE      TIM5_DRL
      000000AEH   SFRSYM    DATA     WORD      TIM2_ARR
      000000A8H.5 SFRSYM    DATA     BIT       MCDIE
      000000C9H   SFRSYM    DATA     BYTE      RSTSRC
      000000E7H   SFRSYM    DATA     BYTE      LPF_YH
      000000A6H   SFRSYM    DATA     WORD      TIM3_ARR
      00000088H.6 SFRSYM    DATA     BIT       MCDIF
      00000098H.4 SFRSYM    DATA     BIT       REN
      00000096H   SFRSYM    DATA     WORD      TIM4_ARR
      000000ECH   SFRSYM    DATA     BYTE      PI_UKL
      000000D7H   SFRSYM    DATA     BYTE      CMP_SR
      0000008EH   SFRSYM    DATA     WORD      TIM5_ARR
      000000DEH   SFRSYM    DATA     BYTE      LPF_XL
      000000E6H   SFRSYM    DATA     BYTE      LPF_YL
      000000C8H   SFRSYM    DATA     BIT       PRTC0
      000000C8H.1 SFRSYM    DATA     BIT       PRTC1
      000000E8H.7 SFRSYM    DATA     BIT       FOCEN
      000000C8H.6 SFRSYM    DATA     BIT       PTSD0
      000000D8H.4 SFRSYM    DATA     BIT       PSPI0
      000000C8H.7 SFRSYM    DATA     BIT       PTSD1
      000000D8H.5 SFRSYM    DATA     BIT       PSPI1
      0000009BH   SFRSYM    DATA     BYTE      UT_BAUDH
LX51 LINKER/LOCATER V4.66.1.0                                                         08/07/2017  15:30:51  PAGE 125


      000000E4H   SFRSYM    DATA     WORD      SV_ANGLE
      000000B5H   SFRSYM    DATA     BYTE      TIM2_ADTRH
      0000009AH   SFRSYM    DATA     BYTE      UT_BAUDL
      000000FCH   SFRSYM    DATA     BYTE      P0_OE
      000000FDH   SFRSYM    DATA     BYTE      P1_OE
      000000D0H.5 SFRSYM    DATA     BIT       F0
      000000B4H   SFRSYM    DATA     BYTE      TIM2_ADTRL
      000000FEH   SFRSYM    DATA     BYTE      P2_OE
      000000D0H.1 SFRSYM    DATA     BIT       F1
      00000080H   SFRSYM    DATA     BIT       GP00
      000000FFH   SFRSYM    DATA     BYTE      P3_OE
      00000090H   SFRSYM    DATA     BIT       GP10
      00000080H.1 SFRSYM    DATA     BIT       GP01
      000000A8H.6 SFRSYM    DATA     BIT       RTCIE
      000000A0H   SFRSYM    DATA     BIT       GP20
      00000090H.1 SFRSYM    DATA     BIT       GP11
      00000080H.2 SFRSYM    DATA     BIT       GP02
      000000E3H   SFRSYM    DATA     BYTE      SV_USH
      000000B0H   SFRSYM    DATA     BIT       GP30
      000000A0H.1 SFRSYM    DATA     BIT       GP21
      00000090H.2 SFRSYM    DATA     BIT       GP12
      00000080H.3 SFRSYM    DATA     BIT       GP03
      000000B8H   SFRSYM    DATA     BIT       PLVW0
      000000A8H.1 SFRSYM    DATA     BIT       TSDIE
      000000D0H   SFRSYM    DATA     BYTE      PSW
      000000B0H.1 SFRSYM    DATA     BIT       GP31
      000000A0H.2 SFRSYM    DATA     BIT       GP22
      00000090H.3 SFRSYM    DATA     BIT       GP13
      00000080H.4 SFRSYM    DATA     BIT       GP04
      000000B8H.1 SFRSYM    DATA     BIT       PLVW1
      000000A8H.3 SFRSYM    DATA     BIT       SPIIE
      00000088H.5 SFRSYM    DATA     BIT       TSDIF
      000000B0H.2 SFRSYM    DATA     BIT       GP32
      000000A0H.3 SFRSYM    DATA     BIT       GP23
      00000090H.4 SFRSYM    DATA     BIT       GP14
      00000080H.5 SFRSYM    DATA     BIT       GP05
      00000084H   SFRSYM    DATA     BYTE      FLKEY
      000000B3H   SFRSYM    DATA     BYTE      TIM2_CMTRH
      000000B0H.3 SFRSYM    DATA     BIT       GP33
      000000A0H.4 SFRSYM    DATA     BIT       GP24
      00000090H.5 SFRSYM    DATA     BIT       GP15
      00000080H.6 SFRSYM    DATA     BIT       GP06
      00000088H   SFRSYM    DATA     BIT       IT00

      01002F1EH   BLOCK     CODE     ---       LVL=0
      00000006H   SYMBOL    DATA     WORD      Xn1
      00000004H   SYMBOL    DATA     WORD      Xn0
      00000002H   SYMBOL    DATA     WORD      K
      01002F1EH   LINE      CODE     ---       #32
      01002F1EH   LINE      CODE     ---       #33
      01002F1EH   LINE      CODE     ---       #34
      01002F22H   LINE      CODE     ---       #35
      01002F26H   LINE      CODE     ---       #36
      01002F30H   LINE      CODE     ---       #37
      01002F33H   LINE      CODE     ---       #38
      01002F34H   LINE      CODE     ---       #39
      01002F35H   LINE      CODE     ---       #40
      01002F36H   LINE      CODE     ---       #41
      01002F37H   LINE      CODE     ---       #42
      01002F38H   LINE      CODE     ---       #43
      01002F39H   LINE      CODE     ---       #44
      01002F3AH   LINE      CODE     ---       #45
      01002F3BH   LINE      CODE     ---       #46
      01002F3CH   LINE      CODE     ---       #47
      01002F3DH   LINE      CODE     ---       #48
LX51 LINKER/LOCATER V4.66.1.0                                                         08/07/2017  15:30:51  PAGE 126


      01002F41H   LINE      CODE     ---       #49
      ---         BLOCKEND  ---      ---       LVL=0

      01002F42H   BLOCK     CODE     ---       LVL=0
      0200020FH   SYMBOL    XDATA    WORD      tXn1
      00000004H   SYMBOL    DATA     WORD      tXn0
      00000002H   SYMBOL    DATA     WORD      tK
      01002F4AH   BLOCK     CODE     NEAR LAB  LVL=1
      00000006H   SYMBOL    DATA     WORD      MC_LPF_Y
      ---         BLOCKEND  ---      ---       LVL=1
      01002F42H   LINE      CODE     ---       #51
      01002F4AH   LINE      CODE     ---       #52
      01002F4AH   LINE      CODE     ---       #55
      01002F51H   LINE      CODE     ---       #56
      01002F51H   LINE      CODE     ---       #57
      01002F54H   LINE      CODE     ---       #58
      01002F5FH   LINE      CODE     ---       #59
      01002F65H   LINE      CODE     ---       #60
      01002F65H   LINE      CODE     ---       #61
      01002F65H   LINE      CODE     ---       #63
      01002F65H   LINE      CODE     ---       #65
      01002F65H   LINE      CODE     ---       #66
      ---         BLOCKEND  ---      ---       LVL=0

      ---         MODULE    ---      ---       FU68XX_MCMDU
      00000020H.1 PUBLIC    BIT      BIT       FlagMDUMUL
      00000020H.0 PUBLIC    BIT      BIT       FlagMDUDIV
      020001FDH   PUBLIC    XDATA    BYTE      ?_MDU_DIV_U32?BYTE
      010021E7H   PUBLIC    CODE     ---       _MDU_DIV_U32
      01002C71H   PUBLIC    CODE     ---       _MDU_DIV_U16
      020001FDH   PUBLIC    XDATA    BYTE      ?_MDU_MULA_U32?BYTE
      01002A5EH   PUBLIC    CODE     ---       _MDU_MULA_U32
      01002E25H   PUBLIC    CODE     ---       _MDU_MULA_U16
      000000E2H   SFRSYM    DATA     BYTE      SV_USL
      000000ABH   SFRSYM    DATA     BYTE      TIM2_CNTRH
      000000B0H.4 SFRSYM    DATA     BIT       GP34
      000000A0H.5 SFRSYM    DATA     BIT       GP25
      00000090H.6 SFRSYM    DATA     BIT       GP16
      00000080H.7 SFRSYM    DATA     BIT       GP07
      00000088H.1 SFRSYM    DATA     BIT       IT01
      00000088H.3 SFRSYM    DATA     BIT       IT10
      000000F6H   SFRSYM    DATA     WORD      PI_UKMIN
      000000C2H   SFRSYM    DATA     WORD      MD_MA
      000000A3H   SFRSYM    DATA     BYTE      TIM3_CNTRH
      000000B0H.5 SFRSYM    DATA     BIT       GP35
      000000A0H.6 SFRSYM    DATA     BIT       GP26
      00000090H.7 SFRSYM    DATA     BIT       GP17
      00000080H   SFRSYM    DATA     BYTE      P0
      00000088H.4 SFRSYM    DATA     BIT       IT11
      000000CAH   SFRSYM    DATA     WORD      MD_MB
      00000093H   SFRSYM    DATA     BYTE      TIM4_CNTRH
      000000B0H.6 SFRSYM    DATA     BIT       GP36
      000000A0H.7 SFRSYM    DATA     BIT       GP27
      00000090H   SFRSYM    DATA     BYTE      P1
      000000D9H   SFRSYM    DATA     BYTE      EVT_FILT
      000000F4H   SFRSYM    DATA     WORD      PI_UKMAX
      0000008BH   SFRSYM    DATA     BYTE      TIM5_CNTRH
      000000B2H   SFRSYM    DATA     BYTE      TIM2_CMTRL
      000000B0H.7 SFRSYM    DATA     BIT       GP37
      000000A0H   SFRSYM    DATA     BYTE      P2
      000000AAH   SFRSYM    DATA     BYTE      TIM2_CNTRL
      000000B0H   SFRSYM    DATA     BYTE      P3
      000000A2H   SFRSYM    DATA     BYTE      TIM3_CNTRL
      000000D0H.6 SFRSYM    DATA     BIT       AC
      00000092H   SFRSYM    DATA     BYTE      TIM4_CNTRL
LX51 LINKER/LOCATER V4.66.1.0                                                         08/07/2017  15:30:51  PAGE 127


      0000008AH   SFRSYM    DATA     BYTE      TIM5_CNTRL
      000000B6H   SFRSYM    DATA     WORD      TIM0_CCR1
      000000A8H.7 SFRSYM    DATA     BIT       EA
      000000D5H   SFRSYM    DATA     BYTE      CMP_CR0
      000000BAH   SFRSYM    DATA     WORD      TIM0_CCR2
      000000D6H   SFRSYM    DATA     BYTE      CMP_CR1
      000000BCH   SFRSYM    DATA     WORD      TIM0_CCR3
      00000085H   SFRSYM    DATA     BYTE      PSCTL
      000000DAH   SFRSYM    DATA     BYTE      CMP_CR2
      000000BEH   SFRSYM    DATA     WORD      TIM0_CCR4
      000000B8H.2 SFRSYM    DATA     BIT       PX00
      000000EAH   SFRSYM    DATA     WORD      PI_EK
      000000F8H   SFRSYM    DATA     BIT       OISUH
      000000B8H.3 SFRSYM    DATA     BIT       PX01
      000000B8H.4 SFRSYM    DATA     BIT       PX10
      000000F8H.2 SFRSYM    DATA     BIT       OISVH
      000000B8H.5 SFRSYM    DATA     BIT       PX11
      000000F8H.4 SFRSYM    DATA     BIT       OISWH
      000000DCH   SFRSYM    DATA     WORD      LPF_K
      000000F2H   SFRSYM    DATA     WORD      PI_KI
      000000F8H.1 SFRSYM    DATA     BIT       OISUL
      000000A8H   SFRSYM    DATA     BYTE      IE
      000000F8H.3 SFRSYM    DATA     BIT       OISVL
      000000F8H.5 SFRSYM    DATA     BIT       OISWL
      000000D1H   SFRSYM    DATA     BYTE      P1IE
      00000098H.6 SFRSYM    DATA     BIT       MOD0
      000000D3H   SFRSYM    DATA     BYTE      P2IE
      000000D2H   SFRSYM    DATA     BYTE      P1IF
      000000F9H   SFRSYM    DATA     BYTE      PL_CR
      00000098H.7 SFRSYM    DATA     BIT       MOD1
      000000D4H   SFRSYM    DATA     BYTE      P2IF
      000000ACH   SFRSYM    DATA     WORD      TIM2_DR
      00000082H   SFRSYM    DATA     WORD      DP
      000000EEH   SFRSYM    DATA     WORD      PI_KP
      000000A4H   SFRSYM    DATA     WORD      TIM3_DR
      00000094H   SFRSYM    DATA     WORD      TIM4_DR
      0000008CH   SFRSYM    DATA     WORD      TIM5_DR
      000000F1H   SFRSYM    DATA     BYTE      OSC_CFG
      000000C1H   SFRSYM    DATA     BYTE      MD_MODE
      000000ECH   SFRSYM    DATA     WORD      PI_UK
      000000DEH   SFRSYM    DATA     WORD      LPF_X
      00000098H   SFRSYM    DATA     BIT       RI
      000000E6H   SFRSYM    DATA     WORD      LPF_Y
      000000C0H   SFRSYM    DATA     BIT       PTIM00
      000000D0H.7 SFRSYM    DATA     BIT       CY
      00000098H.1 SFRSYM    DATA     BIT       TI
      000000C0H.1 SFRSYM    DATA     BIT       PTIM01
      000000C0H.2 SFRSYM    DATA     BIT       PTIM10
      000000C0H.3 SFRSYM    DATA     BIT       PTIM11
      000000E1H   SFRSYM    DATA     BYTE      SV_CR
      00000098H   SFRSYM    DATA     BYTE      UT_CR
      00000099H   SFRSYM    DATA     BYTE      UT_DR
      000000F8H.6 SFRSYM    DATA     BIT       OIS4
      00000081H   SFRSYM    DATA     BYTE      SP
      000000D0H.2 SFRSYM    DATA     BIT       OV
      000000C4H   SFRSYM    DATA     BYTE      MD_DA0
      0000009AH   SFRSYM    DATA     WORD      UT_BAUD
      000000CCH   SFRSYM    DATA     BYTE      MD_DB0
      000000C5H   SFRSYM    DATA     BYTE      MD_DA1
      000000CDH   SFRSYM    DATA     BYTE      MD_DB1
      000000C6H   SFRSYM    DATA     BYTE      MD_DA2
      000000CEH   SFRSYM    DATA     BYTE      MD_DB2
      000000C7H   SFRSYM    DATA     BYTE      MD_DA3
      000000B4H   SFRSYM    DATA     WORD      TIM2_ADTR
      000000CFH   SFRSYM    DATA     BYTE      MD_DB3
LX51 LINKER/LOCATER V4.66.1.0                                                         08/07/2017  15:30:51  PAGE 128


      000000AFH   SFRSYM    DATA     BYTE      TIM2_ARRH
      000000A7H   SFRSYM    DATA     BYTE      TIM3_ARRH
      00000097H   SFRSYM    DATA     BYTE      TIM4_ARRH
      0000008FH   SFRSYM    DATA     BYTE      TIM5_ARRH
      000000AEH   SFRSYM    DATA     BYTE      TIM2_ARRL
      000000A6H   SFRSYM    DATA     BYTE      TIM3_ARRL
      00000087H   SFRSYM    DATA     BYTE      PCON
      000000E2H   SFRSYM    DATA     WORD      SV_US
      00000096H   SFRSYM    DATA     BYTE      TIM4_ARRL
      0000008EH   SFRSYM    DATA     BYTE      TIM5_ARRL
      000000B2H   SFRSYM    DATA     WORD      TIM2_CMTR
      00000088H   SFRSYM    DATA     BYTE      TCON
      000000AAH   SFRSYM    DATA     WORD      TIM2_CNTR
      000000A2H   SFRSYM    DATA     WORD      TIM3_CNTR
      00000092H   SFRSYM    DATA     WORD      TIM4_CNTR
      0000008AH   SFRSYM    DATA     WORD      TIM5_CNTR
      000000E5H   SFRSYM    DATA     BYTE      SV_ANGLEH
      000000D8H   SFRSYM    DATA     BIT       PUART0
      000000E4H   SFRSYM    DATA     BYTE      SV_ANGLEL
      000000C6H   SFRSYM    DATA     WORD      MD_DAH
      000000D8H.1 SFRSYM    DATA     BIT       PUART1
      000000D8H.2 SFRSYM    DATA     BIT       PI2C0
      00000088H.2 SFRSYM    DATA     BIT       IF0
      000000CEH   SFRSYM    DATA     WORD      MD_DBH
      000000D8H.3 SFRSYM    DATA     BIT       PI2C1
      000000F0H   SFRSYM    DATA     BYTE      B
      000000C4H   SFRSYM    DATA     WORD      MD_DAL
      000000A1H   SFRSYM    DATA     BYTE      TIM2_CR0
      000000CCH   SFRSYM    DATA     WORD      MD_DBL
      0000009CH   SFRSYM    DATA     BYTE      TIM3_CR0
      000000A9H   SFRSYM    DATA     BYTE      TIM2_CR1
      0000009EH   SFRSYM    DATA     BYTE      TIM4_CR0
      0000009DH   SFRSYM    DATA     BYTE      TIM3_CR1
      00000089H   SFRSYM    DATA     BYTE      TIM5_CR0
      0000009FH   SFRSYM    DATA     BYTE      TIM4_CR1
      000000F8H   SFRSYM    DATA     BYTE      DRV_OUT
      00000091H   SFRSYM    DATA     BYTE      TIM5_CR1
      000000E0H   SFRSYM    DATA     BYTE      ACC
      000000F7H   SFRSYM    DATA     BYTE      PI_UKMINH
      000000C3H   SFRSYM    DATA     BYTE      MD_MAH
      000000A8H.4 SFRSYM    DATA     BIT       ES0
      000000DBH   SFRSYM    DATA     BYTE      LVSR
      000000CBH   SFRSYM    DATA     BYTE      MD_MBH
      000000C0H.4 SFRSYM    DATA     BIT       PADC0
      000000B8H   SFRSYM    DATA     BYTE      IP0
      000000F5H   SFRSYM    DATA     BYTE      PI_UKMAXH
      000000C0H.5 SFRSYM    DATA     BIT       PADC1
      000000C0H   SFRSYM    DATA     BYTE      IP1
      000000C8H   SFRSYM    DATA     BYTE      IP2
      000000F6H   SFRSYM    DATA     BYTE      PI_UKMINL
      000000C2H   SFRSYM    DATA     BYTE      MD_MAL
      00000098H.2 SFRSYM    DATA     BIT       RB8
      000000D8H   SFRSYM    DATA     BYTE      IP3
      000000CAH   SFRSYM    DATA     BYTE      MD_MBL
      000000A8H   SFRSYM    DATA     BIT       EX0
      000000F4H   SFRSYM    DATA     BYTE      PI_UKMAXL
      00000098H.3 SFRSYM    DATA     BIT       TB8
      000000B7H   SFRSYM    DATA     BYTE      TIM0_CCR1H
      000000A8H.2 SFRSYM    DATA     BIT       EX1
      000000BBH   SFRSYM    DATA     BYTE      TIM0_CCR2H
      000000D0H   SFRSYM    DATA     BIT       P
      000000BDH   SFRSYM    DATA     BYTE      TIM0_CCR3H
      000000BFH   SFRSYM    DATA     BYTE      TIM0_CCR4H
      000000C8H.2 SFRSYM    DATA     BIT       PTIM230
      000000EBH   SFRSYM    DATA     BYTE      PI_EKH
LX51 LINKER/LOCATER V4.66.1.0                                                         08/07/2017  15:30:51  PAGE 129


      00000098H.5 SFRSYM    DATA     BIT       SM2
      000000B6H   SFRSYM    DATA     BYTE      TIM0_CCR1L
      000000B1H   SFRSYM    DATA     BYTE      TIM0_SR1
      000000C8H.3 SFRSYM    DATA     BIT       PTIM231
      000000BAH   SFRSYM    DATA     BYTE      TIM0_CCR2L
      000000BCH   SFRSYM    DATA     BYTE      TIM0_CCR3L
      000000BEH   SFRSYM    DATA     BYTE      TIM0_CCR4L
      000000D8H.6 SFRSYM    DATA     BIT       PMCD0
      000000C8H.4 SFRSYM    DATA     BIT       PTIM450
      000000D0H.3 SFRSYM    DATA     BIT       RS0
      000000DDH   SFRSYM    DATA     BYTE      LPF_KH
      000000F3H   SFRSYM    DATA     BYTE      PI_KIH
      000000EAH   SFRSYM    DATA     BYTE      PI_EKL
      000000E8H   SFRSYM    DATA     BYTE      FOC_SET0
      000000D8H.7 SFRSYM    DATA     BIT       PMCD1
      000000C8H.5 SFRSYM    DATA     BIT       PTIM451
      000000D0H.4 SFRSYM    DATA     BIT       RS1
      000000E9H   SFRSYM    DATA     BYTE      FOC_SET1
      000000B8H.6 SFRSYM    DATA     BIT       PFOC0
      000000DCH   SFRSYM    DATA     BYTE      LPF_KL
      000000F2H   SFRSYM    DATA     BYTE      PI_KIL
      000000B8H.7 SFRSYM    DATA     BIT       PFOC1
      000000ADH   SFRSYM    DATA     BYTE      TIM2_DRH
      000000B9H   SFRSYM    DATA     BYTE      TIM0_IER
      00000083H   SFRSYM    DATA     BYTE      DPH
      000000EFH   SFRSYM    DATA     BYTE      PI_KPH
      000000A5H   SFRSYM    DATA     BYTE      TIM3_DRH
      00000095H   SFRSYM    DATA     BYTE      TIM4_DRH
      0000008DH   SFRSYM    DATA     BYTE      TIM5_DRH
      000000ACH   SFRSYM    DATA     BYTE      TIM2_DRL
      00000082H   SFRSYM    DATA     BYTE      DPL
      000000EEH   SFRSYM    DATA     BYTE      PI_KPL
      000000A4H   SFRSYM    DATA     BYTE      TIM3_DRL
      000000F8H.7 SFRSYM    DATA     BIT       MOE
      000000C0H.6 SFRSYM    DATA     BIT       PCMP0
      000000EDH   SFRSYM    DATA     BYTE      PI_UKH
      00000094H   SFRSYM    DATA     BYTE      TIM4_DRL
      000000C0H.7 SFRSYM    DATA     BIT       PCMP1
      000000DFH   SFRSYM    DATA     BYTE      LPF_XH
      0000008CH   SFRSYM    DATA     BYTE      TIM5_DRL
      000000AEH   SFRSYM    DATA     WORD      TIM2_ARR
      000000A8H.5 SFRSYM    DATA     BIT       MCDIE
      000000C9H   SFRSYM    DATA     BYTE      RSTSRC
      000000E7H   SFRSYM    DATA     BYTE      LPF_YH
      000000A6H   SFRSYM    DATA     WORD      TIM3_ARR
      00000088H.6 SFRSYM    DATA     BIT       MCDIF
      00000098H.4 SFRSYM    DATA     BIT       REN
      00000096H   SFRSYM    DATA     WORD      TIM4_ARR
      000000ECH   SFRSYM    DATA     BYTE      PI_UKL
      000000D7H   SFRSYM    DATA     BYTE      CMP_SR
      0000008EH   SFRSYM    DATA     WORD      TIM5_ARR
      000000DEH   SFRSYM    DATA     BYTE      LPF_XL
      000000E6H   SFRSYM    DATA     BYTE      LPF_YL
      000000C8H   SFRSYM    DATA     BIT       PRTC0
      000000C8H.1 SFRSYM    DATA     BIT       PRTC1
      000000E8H.7 SFRSYM    DATA     BIT       FOCEN
      000000C8H.6 SFRSYM    DATA     BIT       PTSD0
      000000D8H.4 SFRSYM    DATA     BIT       PSPI0
      000000C8H.7 SFRSYM    DATA     BIT       PTSD1
      000000D8H.5 SFRSYM    DATA     BIT       PSPI1
      0000009BH   SFRSYM    DATA     BYTE      UT_BAUDH
      000000E4H   SFRSYM    DATA     WORD      SV_ANGLE
      000000B5H   SFRSYM    DATA     BYTE      TIM2_ADTRH
      0000009AH   SFRSYM    DATA     BYTE      UT_BAUDL
      000000FCH   SFRSYM    DATA     BYTE      P0_OE
LX51 LINKER/LOCATER V4.66.1.0                                                         08/07/2017  15:30:51  PAGE 130


      000000FDH   SFRSYM    DATA     BYTE      P1_OE
      000000D0H.5 SFRSYM    DATA     BIT       F0
      000000B4H   SFRSYM    DATA     BYTE      TIM2_ADTRL
      000000FEH   SFRSYM    DATA     BYTE      P2_OE
      000000D0H.1 SFRSYM    DATA     BIT       F1
      00000080H   SFRSYM    DATA     BIT       GP00
      000000FFH   SFRSYM    DATA     BYTE      P3_OE
      00000090H   SFRSYM    DATA     BIT       GP10
      00000080H.1 SFRSYM    DATA     BIT       GP01
      000000A8H.6 SFRSYM    DATA     BIT       RTCIE
      000000A0H   SFRSYM    DATA     BIT       GP20
      00000090H.1 SFRSYM    DATA     BIT       GP11
      00000080H.2 SFRSYM    DATA     BIT       GP02
      000000E3H   SFRSYM    DATA     BYTE      SV_USH
      000000B0H   SFRSYM    DATA     BIT       GP30
      000000A0H.1 SFRSYM    DATA     BIT       GP21
      00000090H.2 SFRSYM    DATA     BIT       GP12
      00000080H.3 SFRSYM    DATA     BIT       GP03
      000000B8H   SFRSYM    DATA     BIT       PLVW0
      000000A8H.1 SFRSYM    DATA     BIT       TSDIE
      000000D0H   SFRSYM    DATA     BYTE      PSW
      000000B0H.1 SFRSYM    DATA     BIT       GP31
      000000A0H.2 SFRSYM    DATA     BIT       GP22
      00000090H.3 SFRSYM    DATA     BIT       GP13
      00000080H.4 SFRSYM    DATA     BIT       GP04
      000000B8H.1 SFRSYM    DATA     BIT       PLVW1
      000000A8H.3 SFRSYM    DATA     BIT       SPIIE
      00000088H.5 SFRSYM    DATA     BIT       TSDIF
      000000B0H.2 SFRSYM    DATA     BIT       GP32
      000000A0H.3 SFRSYM    DATA     BIT       GP23
      00000090H.4 SFRSYM    DATA     BIT       GP14
      00000080H.5 SFRSYM    DATA     BIT       GP05
      00000084H   SFRSYM    DATA     BYTE      FLKEY
      000000B3H   SFRSYM    DATA     BYTE      TIM2_CMTRH
      000000B0H.3 SFRSYM    DATA     BIT       GP33
      000000A0H.4 SFRSYM    DATA     BIT       GP24
      00000090H.5 SFRSYM    DATA     BIT       GP15
      00000080H.6 SFRSYM    DATA     BIT       GP06
      00000088H   SFRSYM    DATA     BIT       IT00
      00000006H   SYMBOL    DATA     WORD      TData0
      00000004H   SYMBOL    DATA     WORD      TData1
      00000006H   SYMBOL    DATA     WORD      TData0
      00000004H   SYMBOL    DATA     WORD      TData1
      00000002H   SYMBOL    DATA     ---       Result32
      00000006H   SYMBOL    DATA     INT       TData0
      00000004H   SYMBOL    DATA     INT       TData1
      00000006H   SYMBOL    DATA     INT       TData0
      00000004H   SYMBOL    DATA     INT       TData1
      00000002H   SYMBOL    DATA     ---       Result32

      01002E25H   BLOCK     CODE     ---       LVL=0
      00000006H   SYMBOL    DATA     WORD      TData0
      00000004H   SYMBOL    DATA     WORD      TData1
      00000003H   SYMBOL    DATA     BYTE      ALIGN
      01002E25H   LINE      CODE     ---       #129
      01002E25H   LINE      CODE     ---       #130
      01002E25H   LINE      CODE     ---       #131
      01002E29H   LINE      CODE     ---       #132
      01002E29H   LINE      CODE     ---       #133
      01002E2CH   LINE      CODE     ---       #134
      01002E2CH   LINE      CODE     ---       #135
      01002E2EH   LINE      CODE     ---       #136
      01002E32H   LINE      CODE     ---       #137
      01002E32H   LINE      CODE     ---       #138
      01002E35H   LINE      CODE     ---       #139
LX51 LINKER/LOCATER V4.66.1.0                                                         08/07/2017  15:30:51  PAGE 131


      01002E35H   LINE      CODE     ---       #140
      01002E37H   LINE      CODE     ---       #141
      01002E3BH   LINE      CODE     ---       #142
      01002E3BH   LINE      CODE     ---       #143
      01002E3EH   LINE      CODE     ---       #144
      01002E41H   LINE      CODE     ---       #145
      01002E43H   LINE      CODE     ---       #147
      01002E43H   LINE      CODE     ---       #148
      01002E46H   LINE      CODE     ---       #149
      01002E49H   LINE      CODE     ---       #150
      01002E49H   LINE      CODE     ---       #152
      01002E4CH   LINE      CODE     ---       #154
      01002E50H   LINE      CODE     ---       #155
      01002E5AH   LINE      CODE     ---       #157
      01002E5EH   LINE      CODE     ---       #159
      ---         BLOCKEND  ---      ---       LVL=0

      01002A5EH   BLOCK     CODE     ---       LVL=0
      00000006H   SYMBOL    DATA     WORD      TData0
      00000004H   SYMBOL    DATA     WORD      TData1
      00000003H   SYMBOL    DATA     BYTE      ALIGN
      02000202H   SYMBOL    XDATA    ---       Result32
      01002A5EH   LINE      CODE     ---       #167
      01002A5EH   LINE      CODE     ---       #168
      01002A5EH   LINE      CODE     ---       #169
      01002A62H   LINE      CODE     ---       #170
      01002A62H   LINE      CODE     ---       #171
      01002A65H   LINE      CODE     ---       #172
      01002A65H   LINE      CODE     ---       #173
      01002A67H   LINE      CODE     ---       #174
      01002A6BH   LINE      CODE     ---       #175
      01002A6BH   LINE      CODE     ---       #176
      01002A6EH   LINE      CODE     ---       #177
      01002A6EH   LINE      CODE     ---       #178
      01002A70H   LINE      CODE     ---       #179
      01002A74H   LINE      CODE     ---       #180
      01002A74H   LINE      CODE     ---       #181
      01002A77H   LINE      CODE     ---       #182
      01002A7AH   LINE      CODE     ---       #183
      01002A7CH   LINE      CODE     ---       #185
      01002A7CH   LINE      CODE     ---       #186
      01002A7FH   LINE      CODE     ---       #187
      01002A82H   LINE      CODE     ---       #188
      01002A82H   LINE      CODE     ---       #190
      01002A85H   LINE      CODE     ---       #192
      01002A89H   LINE      CODE     ---       #193
      01002A93H   LINE      CODE     ---       #195
      01002AA6H   LINE      CODE     ---       #196
      01002AB3H   LINE      CODE     ---       #198
      ---         BLOCKEND  ---      ---       LVL=0
      00000006H   SYMBOL    DATA     INT       TData0
      00000004H   SYMBOL    DATA     INT       TData1
      00000003H   SYMBOL    DATA     BYTE      ALIGN
      00000006H   SYMBOL    DATA     INT       TData0
      00000004H   SYMBOL    DATA     INT       TData1
      00000003H   SYMBOL    DATA     BYTE      ALIGN

      01002C71H   BLOCK     CODE     ---       LVL=0
      00000006H   SYMBOL    DATA     ---       TData0
      00000004H   SYMBOL    DATA     ---       TData1
      01002C71H   LINE      CODE     ---       #286
      01002C71H   LINE      CODE     ---       #287
      01002C71H   LINE      CODE     ---       #288
      01002C7DH   LINE      CODE     ---       #289
      01002C8BH   LINE      CODE     ---       #291
LX51 LINKER/LOCATER V4.66.1.0                                                         08/07/2017  15:30:51  PAGE 132


      01002C97H   LINE      CODE     ---       #292
      01002CA5H   LINE      CODE     ---       #295
      01002CA8H   LINE      CODE     ---       #296
      01002CADH   LINE      CODE     ---       #298
      01002CB1H   LINE      CODE     ---       #300
      ---         BLOCKEND  ---      ---       LVL=0

      010021E7H   BLOCK     CODE     ---       LVL=0
      020001FDH   SYMBOL    XDATA    DWORD     TData0
      02000201H   SYMBOL    XDATA    DWORD     TData1
      010021EDH   BLOCK     CODE     NEAR LAB  LVL=1
      02000205H   SYMBOL    XDATA    DWORD     RData32
      ---         BLOCKEND  ---      ---       LVL=1
      010021E7H   LINE      CODE     ---       #308
      010021EDH   LINE      CODE     ---       #309
      010021EDH   LINE      CODE     ---       #310
      010021F7H   LINE      CODE     ---       #312
      010021F9H   LINE      CODE     ---       #313
      010021FFH   LINE      CODE     ---       #314
      010021FFH   LINE      CODE     ---       #315
      01002201H   LINE      CODE     ---       #317
      01002206H   LINE      CODE     ---       #318
      01002215H   LINE      CODE     ---       #319
      0100221FH   LINE      CODE     ---       #320
      0100222EH   LINE      CODE     ---       #321
      01002238H   LINE      CODE     ---       #323
      0100223BH   LINE      CODE     ---       #324
      01002240H   LINE      CODE     ---       #326
      01002256H   LINE      CODE     ---       #327
      01002267H   LINE      CODE     ---       #328
      0100227DH   LINE      CODE     ---       #329
      01002280H   LINE      CODE     ---       #330
      01002282H   LINE      CODE     ---       #331
      01002288H   LINE      CODE     ---       #333
      ---         BLOCKEND  ---      ---       LVL=0

      ---         MODULE    ---      ---       FU68XX_MCPID
      00000035H   PUBLIC    IDATA    ---       pid_is
      00000021H   PUBLIC    IDATA    ---       pid_spd
      000000E2H   SFRSYM    DATA     BYTE      SV_USL
      000000ABH   SFRSYM    DATA     BYTE      TIM2_CNTRH
      000000B0H.4 SFRSYM    DATA     BIT       GP34
      000000A0H.5 SFRSYM    DATA     BIT       GP25
      00000090H.6 SFRSYM    DATA     BIT       GP16
      00000080H.7 SFRSYM    DATA     BIT       GP07
      00000088H.1 SFRSYM    DATA     BIT       IT01
      00000088H.3 SFRSYM    DATA     BIT       IT10
      000000F6H   SFRSYM    DATA     WORD      PI_UKMIN
      000000C2H   SFRSYM    DATA     WORD      MD_MA
      000000A3H   SFRSYM    DATA     BYTE      TIM3_CNTRH
      000000B0H.5 SFRSYM    DATA     BIT       GP35
      000000A0H.6 SFRSYM    DATA     BIT       GP26
      00000090H.7 SFRSYM    DATA     BIT       GP17
      00000080H   SFRSYM    DATA     BYTE      P0
      00000088H.4 SFRSYM    DATA     BIT       IT11
      000000CAH   SFRSYM    DATA     WORD      MD_MB
      00000093H   SFRSYM    DATA     BYTE      TIM4_CNTRH
      000000B0H.6 SFRSYM    DATA     BIT       GP36
      000000A0H.7 SFRSYM    DATA     BIT       GP27
      00000090H   SFRSYM    DATA     BYTE      P1
      000000D9H   SFRSYM    DATA     BYTE      EVT_FILT
      000000F4H   SFRSYM    DATA     WORD      PI_UKMAX
      0000008BH   SFRSYM    DATA     BYTE      TIM5_CNTRH
      000000B2H   SFRSYM    DATA     BYTE      TIM2_CMTRL
      000000B0H.7 SFRSYM    DATA     BIT       GP37
LX51 LINKER/LOCATER V4.66.1.0                                                         08/07/2017  15:30:51  PAGE 133


      000000A0H   SFRSYM    DATA     BYTE      P2
      000000AAH   SFRSYM    DATA     BYTE      TIM2_CNTRL
      000000B0H   SFRSYM    DATA     BYTE      P3
      000000A2H   SFRSYM    DATA     BYTE      TIM3_CNTRL
      000000D0H.6 SFRSYM    DATA     BIT       AC
      00000092H   SFRSYM    DATA     BYTE      TIM4_CNTRL
      0000008AH   SFRSYM    DATA     BYTE      TIM5_CNTRL
      000000B6H   SFRSYM    DATA     WORD      TIM0_CCR1
      000000A8H.7 SFRSYM    DATA     BIT       EA
      000000D5H   SFRSYM    DATA     BYTE      CMP_CR0
      000000BAH   SFRSYM    DATA     WORD      TIM0_CCR2
      000000D6H   SFRSYM    DATA     BYTE      CMP_CR1
      000000BCH   SFRSYM    DATA     WORD      TIM0_CCR3
      00000085H   SFRSYM    DATA     BYTE      PSCTL
      000000DAH   SFRSYM    DATA     BYTE      CMP_CR2
      000000BEH   SFRSYM    DATA     WORD      TIM0_CCR4
      000000B8H.2 SFRSYM    DATA     BIT       PX00
      000000EAH   SFRSYM    DATA     WORD      PI_EK
      000000F8H   SFRSYM    DATA     BIT       OISUH
      000000B8H.3 SFRSYM    DATA     BIT       PX01
      000000B8H.4 SFRSYM    DATA     BIT       PX10
      000000F8H.2 SFRSYM    DATA     BIT       OISVH
      000000B8H.5 SFRSYM    DATA     BIT       PX11
      000000F8H.4 SFRSYM    DATA     BIT       OISWH
      000000DCH   SFRSYM    DATA     WORD      LPF_K
      000000F2H   SFRSYM    DATA     WORD      PI_KI
      000000F8H.1 SFRSYM    DATA     BIT       OISUL
      000000A8H   SFRSYM    DATA     BYTE      IE
      000000F8H.3 SFRSYM    DATA     BIT       OISVL
      000000F8H.5 SFRSYM    DATA     BIT       OISWL
      000000D1H   SFRSYM    DATA     BYTE      P1IE
      00000098H.6 SFRSYM    DATA     BIT       MOD0
      000000D3H   SFRSYM    DATA     BYTE      P2IE
      000000D2H   SFRSYM    DATA     BYTE      P1IF
      000000F9H   SFRSYM    DATA     BYTE      PL_CR
      00000098H.7 SFRSYM    DATA     BIT       MOD1
      000000D4H   SFRSYM    DATA     BYTE      P2IF
      000000ACH   SFRSYM    DATA     WORD      TIM2_DR
      00000082H   SFRSYM    DATA     WORD      DP
      000000EEH   SFRSYM    DATA     WORD      PI_KP
      000000A4H   SFRSYM    DATA     WORD      TIM3_DR
      00000094H   SFRSYM    DATA     WORD      TIM4_DR
      0000008CH   SFRSYM    DATA     WORD      TIM5_DR
      000000F1H   SFRSYM    DATA     BYTE      OSC_CFG
      000000C1H   SFRSYM    DATA     BYTE      MD_MODE
      000000ECH   SFRSYM    DATA     WORD      PI_UK
      000000DEH   SFRSYM    DATA     WORD      LPF_X
      00000098H   SFRSYM    DATA     BIT       RI
      000000E6H   SFRSYM    DATA     WORD      LPF_Y
      000000C0H   SFRSYM    DATA     BIT       PTIM00
      000000D0H.7 SFRSYM    DATA     BIT       CY
      00000098H.1 SFRSYM    DATA     BIT       TI
      000000C0H.1 SFRSYM    DATA     BIT       PTIM01
      000000C0H.2 SFRSYM    DATA     BIT       PTIM10
      000000C0H.3 SFRSYM    DATA     BIT       PTIM11
      000000E1H   SFRSYM    DATA     BYTE      SV_CR
      00000098H   SFRSYM    DATA     BYTE      UT_CR
      00000099H   SFRSYM    DATA     BYTE      UT_DR
      000000F8H.6 SFRSYM    DATA     BIT       OIS4
      00000081H   SFRSYM    DATA     BYTE      SP
      000000D0H.2 SFRSYM    DATA     BIT       OV
      000000C4H   SFRSYM    DATA     BYTE      MD_DA0
      0000009AH   SFRSYM    DATA     WORD      UT_BAUD
      000000CCH   SFRSYM    DATA     BYTE      MD_DB0
      000000C5H   SFRSYM    DATA     BYTE      MD_DA1
LX51 LINKER/LOCATER V4.66.1.0                                                         08/07/2017  15:30:51  PAGE 134


      000000CDH   SFRSYM    DATA     BYTE      MD_DB1
      000000C6H   SFRSYM    DATA     BYTE      MD_DA2
      000000CEH   SFRSYM    DATA     BYTE      MD_DB2
      000000C7H   SFRSYM    DATA     BYTE      MD_DA3
      000000B4H   SFRSYM    DATA     WORD      TIM2_ADTR
      000000CFH   SFRSYM    DATA     BYTE      MD_DB3
      000000AFH   SFRSYM    DATA     BYTE      TIM2_ARRH
      000000A7H   SFRSYM    DATA     BYTE      TIM3_ARRH
      00000097H   SFRSYM    DATA     BYTE      TIM4_ARRH
      0000008FH   SFRSYM    DATA     BYTE      TIM5_ARRH
      000000AEH   SFRSYM    DATA     BYTE      TIM2_ARRL
      000000A6H   SFRSYM    DATA     BYTE      TIM3_ARRL
      00000087H   SFRSYM    DATA     BYTE      PCON
      000000E2H   SFRSYM    DATA     WORD      SV_US
      00000096H   SFRSYM    DATA     BYTE      TIM4_ARRL
      0000008EH   SFRSYM    DATA     BYTE      TIM5_ARRL
      000000B2H   SFRSYM    DATA     WORD      TIM2_CMTR
      00000088H   SFRSYM    DATA     BYTE      TCON
      000000AAH   SFRSYM    DATA     WORD      TIM2_CNTR
      000000A2H   SFRSYM    DATA     WORD      TIM3_CNTR
      00000092H   SFRSYM    DATA     WORD      TIM4_CNTR
      0000008AH   SFRSYM    DATA     WORD      TIM5_CNTR
      000000E5H   SFRSYM    DATA     BYTE      SV_ANGLEH
      000000D8H   SFRSYM    DATA     BIT       PUART0
      000000E4H   SFRSYM    DATA     BYTE      SV_ANGLEL
      000000C6H   SFRSYM    DATA     WORD      MD_DAH
      000000D8H.1 SFRSYM    DATA     BIT       PUART1
      000000D8H.2 SFRSYM    DATA     BIT       PI2C0
      00000088H.2 SFRSYM    DATA     BIT       IF0
      000000CEH   SFRSYM    DATA     WORD      MD_DBH
      000000D8H.3 SFRSYM    DATA     BIT       PI2C1
      000000F0H   SFRSYM    DATA     BYTE      B
      000000C4H   SFRSYM    DATA     WORD      MD_DAL
      000000A1H   SFRSYM    DATA     BYTE      TIM2_CR0
      000000CCH   SFRSYM    DATA     WORD      MD_DBL
      0000009CH   SFRSYM    DATA     BYTE      TIM3_CR0
      000000A9H   SFRSYM    DATA     BYTE      TIM2_CR1
      0000009EH   SFRSYM    DATA     BYTE      TIM4_CR0
      0000009DH   SFRSYM    DATA     BYTE      TIM3_CR1
      00000089H   SFRSYM    DATA     BYTE      TIM5_CR0
      0000009FH   SFRSYM    DATA     BYTE      TIM4_CR1
      000000F8H   SFRSYM    DATA     BYTE      DRV_OUT
      00000091H   SFRSYM    DATA     BYTE      TIM5_CR1
      000000E0H   SFRSYM    DATA     BYTE      ACC
      000000F7H   SFRSYM    DATA     BYTE      PI_UKMINH
      000000C3H   SFRSYM    DATA     BYTE      MD_MAH
      000000A8H.4 SFRSYM    DATA     BIT       ES0
      000000DBH   SFRSYM    DATA     BYTE      LVSR
      000000CBH   SFRSYM    DATA     BYTE      MD_MBH
      000000C0H.4 SFRSYM    DATA     BIT       PADC0
      000000B8H   SFRSYM    DATA     BYTE      IP0
      000000F5H   SFRSYM    DATA     BYTE      PI_UKMAXH
      000000C0H.5 SFRSYM    DATA     BIT       PADC1
      000000C0H   SFRSYM    DATA     BYTE      IP1
      000000C8H   SFRSYM    DATA     BYTE      IP2
      000000F6H   SFRSYM    DATA     BYTE      PI_UKMINL
      000000C2H   SFRSYM    DATA     BYTE      MD_MAL
      00000098H.2 SFRSYM    DATA     BIT       RB8
      000000D8H   SFRSYM    DATA     BYTE      IP3
      000000CAH   SFRSYM    DATA     BYTE      MD_MBL
      000000A8H   SFRSYM    DATA     BIT       EX0
      000000F4H   SFRSYM    DATA     BYTE      PI_UKMAXL
      00000098H.3 SFRSYM    DATA     BIT       TB8
      000000B7H   SFRSYM    DATA     BYTE      TIM0_CCR1H
      000000A8H.2 SFRSYM    DATA     BIT       EX1
LX51 LINKER/LOCATER V4.66.1.0                                                         08/07/2017  15:30:51  PAGE 135


      000000BBH   SFRSYM    DATA     BYTE      TIM0_CCR2H
      000000D0H   SFRSYM    DATA     BIT       P
      000000BDH   SFRSYM    DATA     BYTE      TIM0_CCR3H
      000000BFH   SFRSYM    DATA     BYTE      TIM0_CCR4H
      000000C8H.2 SFRSYM    DATA     BIT       PTIM230
      000000EBH   SFRSYM    DATA     BYTE      PI_EKH
      00000098H.5 SFRSYM    DATA     BIT       SM2
      000000B6H   SFRSYM    DATA     BYTE      TIM0_CCR1L
      000000B1H   SFRSYM    DATA     BYTE      TIM0_SR1
      000000C8H.3 SFRSYM    DATA     BIT       PTIM231
      000000BAH   SFRSYM    DATA     BYTE      TIM0_CCR2L
      000000BCH   SFRSYM    DATA     BYTE      TIM0_CCR3L
      000000BEH   SFRSYM    DATA     BYTE      TIM0_CCR4L
      000000D8H.6 SFRSYM    DATA     BIT       PMCD0
      000000C8H.4 SFRSYM    DATA     BIT       PTIM450
      000000D0H.3 SFRSYM    DATA     BIT       RS0
      000000DDH   SFRSYM    DATA     BYTE      LPF_KH
      000000F3H   SFRSYM    DATA     BYTE      PI_KIH
      000000EAH   SFRSYM    DATA     BYTE      PI_EKL
      000000E8H   SFRSYM    DATA     BYTE      FOC_SET0
      000000D8H.7 SFRSYM    DATA     BIT       PMCD1
      000000C8H.5 SFRSYM    DATA     BIT       PTIM451
      000000D0H.4 SFRSYM    DATA     BIT       RS1
      000000E9H   SFRSYM    DATA     BYTE      FOC_SET1
      000000B8H.6 SFRSYM    DATA     BIT       PFOC0
      000000DCH   SFRSYM    DATA     BYTE      LPF_KL
      000000F2H   SFRSYM    DATA     BYTE      PI_KIL
      000000B8H.7 SFRSYM    DATA     BIT       PFOC1
      000000ADH   SFRSYM    DATA     BYTE      TIM2_DRH
      000000B9H   SFRSYM    DATA     BYTE      TIM0_IER
      00000083H   SFRSYM    DATA     BYTE      DPH
      000000EFH   SFRSYM    DATA     BYTE      PI_KPH
      000000A5H   SFRSYM    DATA     BYTE      TIM3_DRH
      00000095H   SFRSYM    DATA     BYTE      TIM4_DRH
      0000008DH   SFRSYM    DATA     BYTE      TIM5_DRH
      000000ACH   SFRSYM    DATA     BYTE      TIM2_DRL
      00000082H   SFRSYM    DATA     BYTE      DPL
      000000EEH   SFRSYM    DATA     BYTE      PI_KPL
      000000A4H   SFRSYM    DATA     BYTE      TIM3_DRL
      000000F8H.7 SFRSYM    DATA     BIT       MOE
      000000C0H.6 SFRSYM    DATA     BIT       PCMP0
      000000EDH   SFRSYM    DATA     BYTE      PI_UKH
      00000094H   SFRSYM    DATA     BYTE      TIM4_DRL
      000000C0H.7 SFRSYM    DATA     BIT       PCMP1
      000000DFH   SFRSYM    DATA     BYTE      LPF_XH
      0000008CH   SFRSYM    DATA     BYTE      TIM5_DRL
      000000AEH   SFRSYM    DATA     WORD      TIM2_ARR
      000000A8H.5 SFRSYM    DATA     BIT       MCDIE
      000000C9H   SFRSYM    DATA     BYTE      RSTSRC
      000000E7H   SFRSYM    DATA     BYTE      LPF_YH
      000000A6H   SFRSYM    DATA     WORD      TIM3_ARR
      00000088H.6 SFRSYM    DATA     BIT       MCDIF
      00000098H.4 SFRSYM    DATA     BIT       REN
      00000096H   SFRSYM    DATA     WORD      TIM4_ARR
      000000ECH   SFRSYM    DATA     BYTE      PI_UKL
      000000D7H   SFRSYM    DATA     BYTE      CMP_SR
      0000008EH   SFRSYM    DATA     WORD      TIM5_ARR
      000000DEH   SFRSYM    DATA     BYTE      LPF_XL
      000000E6H   SFRSYM    DATA     BYTE      LPF_YL
      000000C8H   SFRSYM    DATA     BIT       PRTC0
      000000C8H.1 SFRSYM    DATA     BIT       PRTC1
      000000E8H.7 SFRSYM    DATA     BIT       FOCEN
      000000C8H.6 SFRSYM    DATA     BIT       PTSD0
      000000D8H.4 SFRSYM    DATA     BIT       PSPI0
      000000C8H.7 SFRSYM    DATA     BIT       PTSD1
LX51 LINKER/LOCATER V4.66.1.0                                                         08/07/2017  15:30:51  PAGE 136


      000000D8H.5 SFRSYM    DATA     BIT       PSPI1
      0000009BH   SFRSYM    DATA     BYTE      UT_BAUDH
      000000E4H   SFRSYM    DATA     WORD      SV_ANGLE
      000000B5H   SFRSYM    DATA     BYTE      TIM2_ADTRH
      0000009AH   SFRSYM    DATA     BYTE      UT_BAUDL
      000000FCH   SFRSYM    DATA     BYTE      P0_OE
      000000FDH   SFRSYM    DATA     BYTE      P1_OE
      000000D0H.5 SFRSYM    DATA     BIT       F0
      000000B4H   SFRSYM    DATA     BYTE      TIM2_ADTRL
      000000FEH   SFRSYM    DATA     BYTE      P2_OE
      000000D0H.1 SFRSYM    DATA     BIT       F1
      00000080H   SFRSYM    DATA     BIT       GP00
      000000FFH   SFRSYM    DATA     BYTE      P3_OE
      00000090H   SFRSYM    DATA     BIT       GP10
      00000080H.1 SFRSYM    DATA     BIT       GP01
      000000A8H.6 SFRSYM    DATA     BIT       RTCIE
      000000A0H   SFRSYM    DATA     BIT       GP20
      00000090H.1 SFRSYM    DATA     BIT       GP11
      00000080H.2 SFRSYM    DATA     BIT       GP02
      000000E3H   SFRSYM    DATA     BYTE      SV_USH
      000000B0H   SFRSYM    DATA     BIT       GP30
      000000A0H.1 SFRSYM    DATA     BIT       GP21
      00000090H.2 SFRSYM    DATA     BIT       GP12
      00000080H.3 SFRSYM    DATA     BIT       GP03
      000000B8H   SFRSYM    DATA     BIT       PLVW0
      000000A8H.1 SFRSYM    DATA     BIT       TSDIE
      000000D0H   SFRSYM    DATA     BYTE      PSW
      000000B0H.1 SFRSYM    DATA     BIT       GP31
      000000A0H.2 SFRSYM    DATA     BIT       GP22
      00000090H.3 SFRSYM    DATA     BIT       GP13
      00000080H.4 SFRSYM    DATA     BIT       GP04
      000000B8H.1 SFRSYM    DATA     BIT       PLVW1
      000000A8H.3 SFRSYM    DATA     BIT       SPIIE
      00000088H.5 SFRSYM    DATA     BIT       TSDIF
      000000B0H.2 SFRSYM    DATA     BIT       GP32
      000000A0H.3 SFRSYM    DATA     BIT       GP23
      00000090H.4 SFRSYM    DATA     BIT       GP14
      00000080H.5 SFRSYM    DATA     BIT       GP05
      00000084H   SFRSYM    DATA     BYTE      FLKEY
      000000B3H   SFRSYM    DATA     BYTE      TIM2_CMTRH
      000000B0H.3 SFRSYM    DATA     BIT       GP33
      000000A0H.4 SFRSYM    DATA     BIT       GP24
      00000090H.5 SFRSYM    DATA     BIT       GP15
      00000080H.6 SFRSYM    DATA     BIT       GP06
      00000088H   SFRSYM    DATA     BIT       IT00
      00000001H   SYMBOL    DATA     ---       v

      ---         MODULE    ---      ---       FU68XX_MCSPI
      000000E2H   SFRSYM    DATA     BYTE      SV_USL
      000000ABH   SFRSYM    DATA     BYTE      TIM2_CNTRH
      000000B0H.4 SFRSYM    DATA     BIT       GP34
      000000A0H.5 SFRSYM    DATA     BIT       GP25
      00000090H.6 SFRSYM    DATA     BIT       GP16
      00000080H.7 SFRSYM    DATA     BIT       GP07
      00000088H.1 SFRSYM    DATA     BIT       IT01
      00000088H.3 SFRSYM    DATA     BIT       IT10
      000000F6H   SFRSYM    DATA     WORD      PI_UKMIN
      000000C2H   SFRSYM    DATA     WORD      MD_MA
      000000A3H   SFRSYM    DATA     BYTE      TIM3_CNTRH
      000000B0H.5 SFRSYM    DATA     BIT       GP35
      000000A0H.6 SFRSYM    DATA     BIT       GP26
      00000090H.7 SFRSYM    DATA     BIT       GP17
      00000080H   SFRSYM    DATA     BYTE      P0
      00000088H.4 SFRSYM    DATA     BIT       IT11
      000000CAH   SFRSYM    DATA     WORD      MD_MB
LX51 LINKER/LOCATER V4.66.1.0                                                         08/07/2017  15:30:51  PAGE 137


      00000093H   SFRSYM    DATA     BYTE      TIM4_CNTRH
      000000B0H.6 SFRSYM    DATA     BIT       GP36
      000000A0H.7 SFRSYM    DATA     BIT       GP27
      00000090H   SFRSYM    DATA     BYTE      P1
      000000D9H   SFRSYM    DATA     BYTE      EVT_FILT
      000000F4H   SFRSYM    DATA     WORD      PI_UKMAX
      0000008BH   SFRSYM    DATA     BYTE      TIM5_CNTRH
      000000B2H   SFRSYM    DATA     BYTE      TIM2_CMTRL
      000000B0H.7 SFRSYM    DATA     BIT       GP37
      000000A0H   SFRSYM    DATA     BYTE      P2
      000000AAH   SFRSYM    DATA     BYTE      TIM2_CNTRL
      000000B0H   SFRSYM    DATA     BYTE      P3
      000000A2H   SFRSYM    DATA     BYTE      TIM3_CNTRL
      000000D0H.6 SFRSYM    DATA     BIT       AC
      00000092H   SFRSYM    DATA     BYTE      TIM4_CNTRL
      0000008AH   SFRSYM    DATA     BYTE      TIM5_CNTRL
      000000B6H   SFRSYM    DATA     WORD      TIM0_CCR1
      000000A8H.7 SFRSYM    DATA     BIT       EA
      000000D5H   SFRSYM    DATA     BYTE      CMP_CR0
      000000BAH   SFRSYM    DATA     WORD      TIM0_CCR2
      000000D6H   SFRSYM    DATA     BYTE      CMP_CR1
      000000BCH   SFRSYM    DATA     WORD      TIM0_CCR3
      00000085H   SFRSYM    DATA     BYTE      PSCTL
      000000DAH   SFRSYM    DATA     BYTE      CMP_CR2
      000000BEH   SFRSYM    DATA     WORD      TIM0_CCR4
      000000B8H.2 SFRSYM    DATA     BIT       PX00
      000000EAH   SFRSYM    DATA     WORD      PI_EK
      000000F8H   SFRSYM    DATA     BIT       OISUH
      000000B8H.3 SFRSYM    DATA     BIT       PX01
      000000B8H.4 SFRSYM    DATA     BIT       PX10
      000000F8H.2 SFRSYM    DATA     BIT       OISVH
      000000B8H.5 SFRSYM    DATA     BIT       PX11
      000000F8H.4 SFRSYM    DATA     BIT       OISWH
      000000DCH   SFRSYM    DATA     WORD      LPF_K
      000000F2H   SFRSYM    DATA     WORD      PI_KI
      000000F8H.1 SFRSYM    DATA     BIT       OISUL
      000000A8H   SFRSYM    DATA     BYTE      IE
      000000F8H.3 SFRSYM    DATA     BIT       OISVL
      000000F8H.5 SFRSYM    DATA     BIT       OISWL
      000000D1H   SFRSYM    DATA     BYTE      P1IE
      00000098H.6 SFRSYM    DATA     BIT       MOD0
      000000D3H   SFRSYM    DATA     BYTE      P2IE
      000000D2H   SFRSYM    DATA     BYTE      P1IF
      000000F9H   SFRSYM    DATA     BYTE      PL_CR
      00000098H.7 SFRSYM    DATA     BIT       MOD1
      000000D4H   SFRSYM    DATA     BYTE      P2IF
      000000ACH   SFRSYM    DATA     WORD      TIM2_DR
      00000082H   SFRSYM    DATA     WORD      DP
      000000EEH   SFRSYM    DATA     WORD      PI_KP
      000000A4H   SFRSYM    DATA     WORD      TIM3_DR
      00000094H   SFRSYM    DATA     WORD      TIM4_DR
      0000008CH   SFRSYM    DATA     WORD      TIM5_DR
      000000F1H   SFRSYM    DATA     BYTE      OSC_CFG
      000000C1H   SFRSYM    DATA     BYTE      MD_MODE
      000000ECH   SFRSYM    DATA     WORD      PI_UK
      000000DEH   SFRSYM    DATA     WORD      LPF_X
      00000098H   SFRSYM    DATA     BIT       RI
      000000E6H   SFRSYM    DATA     WORD      LPF_Y
      000000C0H   SFRSYM    DATA     BIT       PTIM00
      000000D0H.7 SFRSYM    DATA     BIT       CY
      00000098H.1 SFRSYM    DATA     BIT       TI
      000000C0H.1 SFRSYM    DATA     BIT       PTIM01
      000000C0H.2 SFRSYM    DATA     BIT       PTIM10
      000000C0H.3 SFRSYM    DATA     BIT       PTIM11
      000000E1H   SFRSYM    DATA     BYTE      SV_CR
LX51 LINKER/LOCATER V4.66.1.0                                                         08/07/2017  15:30:51  PAGE 138


      00000098H   SFRSYM    DATA     BYTE      UT_CR
      00000099H   SFRSYM    DATA     BYTE      UT_DR
      000000F8H.6 SFRSYM    DATA     BIT       OIS4
      00000081H   SFRSYM    DATA     BYTE      SP
      000000D0H.2 SFRSYM    DATA     BIT       OV
      000000C4H   SFRSYM    DATA     BYTE      MD_DA0
      0000009AH   SFRSYM    DATA     WORD      UT_BAUD
      000000CCH   SFRSYM    DATA     BYTE      MD_DB0
      000000C5H   SFRSYM    DATA     BYTE      MD_DA1
      000000CDH   SFRSYM    DATA     BYTE      MD_DB1
      000000C6H   SFRSYM    DATA     BYTE      MD_DA2
      000000CEH   SFRSYM    DATA     BYTE      MD_DB2
      000000C7H   SFRSYM    DATA     BYTE      MD_DA3
      000000B4H   SFRSYM    DATA     WORD      TIM2_ADTR
      000000CFH   SFRSYM    DATA     BYTE      MD_DB3
      000000AFH   SFRSYM    DATA     BYTE      TIM2_ARRH
      000000A7H   SFRSYM    DATA     BYTE      TIM3_ARRH
      00000097H   SFRSYM    DATA     BYTE      TIM4_ARRH
      0000008FH   SFRSYM    DATA     BYTE      TIM5_ARRH
      000000AEH   SFRSYM    DATA     BYTE      TIM2_ARRL
      000000A6H   SFRSYM    DATA     BYTE      TIM3_ARRL
      00000087H   SFRSYM    DATA     BYTE      PCON
      000000E2H   SFRSYM    DATA     WORD      SV_US
      00000096H   SFRSYM    DATA     BYTE      TIM4_ARRL
      0000008EH   SFRSYM    DATA     BYTE      TIM5_ARRL
      000000B2H   SFRSYM    DATA     WORD      TIM2_CMTR
      00000088H   SFRSYM    DATA     BYTE      TCON
      000000AAH   SFRSYM    DATA     WORD      TIM2_CNTR
      000000A2H   SFRSYM    DATA     WORD      TIM3_CNTR
      00000092H   SFRSYM    DATA     WORD      TIM4_CNTR
      0000008AH   SFRSYM    DATA     WORD      TIM5_CNTR
      000000E5H   SFRSYM    DATA     BYTE      SV_ANGLEH
      000000D8H   SFRSYM    DATA     BIT       PUART0
      000000E4H   SFRSYM    DATA     BYTE      SV_ANGLEL
      000000C6H   SFRSYM    DATA     WORD      MD_DAH
      000000D8H.1 SFRSYM    DATA     BIT       PUART1
      000000D8H.2 SFRSYM    DATA     BIT       PI2C0
      00000088H.2 SFRSYM    DATA     BIT       IF0
      000000CEH   SFRSYM    DATA     WORD      MD_DBH
      000000D8H.3 SFRSYM    DATA     BIT       PI2C1
      000000F0H   SFRSYM    DATA     BYTE      B
      000000C4H   SFRSYM    DATA     WORD      MD_DAL
      000000A1H   SFRSYM    DATA     BYTE      TIM2_CR0
      000000CCH   SFRSYM    DATA     WORD      MD_DBL
      0000009CH   SFRSYM    DATA     BYTE      TIM3_CR0
      000000A9H   SFRSYM    DATA     BYTE      TIM2_CR1
      0000009EH   SFRSYM    DATA     BYTE      TIM4_CR0
      0000009DH   SFRSYM    DATA     BYTE      TIM3_CR1
      00000089H   SFRSYM    DATA     BYTE      TIM5_CR0
      0000009FH   SFRSYM    DATA     BYTE      TIM4_CR1
      000000F8H   SFRSYM    DATA     BYTE      DRV_OUT
      00000091H   SFRSYM    DATA     BYTE      TIM5_CR1
      000000E0H   SFRSYM    DATA     BYTE      ACC
      000000F7H   SFRSYM    DATA     BYTE      PI_UKMINH
      000000C3H   SFRSYM    DATA     BYTE      MD_MAH
      000000A8H.4 SFRSYM    DATA     BIT       ES0
      000000DBH   SFRSYM    DATA     BYTE      LVSR
      000000CBH   SFRSYM    DATA     BYTE      MD_MBH
      000000C0H.4 SFRSYM    DATA     BIT       PADC0
      000000B8H   SFRSYM    DATA     BYTE      IP0
      000000F5H   SFRSYM    DATA     BYTE      PI_UKMAXH
      000000C0H.5 SFRSYM    DATA     BIT       PADC1
      000000C0H   SFRSYM    DATA     BYTE      IP1
      000000C8H   SFRSYM    DATA     BYTE      IP2
      000000F6H   SFRSYM    DATA     BYTE      PI_UKMINL
LX51 LINKER/LOCATER V4.66.1.0                                                         08/07/2017  15:30:51  PAGE 139


      000000C2H   SFRSYM    DATA     BYTE      MD_MAL
      00000098H.2 SFRSYM    DATA     BIT       RB8
      000000D8H   SFRSYM    DATA     BYTE      IP3
      000000CAH   SFRSYM    DATA     BYTE      MD_MBL
      000000A8H   SFRSYM    DATA     BIT       EX0
      000000F4H   SFRSYM    DATA     BYTE      PI_UKMAXL
      00000098H.3 SFRSYM    DATA     BIT       TB8
      000000B7H   SFRSYM    DATA     BYTE      TIM0_CCR1H
      000000A8H.2 SFRSYM    DATA     BIT       EX1
      000000BBH   SFRSYM    DATA     BYTE      TIM0_CCR2H
      000000D0H   SFRSYM    DATA     BIT       P
      000000BDH   SFRSYM    DATA     BYTE      TIM0_CCR3H
      000000BFH   SFRSYM    DATA     BYTE      TIM0_CCR4H
      000000C8H.2 SFRSYM    DATA     BIT       PTIM230
      000000EBH   SFRSYM    DATA     BYTE      PI_EKH
      00000098H.5 SFRSYM    DATA     BIT       SM2
      000000B6H   SFRSYM    DATA     BYTE      TIM0_CCR1L
      000000B1H   SFRSYM    DATA     BYTE      TIM0_SR1
      000000C8H.3 SFRSYM    DATA     BIT       PTIM231
      000000BAH   SFRSYM    DATA     BYTE      TIM0_CCR2L
      000000BCH   SFRSYM    DATA     BYTE      TIM0_CCR3L
      000000BEH   SFRSYM    DATA     BYTE      TIM0_CCR4L
      000000D8H.6 SFRSYM    DATA     BIT       PMCD0
      000000C8H.4 SFRSYM    DATA     BIT       PTIM450
      000000D0H.3 SFRSYM    DATA     BIT       RS0
      000000DDH   SFRSYM    DATA     BYTE      LPF_KH
      000000F3H   SFRSYM    DATA     BYTE      PI_KIH
      000000EAH   SFRSYM    DATA     BYTE      PI_EKL
      000000E8H   SFRSYM    DATA     BYTE      FOC_SET0
      000000D8H.7 SFRSYM    DATA     BIT       PMCD1
      000000C8H.5 SFRSYM    DATA     BIT       PTIM451
      000000D0H.4 SFRSYM    DATA     BIT       RS1
      000000E9H   SFRSYM    DATA     BYTE      FOC_SET1
      000000B8H.6 SFRSYM    DATA     BIT       PFOC0
      000000DCH   SFRSYM    DATA     BYTE      LPF_KL
      000000F2H   SFRSYM    DATA     BYTE      PI_KIL
      000000B8H.7 SFRSYM    DATA     BIT       PFOC1
      000000ADH   SFRSYM    DATA     BYTE      TIM2_DRH
      000000B9H   SFRSYM    DATA     BYTE      TIM0_IER
      00000083H   SFRSYM    DATA     BYTE      DPH
      000000EFH   SFRSYM    DATA     BYTE      PI_KPH
      000000A5H   SFRSYM    DATA     BYTE      TIM3_DRH
      00000095H   SFRSYM    DATA     BYTE      TIM4_DRH
      0000008DH   SFRSYM    DATA     BYTE      TIM5_DRH
      000000ACH   SFRSYM    DATA     BYTE      TIM2_DRL
      00000082H   SFRSYM    DATA     BYTE      DPL
      000000EEH   SFRSYM    DATA     BYTE      PI_KPL
      000000A4H   SFRSYM    DATA     BYTE      TIM3_DRL
      000000F8H.7 SFRSYM    DATA     BIT       MOE
      000000C0H.6 SFRSYM    DATA     BIT       PCMP0
      000000EDH   SFRSYM    DATA     BYTE      PI_UKH
      00000094H   SFRSYM    DATA     BYTE      TIM4_DRL
      000000C0H.7 SFRSYM    DATA     BIT       PCMP1
      000000DFH   SFRSYM    DATA     BYTE      LPF_XH
      0000008CH   SFRSYM    DATA     BYTE      TIM5_DRL
      000000AEH   SFRSYM    DATA     WORD      TIM2_ARR
      000000A8H.5 SFRSYM    DATA     BIT       MCDIE
      000000C9H   SFRSYM    DATA     BYTE      RSTSRC
      000000E7H   SFRSYM    DATA     BYTE      LPF_YH
      000000A6H   SFRSYM    DATA     WORD      TIM3_ARR
      00000088H.6 SFRSYM    DATA     BIT       MCDIF
      00000098H.4 SFRSYM    DATA     BIT       REN
      00000096H   SFRSYM    DATA     WORD      TIM4_ARR
      000000ECH   SFRSYM    DATA     BYTE      PI_UKL
      000000D7H   SFRSYM    DATA     BYTE      CMP_SR
LX51 LINKER/LOCATER V4.66.1.0                                                         08/07/2017  15:30:51  PAGE 140


      0000008EH   SFRSYM    DATA     WORD      TIM5_ARR
      000000DEH   SFRSYM    DATA     BYTE      LPF_XL
      000000E6H   SFRSYM    DATA     BYTE      LPF_YL
      000000C8H   SFRSYM    DATA     BIT       PRTC0
      000000C8H.1 SFRSYM    DATA     BIT       PRTC1
      000000E8H.7 SFRSYM    DATA     BIT       FOCEN
      000000C8H.6 SFRSYM    DATA     BIT       PTSD0
      000000D8H.4 SFRSYM    DATA     BIT       PSPI0
      000000C8H.7 SFRSYM    DATA     BIT       PTSD1
      000000D8H.5 SFRSYM    DATA     BIT       PSPI1
      0000009BH   SFRSYM    DATA     BYTE      UT_BAUDH
      000000E4H   SFRSYM    DATA     WORD      SV_ANGLE
      000000B5H   SFRSYM    DATA     BYTE      TIM2_ADTRH
      0000009AH   SFRSYM    DATA     BYTE      UT_BAUDL
      000000FCH   SFRSYM    DATA     BYTE      P0_OE
      000000FDH   SFRSYM    DATA     BYTE      P1_OE
      000000D0H.5 SFRSYM    DATA     BIT       F0
      000000B4H   SFRSYM    DATA     BYTE      TIM2_ADTRL
      000000FEH   SFRSYM    DATA     BYTE      P2_OE
      000000D0H.1 SFRSYM    DATA     BIT       F1
      00000080H   SFRSYM    DATA     BIT       GP00
      000000FFH   SFRSYM    DATA     BYTE      P3_OE
      00000090H   SFRSYM    DATA     BIT       GP10
      00000080H.1 SFRSYM    DATA     BIT       GP01
      000000A8H.6 SFRSYM    DATA     BIT       RTCIE
      000000A0H   SFRSYM    DATA     BIT       GP20
      00000090H.1 SFRSYM    DATA     BIT       GP11
      00000080H.2 SFRSYM    DATA     BIT       GP02
      000000E3H   SFRSYM    DATA     BYTE      SV_USH
      000000B0H   SFRSYM    DATA     BIT       GP30
      000000A0H.1 SFRSYM    DATA     BIT       GP21
      00000090H.2 SFRSYM    DATA     BIT       GP12
      00000080H.3 SFRSYM    DATA     BIT       GP03
      000000B8H   SFRSYM    DATA     BIT       PLVW0
      000000A8H.1 SFRSYM    DATA     BIT       TSDIE
      000000D0H   SFRSYM    DATA     BYTE      PSW
      000000B0H.1 SFRSYM    DATA     BIT       GP31
      000000A0H.2 SFRSYM    DATA     BIT       GP22
      00000090H.3 SFRSYM    DATA     BIT       GP13
      00000080H.4 SFRSYM    DATA     BIT       GP04
      000000B8H.1 SFRSYM    DATA     BIT       PLVW1
      000000A8H.3 SFRSYM    DATA     BIT       SPIIE
      00000088H.5 SFRSYM    DATA     BIT       TSDIF
      000000B0H.2 SFRSYM    DATA     BIT       GP32
      000000A0H.3 SFRSYM    DATA     BIT       GP23
      00000090H.4 SFRSYM    DATA     BIT       GP14
      00000080H.5 SFRSYM    DATA     BIT       GP05
      00000084H   SFRSYM    DATA     BYTE      FLKEY
      000000B3H   SFRSYM    DATA     BYTE      TIM2_CMTRH
      000000B0H.3 SFRSYM    DATA     BIT       GP33
      000000A0H.4 SFRSYM    DATA     BIT       GP24
      00000090H.5 SFRSYM    DATA     BIT       GP15
      00000080H.6 SFRSYM    DATA     BIT       GP06
      00000088H   SFRSYM    DATA     BIT       IT00
      00000002H   SYMBOL    DATA     WORD      Data
      00000005H   SYMBOL    DATA     BYTE      ch

      ---         MODULE    ---      ---       FU68XX_MCTIME
      01002CF2H   PUBLIC    CODE     ---       TIM4_Config
      01002736H   PUBLIC    CODE     ---       TIM3_Config
      01002E96H   PUBLIC    CODE     ---       TIM2_Config
      010016B0H   PUBLIC    CODE     ---       TIM1_Config
      000000E2H   SFRSYM    DATA     BYTE      SV_USL
      000000ABH   SFRSYM    DATA     BYTE      TIM2_CNTRH
      000000B0H.4 SFRSYM    DATA     BIT       GP34
LX51 LINKER/LOCATER V4.66.1.0                                                         08/07/2017  15:30:51  PAGE 141


      000000A0H.5 SFRSYM    DATA     BIT       GP25
      00000090H.6 SFRSYM    DATA     BIT       GP16
      00000080H.7 SFRSYM    DATA     BIT       GP07
      00000088H.1 SFRSYM    DATA     BIT       IT01
      00000088H.3 SFRSYM    DATA     BIT       IT10
      000000F6H   SFRSYM    DATA     WORD      PI_UKMIN
      000000C2H   SFRSYM    DATA     WORD      MD_MA
      000000A3H   SFRSYM    DATA     BYTE      TIM3_CNTRH
      000000B0H.5 SFRSYM    DATA     BIT       GP35
      000000A0H.6 SFRSYM    DATA     BIT       GP26
      00000090H.7 SFRSYM    DATA     BIT       GP17
      00000080H   SFRSYM    DATA     BYTE      P0
      00000088H.4 SFRSYM    DATA     BIT       IT11
      000000CAH   SFRSYM    DATA     WORD      MD_MB
      00000093H   SFRSYM    DATA     BYTE      TIM4_CNTRH
      000000B0H.6 SFRSYM    DATA     BIT       GP36
      000000A0H.7 SFRSYM    DATA     BIT       GP27
      00000090H   SFRSYM    DATA     BYTE      P1
      000000D9H   SFRSYM    DATA     BYTE      EVT_FILT
      000000F4H   SFRSYM    DATA     WORD      PI_UKMAX
      0000008BH   SFRSYM    DATA     BYTE      TIM5_CNTRH
      000000B2H   SFRSYM    DATA     BYTE      TIM2_CMTRL
      000000B0H.7 SFRSYM    DATA     BIT       GP37
      000000A0H   SFRSYM    DATA     BYTE      P2
      000000AAH   SFRSYM    DATA     BYTE      TIM2_CNTRL
      000000B0H   SFRSYM    DATA     BYTE      P3
      000000A2H   SFRSYM    DATA     BYTE      TIM3_CNTRL
      000000D0H.6 SFRSYM    DATA     BIT       AC
      00000092H   SFRSYM    DATA     BYTE      TIM4_CNTRL
      0000008AH   SFRSYM    DATA     BYTE      TIM5_CNTRL
      000000B6H   SFRSYM    DATA     WORD      TIM0_CCR1
      000000A8H.7 SFRSYM    DATA     BIT       EA
      000000D5H   SFRSYM    DATA     BYTE      CMP_CR0
      000000BAH   SFRSYM    DATA     WORD      TIM0_CCR2
      000000D6H   SFRSYM    DATA     BYTE      CMP_CR1
      000000BCH   SFRSYM    DATA     WORD      TIM0_CCR3
      00000085H   SFRSYM    DATA     BYTE      PSCTL
      000000DAH   SFRSYM    DATA     BYTE      CMP_CR2
      000000BEH   SFRSYM    DATA     WORD      TIM0_CCR4
      000000B8H.2 SFRSYM    DATA     BIT       PX00
      000000EAH   SFRSYM    DATA     WORD      PI_EK
      000000F8H   SFRSYM    DATA     BIT       OISUH
      000000B8H.3 SFRSYM    DATA     BIT       PX01
      000000B8H.4 SFRSYM    DATA     BIT       PX10
      000000F8H.2 SFRSYM    DATA     BIT       OISVH
      000000B8H.5 SFRSYM    DATA     BIT       PX11
      000000F8H.4 SFRSYM    DATA     BIT       OISWH
      000000DCH   SFRSYM    DATA     WORD      LPF_K
      000000F2H   SFRSYM    DATA     WORD      PI_KI
      000000F8H.1 SFRSYM    DATA     BIT       OISUL
      000000A8H   SFRSYM    DATA     BYTE      IE
      000000F8H.3 SFRSYM    DATA     BIT       OISVL
      000000F8H.5 SFRSYM    DATA     BIT       OISWL
      000000D1H   SFRSYM    DATA     BYTE      P1IE
      00000098H.6 SFRSYM    DATA     BIT       MOD0
      000000D3H   SFRSYM    DATA     BYTE      P2IE
      000000D2H   SFRSYM    DATA     BYTE      P1IF
      000000F9H   SFRSYM    DATA     BYTE      PL_CR
      00000098H.7 SFRSYM    DATA     BIT       MOD1
      000000D4H   SFRSYM    DATA     BYTE      P2IF
      000000ACH   SFRSYM    DATA     WORD      TIM2_DR
      00000082H   SFRSYM    DATA     WORD      DP
      000000EEH   SFRSYM    DATA     WORD      PI_KP
      000000A4H   SFRSYM    DATA     WORD      TIM3_DR
      00000094H   SFRSYM    DATA     WORD      TIM4_DR
LX51 LINKER/LOCATER V4.66.1.0                                                         08/07/2017  15:30:51  PAGE 142


      0000008CH   SFRSYM    DATA     WORD      TIM5_DR
      000000F1H   SFRSYM    DATA     BYTE      OSC_CFG
      000000C1H   SFRSYM    DATA     BYTE      MD_MODE
      000000ECH   SFRSYM    DATA     WORD      PI_UK
      000000DEH   SFRSYM    DATA     WORD      LPF_X
      00000098H   SFRSYM    DATA     BIT       RI
      000000E6H   SFRSYM    DATA     WORD      LPF_Y
      000000C0H   SFRSYM    DATA     BIT       PTIM00
      000000D0H.7 SFRSYM    DATA     BIT       CY
      00000098H.1 SFRSYM    DATA     BIT       TI
      000000C0H.1 SFRSYM    DATA     BIT       PTIM01
      000000C0H.2 SFRSYM    DATA     BIT       PTIM10
      000000C0H.3 SFRSYM    DATA     BIT       PTIM11
      000000E1H   SFRSYM    DATA     BYTE      SV_CR
      00000098H   SFRSYM    DATA     BYTE      UT_CR
      00000099H   SFRSYM    DATA     BYTE      UT_DR
      000000F8H.6 SFRSYM    DATA     BIT       OIS4
      00000081H   SFRSYM    DATA     BYTE      SP
      000000D0H.2 SFRSYM    DATA     BIT       OV
      000000C4H   SFRSYM    DATA     BYTE      MD_DA0
      0000009AH   SFRSYM    DATA     WORD      UT_BAUD
      000000CCH   SFRSYM    DATA     BYTE      MD_DB0
      000000C5H   SFRSYM    DATA     BYTE      MD_DA1
      000000CDH   SFRSYM    DATA     BYTE      MD_DB1
      000000C6H   SFRSYM    DATA     BYTE      MD_DA2
      000000CEH   SFRSYM    DATA     BYTE      MD_DB2
      000000C7H   SFRSYM    DATA     BYTE      MD_DA3
      000000B4H   SFRSYM    DATA     WORD      TIM2_ADTR
      000000CFH   SFRSYM    DATA     BYTE      MD_DB3
      000000AFH   SFRSYM    DATA     BYTE      TIM2_ARRH
      000000A7H   SFRSYM    DATA     BYTE      TIM3_ARRH
      00000097H   SFRSYM    DATA     BYTE      TIM4_ARRH
      0000008FH   SFRSYM    DATA     BYTE      TIM5_ARRH
      000000AEH   SFRSYM    DATA     BYTE      TIM2_ARRL
      000000A6H   SFRSYM    DATA     BYTE      TIM3_ARRL
      00000087H   SFRSYM    DATA     BYTE      PCON
      000000E2H   SFRSYM    DATA     WORD      SV_US
      00000096H   SFRSYM    DATA     BYTE      TIM4_ARRL
      0000008EH   SFRSYM    DATA     BYTE      TIM5_ARRL
      000000B2H   SFRSYM    DATA     WORD      TIM2_CMTR
      00000088H   SFRSYM    DATA     BYTE      TCON
      000000AAH   SFRSYM    DATA     WORD      TIM2_CNTR
      000000A2H   SFRSYM    DATA     WORD      TIM3_CNTR
      00000092H   SFRSYM    DATA     WORD      TIM4_CNTR
      0000008AH   SFRSYM    DATA     WORD      TIM5_CNTR
      000000E5H   SFRSYM    DATA     BYTE      SV_ANGLEH
      000000D8H   SFRSYM    DATA     BIT       PUART0
      000000E4H   SFRSYM    DATA     BYTE      SV_ANGLEL
      000000C6H   SFRSYM    DATA     WORD      MD_DAH
      000000D8H.1 SFRSYM    DATA     BIT       PUART1
      000000D8H.2 SFRSYM    DATA     BIT       PI2C0
      00000088H.2 SFRSYM    DATA     BIT       IF0
      000000CEH   SFRSYM    DATA     WORD      MD_DBH
      000000D8H.3 SFRSYM    DATA     BIT       PI2C1
      000000F0H   SFRSYM    DATA     BYTE      B
      000000C4H   SFRSYM    DATA     WORD      MD_DAL
      000000A1H   SFRSYM    DATA     BYTE      TIM2_CR0
      000000CCH   SFRSYM    DATA     WORD      MD_DBL
      0000009CH   SFRSYM    DATA     BYTE      TIM3_CR0
      000000A9H   SFRSYM    DATA     BYTE      TIM2_CR1
      0000009EH   SFRSYM    DATA     BYTE      TIM4_CR0
      0000009DH   SFRSYM    DATA     BYTE      TIM3_CR1
      00000089H   SFRSYM    DATA     BYTE      TIM5_CR0
      0000009FH   SFRSYM    DATA     BYTE      TIM4_CR1
      000000F8H   SFRSYM    DATA     BYTE      DRV_OUT
LX51 LINKER/LOCATER V4.66.1.0                                                         08/07/2017  15:30:51  PAGE 143


      00000091H   SFRSYM    DATA     BYTE      TIM5_CR1
      000000E0H   SFRSYM    DATA     BYTE      ACC
      000000F7H   SFRSYM    DATA     BYTE      PI_UKMINH
      000000C3H   SFRSYM    DATA     BYTE      MD_MAH
      000000A8H.4 SFRSYM    DATA     BIT       ES0
      000000DBH   SFRSYM    DATA     BYTE      LVSR
      000000CBH   SFRSYM    DATA     BYTE      MD_MBH
      000000C0H.4 SFRSYM    DATA     BIT       PADC0
      000000B8H   SFRSYM    DATA     BYTE      IP0
      000000F5H   SFRSYM    DATA     BYTE      PI_UKMAXH
      000000C0H.5 SFRSYM    DATA     BIT       PADC1
      000000C0H   SFRSYM    DATA     BYTE      IP1
      000000C8H   SFRSYM    DATA     BYTE      IP2
      000000F6H   SFRSYM    DATA     BYTE      PI_UKMINL
      000000C2H   SFRSYM    DATA     BYTE      MD_MAL
      00000098H.2 SFRSYM    DATA     BIT       RB8
      000000D8H   SFRSYM    DATA     BYTE      IP3
      000000CAH   SFRSYM    DATA     BYTE      MD_MBL
      000000A8H   SFRSYM    DATA     BIT       EX0
      000000F4H   SFRSYM    DATA     BYTE      PI_UKMAXL
      00000098H.3 SFRSYM    DATA     BIT       TB8
      000000B7H   SFRSYM    DATA     BYTE      TIM0_CCR1H
      000000A8H.2 SFRSYM    DATA     BIT       EX1
      000000BBH   SFRSYM    DATA     BYTE      TIM0_CCR2H
      000000D0H   SFRSYM    DATA     BIT       P
      000000BDH   SFRSYM    DATA     BYTE      TIM0_CCR3H
      000000BFH   SFRSYM    DATA     BYTE      TIM0_CCR4H
      000000C8H.2 SFRSYM    DATA     BIT       PTIM230
      000000EBH   SFRSYM    DATA     BYTE      PI_EKH
      00000098H.5 SFRSYM    DATA     BIT       SM2
      000000B6H   SFRSYM    DATA     BYTE      TIM0_CCR1L
      000000B1H   SFRSYM    DATA     BYTE      TIM0_SR1
      000000C8H.3 SFRSYM    DATA     BIT       PTIM231
      000000BAH   SFRSYM    DATA     BYTE      TIM0_CCR2L
      000000BCH   SFRSYM    DATA     BYTE      TIM0_CCR3L
      000000BEH   SFRSYM    DATA     BYTE      TIM0_CCR4L
      000000D8H.6 SFRSYM    DATA     BIT       PMCD0
      000000C8H.4 SFRSYM    DATA     BIT       PTIM450
      000000D0H.3 SFRSYM    DATA     BIT       RS0
      000000DDH   SFRSYM    DATA     BYTE      LPF_KH
      000000F3H   SFRSYM    DATA     BYTE      PI_KIH
      000000EAH   SFRSYM    DATA     BYTE      PI_EKL
      000000E8H   SFRSYM    DATA     BYTE      FOC_SET0
      000000D8H.7 SFRSYM    DATA     BIT       PMCD1
      000000C8H.5 SFRSYM    DATA     BIT       PTIM451
      000000D0H.4 SFRSYM    DATA     BIT       RS1
      000000E9H   SFRSYM    DATA     BYTE      FOC_SET1
      000000B8H.6 SFRSYM    DATA     BIT       PFOC0
      000000DCH   SFRSYM    DATA     BYTE      LPF_KL
      000000F2H   SFRSYM    DATA     BYTE      PI_KIL
      000000B8H.7 SFRSYM    DATA     BIT       PFOC1
      000000ADH   SFRSYM    DATA     BYTE      TIM2_DRH
      000000B9H   SFRSYM    DATA     BYTE      TIM0_IER
      00000083H   SFRSYM    DATA     BYTE      DPH
      000000EFH   SFRSYM    DATA     BYTE      PI_KPH
      000000A5H   SFRSYM    DATA     BYTE      TIM3_DRH
      00000095H   SFRSYM    DATA     BYTE      TIM4_DRH
      0000008DH   SFRSYM    DATA     BYTE      TIM5_DRH
      000000ACH   SFRSYM    DATA     BYTE      TIM2_DRL
      00000082H   SFRSYM    DATA     BYTE      DPL
      000000EEH   SFRSYM    DATA     BYTE      PI_KPL
      000000A4H   SFRSYM    DATA     BYTE      TIM3_DRL
      000000F8H.7 SFRSYM    DATA     BIT       MOE
      000000C0H.6 SFRSYM    DATA     BIT       PCMP0
      000000EDH   SFRSYM    DATA     BYTE      PI_UKH
LX51 LINKER/LOCATER V4.66.1.0                                                         08/07/2017  15:30:51  PAGE 144


      00000094H   SFRSYM    DATA     BYTE      TIM4_DRL
      000000C0H.7 SFRSYM    DATA     BIT       PCMP1
      000000DFH   SFRSYM    DATA     BYTE      LPF_XH
      0000008CH   SFRSYM    DATA     BYTE      TIM5_DRL
      000000AEH   SFRSYM    DATA     WORD      TIM2_ARR
      000000A8H.5 SFRSYM    DATA     BIT       MCDIE
      000000C9H   SFRSYM    DATA     BYTE      RSTSRC
      000000E7H   SFRSYM    DATA     BYTE      LPF_YH
      000000A6H   SFRSYM    DATA     WORD      TIM3_ARR
      00000088H.6 SFRSYM    DATA     BIT       MCDIF
      00000098H.4 SFRSYM    DATA     BIT       REN
      00000096H   SFRSYM    DATA     WORD      TIM4_ARR
      000000ECH   SFRSYM    DATA     BYTE      PI_UKL
      000000D7H   SFRSYM    DATA     BYTE      CMP_SR
      0000008EH   SFRSYM    DATA     WORD      TIM5_ARR
      000000DEH   SFRSYM    DATA     BYTE      LPF_XL
      000000E6H   SFRSYM    DATA     BYTE      LPF_YL
      000000C8H   SFRSYM    DATA     BIT       PRTC0
      000000C8H.1 SFRSYM    DATA     BIT       PRTC1
      000000E8H.7 SFRSYM    DATA     BIT       FOCEN
      000000C8H.6 SFRSYM    DATA     BIT       PTSD0
      000000D8H.4 SFRSYM    DATA     BIT       PSPI0
      000000C8H.7 SFRSYM    DATA     BIT       PTSD1
      000000D8H.5 SFRSYM    DATA     BIT       PSPI1
      0000009BH   SFRSYM    DATA     BYTE      UT_BAUDH
      000000E4H   SFRSYM    DATA     WORD      SV_ANGLE
      000000B5H   SFRSYM    DATA     BYTE      TIM2_ADTRH
      0000009AH   SFRSYM    DATA     BYTE      UT_BAUDL
      000000FCH   SFRSYM    DATA     BYTE      P0_OE
      000000FDH   SFRSYM    DATA     BYTE      P1_OE
      000000D0H.5 SFRSYM    DATA     BIT       F0
      000000B4H   SFRSYM    DATA     BYTE      TIM2_ADTRL
      000000FEH   SFRSYM    DATA     BYTE      P2_OE
      000000D0H.1 SFRSYM    DATA     BIT       F1
      00000080H   SFRSYM    DATA     BIT       GP00
      000000FFH   SFRSYM    DATA     BYTE      P3_OE
      00000090H   SFRSYM    DATA     BIT       GP10
      00000080H.1 SFRSYM    DATA     BIT       GP01
      000000A8H.6 SFRSYM    DATA     BIT       RTCIE
      000000A0H   SFRSYM    DATA     BIT       GP20
      00000090H.1 SFRSYM    DATA     BIT       GP11
      00000080H.2 SFRSYM    DATA     BIT       GP02
      000000E3H   SFRSYM    DATA     BYTE      SV_USH
      000000B0H   SFRSYM    DATA     BIT       GP30
      000000A0H.1 SFRSYM    DATA     BIT       GP21
      00000090H.2 SFRSYM    DATA     BIT       GP12
      00000080H.3 SFRSYM    DATA     BIT       GP03
      000000B8H   SFRSYM    DATA     BIT       PLVW0
      000000A8H.1 SFRSYM    DATA     BIT       TSDIE
      000000D0H   SFRSYM    DATA     BYTE      PSW
      000000B0H.1 SFRSYM    DATA     BIT       GP31
      000000A0H.2 SFRSYM    DATA     BIT       GP22
      00000090H.3 SFRSYM    DATA     BIT       GP13
      00000080H.4 SFRSYM    DATA     BIT       GP04
      000000B8H.1 SFRSYM    DATA     BIT       PLVW1
      000000A8H.3 SFRSYM    DATA     BIT       SPIIE
      00000088H.5 SFRSYM    DATA     BIT       TSDIF
      000000B0H.2 SFRSYM    DATA     BIT       GP32
      000000A0H.3 SFRSYM    DATA     BIT       GP23
      00000090H.4 SFRSYM    DATA     BIT       GP14
      00000080H.5 SFRSYM    DATA     BIT       GP05
      00000084H   SFRSYM    DATA     BYTE      FLKEY
      000000B3H   SFRSYM    DATA     BYTE      TIM2_CMTRH
      000000B0H.3 SFRSYM    DATA     BIT       GP33
      000000A0H.4 SFRSYM    DATA     BIT       GP24
LX51 LINKER/LOCATER V4.66.1.0                                                         08/07/2017  15:30:51  PAGE 145


      00000090H.5 SFRSYM    DATA     BIT       GP15
      00000080H.6 SFRSYM    DATA     BIT       GP06
      00000088H   SFRSYM    DATA     BIT       IT00

      010016B0H   BLOCK     CODE     ---       LVL=0
      010016B0H   BLOCK     CODE     NEAR LAB  LVL=1
      02000211H   SYMBOL    XDATA    BYTE      temp
      ---         BLOCKEND  ---      ---       LVL=1
      010016B0H   LINE      CODE     ---       #31
      010016B0H   LINE      CODE     ---       #32
      010016B0H   LINE      CODE     ---       #42
      010016B7H   LINE      CODE     ---       #43
      010016BBH   LINE      CODE     ---       #44
      010016BFH   LINE      CODE     ---       #45
      010016C3H   LINE      CODE     ---       #46
      010016C7H   LINE      CODE     ---       #47
      010016CBH   LINE      CODE     ---       #49
      010016D2H   LINE      CODE     ---       #50
      010016D6H   LINE      CODE     ---       #51
      010016DAH   LINE      CODE     ---       #66
      010016E1H   LINE      CODE     ---       #72
      010016E8H   LINE      CODE     ---       #73
      010016ECH   LINE      CODE     ---       #78
      010016F0H   LINE      CODE     ---       #79
      010016F4H   LINE      CODE     ---       #80
      010016F8H   LINE      CODE     ---       #81
      010016FDH   LINE      CODE     ---       #101
      01001704H   LINE      CODE     ---       #102
      01001708H   LINE      CODE     ---       #103
      0100170CH   LINE      CODE     ---       #111
      01001713H   LINE      CODE     ---       #112
      01001717H   LINE      CODE     ---       #117
      0100171EH   LINE      CODE     ---       #120
      01001722H   LINE      CODE     ---       #121
      01001726H   LINE      CODE     ---       #122
      0100172AH   LINE      CODE     ---       #123
      0100172EH   LINE      CODE     ---       #161
      01001735H   LINE      CODE     ---       #162
      0100173DH   LINE      CODE     ---       #163
      01001743H   LINE      CODE     ---       #164
      0100174AH   LINE      CODE     ---       #166
      01001751H   LINE      CODE     ---       #167
      01001755H   LINE      CODE     ---       #168
      0100175DH   LINE      CODE     ---       #169
      01001761H   LINE      CODE     ---       #174
      01001766H   LINE      CODE     ---       #175
      0100176DH   LINE      CODE     ---       #176
      01001771H   LINE      CODE     ---       #177
      01001775H   LINE      CODE     ---       #178
      01001779H   LINE      CODE     ---       #179
      0100177DH   LINE      CODE     ---       #181
      01001783H   LINE      CODE     ---       #182
      01001789H   LINE      CODE     ---       #183
      01001789H   LINE      CODE     ---       #184
      0100178CH   LINE      CODE     ---       #185
      0100178EH   LINE      CODE     ---       #186
      0100179BH   LINE      CODE     ---       #187
      0100179BH   LINE      CODE     ---       #188
      0100179EH   LINE      CODE     ---       #189
      0100179EH   LINE      CODE     ---       #200
      010017A5H   LINE      CODE     ---       #201
      010017A7H   LINE      CODE     ---       #202
      ---         BLOCKEND  ---      ---       LVL=0

      01002E96H   BLOCK     CODE     ---       LVL=0
LX51 LINKER/LOCATER V4.66.1.0                                                         08/07/2017  15:30:51  PAGE 146


      01002E96H   LINE      CODE     ---       #211
      01002E96H   LINE      CODE     ---       #212
      01002E96H   LINE      CODE     ---       #218
      01002E99H   LINE      CODE     ---       #219
      01002E9CH   LINE      CODE     ---       #220
      01002E9FH   LINE      CODE     ---       #222
      01002EA2H   LINE      CODE     ---       #223
      01002EA5H   LINE      CODE     ---       #224
      01002EA8H   LINE      CODE     ---       #232
      01002EABH   LINE      CODE     ---       #233
      01002EAEH   LINE      CODE     ---       #236
      01002EB1H   LINE      CODE     ---       #239
      01002EB4H   LINE      CODE     ---       #241
      01002EB7H   LINE      CODE     ---       #242
      01002EBAH   LINE      CODE     ---       #244
      01002EC0H   LINE      CODE     ---       #245
      01002EC6H   LINE      CODE     ---       #250
      01002EC9H   LINE      CODE     ---       #251
      ---         BLOCKEND  ---      ---       LVL=0

      01002736H   BLOCK     CODE     ---       LVL=0
      01002736H   LINE      CODE     ---       #260
      01002736H   LINE      CODE     ---       #261
      01002736H   LINE      CODE     ---       #262
      01002739H   LINE      CODE     ---       #269
      0100273CH   LINE      CODE     ---       #270
      0100273FH   LINE      CODE     ---       #271
      01002742H   LINE      CODE     ---       #280
      01002745H   LINE      CODE     ---       #281
      01002748H   LINE      CODE     ---       #282
      0100274BH   LINE      CODE     ---       #283
      0100274EH   LINE      CODE     ---       #285
      01002756H   LINE      CODE     ---       #286
      0100275EH   LINE      CODE     ---       #287
      01002766H   LINE      CODE     ---       #288
      01002769H   LINE      CODE     ---       #289
      0100276CH   LINE      CODE     ---       #292
      0100276CH   LINE      CODE     ---       #293
      01002772H   LINE      CODE     ---       #294
      01002777H   LINE      CODE     ---       #295
      0100277CH   LINE      CODE     ---       #296
      0100277FH   LINE      CODE     ---       #297
      01002782H   LINE      CODE     ---       #298
      01002785H   LINE      CODE     ---       #299
      0100278CH   LINE      CODE     ---       #300
      01002793H   LINE      CODE     ---       #301
      01002796H   LINE      CODE     ---       #302
      0100279DH   LINE      CODE     ---       #303
      010027A0H   LINE      CODE     ---       #304
      010027A0H   LINE      CODE     ---       #324
      010027A3H   LINE      CODE     ---       #325
      ---         BLOCKEND  ---      ---       LVL=0

      01002CF2H   BLOCK     CODE     ---       LVL=0
      01002CF2H   LINE      CODE     ---       #333
      01002CF2H   LINE      CODE     ---       #334
      01002CF2H   LINE      CODE     ---       #336
      01002CF5H   LINE      CODE     ---       #343
      01002CF8H   LINE      CODE     ---       #344
      01002CFBH   LINE      CODE     ---       #345
      01002CFEH   LINE      CODE     ---       #354
      01002D01H   LINE      CODE     ---       #355
      01002D04H   LINE      CODE     ---       #356
      01002D07H   LINE      CODE     ---       #358
      01002D0AH   LINE      CODE     ---       #359
LX51 LINKER/LOCATER V4.66.1.0                                                         08/07/2017  15:30:51  PAGE 147


      01002D0DH   LINE      CODE     ---       #360
      01002D10H   LINE      CODE     ---       #361
      01002D13H   LINE      CODE     ---       #362
      01002D16H   LINE      CODE     ---       #364
      01002D1CH   LINE      CODE     ---       #365
      01002D28H   LINE      CODE     ---       #366
      01002D2EH   LINE      CODE     ---       #368
      01002D31H   LINE      CODE     ---       #370
      ---         BLOCKEND  ---      ---       LVL=0

      ---         MODULE    ---      ---       FU68XX_MCUART
      000000E2H   SFRSYM    DATA     BYTE      SV_USL
      000000ABH   SFRSYM    DATA     BYTE      TIM2_CNTRH
      000000B0H.4 SFRSYM    DATA     BIT       GP34
      000000A0H.5 SFRSYM    DATA     BIT       GP25
      00000090H.6 SFRSYM    DATA     BIT       GP16
      00000080H.7 SFRSYM    DATA     BIT       GP07
      00000088H.1 SFRSYM    DATA     BIT       IT01
      00000088H.3 SFRSYM    DATA     BIT       IT10
      000000F6H   SFRSYM    DATA     WORD      PI_UKMIN
      000000C2H   SFRSYM    DATA     WORD      MD_MA
      000000A3H   SFRSYM    DATA     BYTE      TIM3_CNTRH
      000000B0H.5 SFRSYM    DATA     BIT       GP35
      000000A0H.6 SFRSYM    DATA     BIT       GP26
      00000090H.7 SFRSYM    DATA     BIT       GP17
      00000080H   SFRSYM    DATA     BYTE      P0
      00000088H.4 SFRSYM    DATA     BIT       IT11
      000000CAH   SFRSYM    DATA     WORD      MD_MB
      00000093H   SFRSYM    DATA     BYTE      TIM4_CNTRH
      000000B0H.6 SFRSYM    DATA     BIT       GP36
      000000A0H.7 SFRSYM    DATA     BIT       GP27
      00000090H   SFRSYM    DATA     BYTE      P1
      000000D9H   SFRSYM    DATA     BYTE      EVT_FILT
      000000F4H   SFRSYM    DATA     WORD      PI_UKMAX
      0000008BH   SFRSYM    DATA     BYTE      TIM5_CNTRH
      000000B2H   SFRSYM    DATA     BYTE      TIM2_CMTRL
      000000B0H.7 SFRSYM    DATA     BIT       GP37
      000000A0H   SFRSYM    DATA     BYTE      P2
      000000AAH   SFRSYM    DATA     BYTE      TIM2_CNTRL
      000000B0H   SFRSYM    DATA     BYTE      P3
      000000A2H   SFRSYM    DATA     BYTE      TIM3_CNTRL
      000000D0H.6 SFRSYM    DATA     BIT       AC
      00000092H   SFRSYM    DATA     BYTE      TIM4_CNTRL
      0000008AH   SFRSYM    DATA     BYTE      TIM5_CNTRL
      000000B6H   SFRSYM    DATA     WORD      TIM0_CCR1
      000000A8H.7 SFRSYM    DATA     BIT       EA
      000000D5H   SFRSYM    DATA     BYTE      CMP_CR0
      000000BAH   SFRSYM    DATA     WORD      TIM0_CCR2
      000000D6H   SFRSYM    DATA     BYTE      CMP_CR1
      000000BCH   SFRSYM    DATA     WORD      TIM0_CCR3
      00000085H   SFRSYM    DATA     BYTE      PSCTL
      000000DAH   SFRSYM    DATA     BYTE      CMP_CR2
      000000BEH   SFRSYM    DATA     WORD      TIM0_CCR4
      000000B8H.2 SFRSYM    DATA     BIT       PX00
      000000EAH   SFRSYM    DATA     WORD      PI_EK
      000000F8H   SFRSYM    DATA     BIT       OISUH
      000000B8H.3 SFRSYM    DATA     BIT       PX01
      000000B8H.4 SFRSYM    DATA     BIT       PX10
      000000F8H.2 SFRSYM    DATA     BIT       OISVH
      000000B8H.5 SFRSYM    DATA     BIT       PX11
      000000F8H.4 SFRSYM    DATA     BIT       OISWH
      000000DCH   SFRSYM    DATA     WORD      LPF_K
      000000F2H   SFRSYM    DATA     WORD      PI_KI
      000000F8H.1 SFRSYM    DATA     BIT       OISUL
      000000A8H   SFRSYM    DATA     BYTE      IE
LX51 LINKER/LOCATER V4.66.1.0                                                         08/07/2017  15:30:51  PAGE 148


      000000F8H.3 SFRSYM    DATA     BIT       OISVL
      000000F8H.5 SFRSYM    DATA     BIT       OISWL
      000000D1H   SFRSYM    DATA     BYTE      P1IE
      00000098H.6 SFRSYM    DATA     BIT       MOD0
      000000D3H   SFRSYM    DATA     BYTE      P2IE
      000000D2H   SFRSYM    DATA     BYTE      P1IF
      000000F9H   SFRSYM    DATA     BYTE      PL_CR
      00000098H.7 SFRSYM    DATA     BIT       MOD1
      000000D4H   SFRSYM    DATA     BYTE      P2IF
      000000ACH   SFRSYM    DATA     WORD      TIM2_DR
      00000082H   SFRSYM    DATA     WORD      DP
      000000EEH   SFRSYM    DATA     WORD      PI_KP
      000000A4H   SFRSYM    DATA     WORD      TIM3_DR
      00000094H   SFRSYM    DATA     WORD      TIM4_DR
      0000008CH   SFRSYM    DATA     WORD      TIM5_DR
      000000F1H   SFRSYM    DATA     BYTE      OSC_CFG
      000000C1H   SFRSYM    DATA     BYTE      MD_MODE
      000000ECH   SFRSYM    DATA     WORD      PI_UK
      000000DEH   SFRSYM    DATA     WORD      LPF_X
      00000098H   SFRSYM    DATA     BIT       RI
      000000E6H   SFRSYM    DATA     WORD      LPF_Y
      000000C0H   SFRSYM    DATA     BIT       PTIM00
      000000D0H.7 SFRSYM    DATA     BIT       CY
      00000098H.1 SFRSYM    DATA     BIT       TI
      000000C0H.1 SFRSYM    DATA     BIT       PTIM01
      000000C0H.2 SFRSYM    DATA     BIT       PTIM10
      000000C0H.3 SFRSYM    DATA     BIT       PTIM11
      000000E1H   SFRSYM    DATA     BYTE      SV_CR
      00000098H   SFRSYM    DATA     BYTE      UT_CR
      00000099H   SFRSYM    DATA     BYTE      UT_DR
      000000F8H.6 SFRSYM    DATA     BIT       OIS4
      00000081H   SFRSYM    DATA     BYTE      SP
      000000D0H.2 SFRSYM    DATA     BIT       OV
      000000C4H   SFRSYM    DATA     BYTE      MD_DA0
      0000009AH   SFRSYM    DATA     WORD      UT_BAUD
      000000CCH   SFRSYM    DATA     BYTE      MD_DB0
      000000C5H   SFRSYM    DATA     BYTE      MD_DA1
      000000CDH   SFRSYM    DATA     BYTE      MD_DB1
      000000C6H   SFRSYM    DATA     BYTE      MD_DA2
      000000CEH   SFRSYM    DATA     BYTE      MD_DB2
      000000C7H   SFRSYM    DATA     BYTE      MD_DA3
      000000B4H   SFRSYM    DATA     WORD      TIM2_ADTR
      000000CFH   SFRSYM    DATA     BYTE      MD_DB3
      000000AFH   SFRSYM    DATA     BYTE      TIM2_ARRH
      000000A7H   SFRSYM    DATA     BYTE      TIM3_ARRH
      00000097H   SFRSYM    DATA     BYTE      TIM4_ARRH
      0000008FH   SFRSYM    DATA     BYTE      TIM5_ARRH
      000000AEH   SFRSYM    DATA     BYTE      TIM2_ARRL
      000000A6H   SFRSYM    DATA     BYTE      TIM3_ARRL
      00000087H   SFRSYM    DATA     BYTE      PCON
      000000E2H   SFRSYM    DATA     WORD      SV_US
      00000096H   SFRSYM    DATA     BYTE      TIM4_ARRL
      0000008EH   SFRSYM    DATA     BYTE      TIM5_ARRL
      000000B2H   SFRSYM    DATA     WORD      TIM2_CMTR
      00000088H   SFRSYM    DATA     BYTE      TCON
      000000AAH   SFRSYM    DATA     WORD      TIM2_CNTR
      000000A2H   SFRSYM    DATA     WORD      TIM3_CNTR
      00000092H   SFRSYM    DATA     WORD      TIM4_CNTR
      0000008AH   SFRSYM    DATA     WORD      TIM5_CNTR
      000000E5H   SFRSYM    DATA     BYTE      SV_ANGLEH
      000000D8H   SFRSYM    DATA     BIT       PUART0
      000000E4H   SFRSYM    DATA     BYTE      SV_ANGLEL
      000000C6H   SFRSYM    DATA     WORD      MD_DAH
      000000D8H.1 SFRSYM    DATA     BIT       PUART1
      000000D8H.2 SFRSYM    DATA     BIT       PI2C0
LX51 LINKER/LOCATER V4.66.1.0                                                         08/07/2017  15:30:51  PAGE 149


      00000088H.2 SFRSYM    DATA     BIT       IF0
      000000CEH   SFRSYM    DATA     WORD      MD_DBH
      000000D8H.3 SFRSYM    DATA     BIT       PI2C1
      000000F0H   SFRSYM    DATA     BYTE      B
      000000C4H   SFRSYM    DATA     WORD      MD_DAL
      000000A1H   SFRSYM    DATA     BYTE      TIM2_CR0
      000000CCH   SFRSYM    DATA     WORD      MD_DBL
      0000009CH   SFRSYM    DATA     BYTE      TIM3_CR0
      000000A9H   SFRSYM    DATA     BYTE      TIM2_CR1
      0000009EH   SFRSYM    DATA     BYTE      TIM4_CR0
      0000009DH   SFRSYM    DATA     BYTE      TIM3_CR1
      00000089H   SFRSYM    DATA     BYTE      TIM5_CR0
      0000009FH   SFRSYM    DATA     BYTE      TIM4_CR1
      000000F8H   SFRSYM    DATA     BYTE      DRV_OUT
      00000091H   SFRSYM    DATA     BYTE      TIM5_CR1
      000000E0H   SFRSYM    DATA     BYTE      ACC
      000000F7H   SFRSYM    DATA     BYTE      PI_UKMINH
      000000C3H   SFRSYM    DATA     BYTE      MD_MAH
      000000A8H.4 SFRSYM    DATA     BIT       ES0
      000000DBH   SFRSYM    DATA     BYTE      LVSR
      000000CBH   SFRSYM    DATA     BYTE      MD_MBH
      000000C0H.4 SFRSYM    DATA     BIT       PADC0
      000000B8H   SFRSYM    DATA     BYTE      IP0
      000000F5H   SFRSYM    DATA     BYTE      PI_UKMAXH
      000000C0H.5 SFRSYM    DATA     BIT       PADC1
      000000C0H   SFRSYM    DATA     BYTE      IP1
      000000C8H   SFRSYM    DATA     BYTE      IP2
      000000F6H   SFRSYM    DATA     BYTE      PI_UKMINL
      000000C2H   SFRSYM    DATA     BYTE      MD_MAL
      00000098H.2 SFRSYM    DATA     BIT       RB8
      000000D8H   SFRSYM    DATA     BYTE      IP3
      000000CAH   SFRSYM    DATA     BYTE      MD_MBL
      000000A8H   SFRSYM    DATA     BIT       EX0
      000000F4H   SFRSYM    DATA     BYTE      PI_UKMAXL
      00000098H.3 SFRSYM    DATA     BIT       TB8
      000000B7H   SFRSYM    DATA     BYTE      TIM0_CCR1H
      000000A8H.2 SFRSYM    DATA     BIT       EX1
      000000BBH   SFRSYM    DATA     BYTE      TIM0_CCR2H
      000000D0H   SFRSYM    DATA     BIT       P
      000000BDH   SFRSYM    DATA     BYTE      TIM0_CCR3H
      000000BFH   SFRSYM    DATA     BYTE      TIM0_CCR4H
      000000C8H.2 SFRSYM    DATA     BIT       PTIM230
      000000EBH   SFRSYM    DATA     BYTE      PI_EKH
      00000098H.5 SFRSYM    DATA     BIT       SM2
      000000B6H   SFRSYM    DATA     BYTE      TIM0_CCR1L
      000000B1H   SFRSYM    DATA     BYTE      TIM0_SR1
      000000C8H.3 SFRSYM    DATA     BIT       PTIM231
      000000BAH   SFRSYM    DATA     BYTE      TIM0_CCR2L
      000000BCH   SFRSYM    DATA     BYTE      TIM0_CCR3L
      000000BEH   SFRSYM    DATA     BYTE      TIM0_CCR4L
      000000D8H.6 SFRSYM    DATA     BIT       PMCD0
      000000C8H.4 SFRSYM    DATA     BIT       PTIM450
      000000D0H.3 SFRSYM    DATA     BIT       RS0
      000000DDH   SFRSYM    DATA     BYTE      LPF_KH
      000000F3H   SFRSYM    DATA     BYTE      PI_KIH
      000000EAH   SFRSYM    DATA     BYTE      PI_EKL
      000000E8H   SFRSYM    DATA     BYTE      FOC_SET0
      000000D8H.7 SFRSYM    DATA     BIT       PMCD1
      000000C8H.5 SFRSYM    DATA     BIT       PTIM451
      000000D0H.4 SFRSYM    DATA     BIT       RS1
      000000E9H   SFRSYM    DATA     BYTE      FOC_SET1
      000000B8H.6 SFRSYM    DATA     BIT       PFOC0
      000000DCH   SFRSYM    DATA     BYTE      LPF_KL
      000000F2H   SFRSYM    DATA     BYTE      PI_KIL
      000000B8H.7 SFRSYM    DATA     BIT       PFOC1
LX51 LINKER/LOCATER V4.66.1.0                                                         08/07/2017  15:30:51  PAGE 150


      000000ADH   SFRSYM    DATA     BYTE      TIM2_DRH
      000000B9H   SFRSYM    DATA     BYTE      TIM0_IER
      00000083H   SFRSYM    DATA     BYTE      DPH
      000000EFH   SFRSYM    DATA     BYTE      PI_KPH
      000000A5H   SFRSYM    DATA     BYTE      TIM3_DRH
      00000095H   SFRSYM    DATA     BYTE      TIM4_DRH
      0000008DH   SFRSYM    DATA     BYTE      TIM5_DRH
      000000ACH   SFRSYM    DATA     BYTE      TIM2_DRL
      00000082H   SFRSYM    DATA     BYTE      DPL
      000000EEH   SFRSYM    DATA     BYTE      PI_KPL
      000000A4H   SFRSYM    DATA     BYTE      TIM3_DRL
      000000F8H.7 SFRSYM    DATA     BIT       MOE
      000000C0H.6 SFRSYM    DATA     BIT       PCMP0
      000000EDH   SFRSYM    DATA     BYTE      PI_UKH
      00000094H   SFRSYM    DATA     BYTE      TIM4_DRL
      000000C0H.7 SFRSYM    DATA     BIT       PCMP1
      000000DFH   SFRSYM    DATA     BYTE      LPF_XH
      0000008CH   SFRSYM    DATA     BYTE      TIM5_DRL
      000000AEH   SFRSYM    DATA     WORD      TIM2_ARR
      000000A8H.5 SFRSYM    DATA     BIT       MCDIE
      000000C9H   SFRSYM    DATA     BYTE      RSTSRC
      000000E7H   SFRSYM    DATA     BYTE      LPF_YH
      000000A6H   SFRSYM    DATA     WORD      TIM3_ARR
      00000088H.6 SFRSYM    DATA     BIT       MCDIF
      00000098H.4 SFRSYM    DATA     BIT       REN
      00000096H   SFRSYM    DATA     WORD      TIM4_ARR
      000000ECH   SFRSYM    DATA     BYTE      PI_UKL
      000000D7H   SFRSYM    DATA     BYTE      CMP_SR
      0000008EH   SFRSYM    DATA     WORD      TIM5_ARR
      000000DEH   SFRSYM    DATA     BYTE      LPF_XL
      000000E6H   SFRSYM    DATA     BYTE      LPF_YL
      000000C8H   SFRSYM    DATA     BIT       PRTC0
      000000C8H.1 SFRSYM    DATA     BIT       PRTC1
      000000E8H.7 SFRSYM    DATA     BIT       FOCEN
      000000C8H.6 SFRSYM    DATA     BIT       PTSD0
      000000D8H.4 SFRSYM    DATA     BIT       PSPI0
      000000C8H.7 SFRSYM    DATA     BIT       PTSD1
      000000D8H.5 SFRSYM    DATA     BIT       PSPI1
      0000009BH   SFRSYM    DATA     BYTE      UT_BAUDH
      000000E4H   SFRSYM    DATA     WORD      SV_ANGLE
      000000B5H   SFRSYM    DATA     BYTE      TIM2_ADTRH
      0000009AH   SFRSYM    DATA     BYTE      UT_BAUDL
      000000FCH   SFRSYM    DATA     BYTE      P0_OE
      000000FDH   SFRSYM    DATA     BYTE      P1_OE
      000000D0H.5 SFRSYM    DATA     BIT       F0
      000000B4H   SFRSYM    DATA     BYTE      TIM2_ADTRL
      000000FEH   SFRSYM    DATA     BYTE      P2_OE
      000000D0H.1 SFRSYM    DATA     BIT       F1
      00000080H   SFRSYM    DATA     BIT       GP00
      000000FFH   SFRSYM    DATA     BYTE      P3_OE
      00000090H   SFRSYM    DATA     BIT       GP10
      00000080H.1 SFRSYM    DATA     BIT       GP01
      000000A8H.6 SFRSYM    DATA     BIT       RTCIE
      000000A0H   SFRSYM    DATA     BIT       GP20
      00000090H.1 SFRSYM    DATA     BIT       GP11
      00000080H.2 SFRSYM    DATA     BIT       GP02
      000000E3H   SFRSYM    DATA     BYTE      SV_USH
      000000B0H   SFRSYM    DATA     BIT       GP30
      000000A0H.1 SFRSYM    DATA     BIT       GP21
      00000090H.2 SFRSYM    DATA     BIT       GP12
      00000080H.3 SFRSYM    DATA     BIT       GP03
      000000B8H   SFRSYM    DATA     BIT       PLVW0
      000000A8H.1 SFRSYM    DATA     BIT       TSDIE
      000000D0H   SFRSYM    DATA     BYTE      PSW
      000000B0H.1 SFRSYM    DATA     BIT       GP31
LX51 LINKER/LOCATER V4.66.1.0                                                         08/07/2017  15:30:51  PAGE 151


      000000A0H.2 SFRSYM    DATA     BIT       GP22
      00000090H.3 SFRSYM    DATA     BIT       GP13
      00000080H.4 SFRSYM    DATA     BIT       GP04
      000000B8H.1 SFRSYM    DATA     BIT       PLVW1
      000000A8H.3 SFRSYM    DATA     BIT       SPIIE
      00000088H.5 SFRSYM    DATA     BIT       TSDIF
      000000B0H.2 SFRSYM    DATA     BIT       GP32
      000000A0H.3 SFRSYM    DATA     BIT       GP23
      00000090H.4 SFRSYM    DATA     BIT       GP14
      00000080H.5 SFRSYM    DATA     BIT       GP05
      00000084H   SFRSYM    DATA     BYTE      FLKEY
      000000B3H   SFRSYM    DATA     BYTE      TIM2_CMTRH
      000000B0H.3 SFRSYM    DATA     BIT       GP33
      000000A0H.4 SFRSYM    DATA     BIT       GP24
      00000090H.5 SFRSYM    DATA     BIT       GP15
      00000080H.6 SFRSYM    DATA     BIT       GP06
      00000088H   SFRSYM    DATA     BIT       IT00
      00000004H   SYMBOL    DATA     WORD      T_Data

      ---         MODULE    ---      ---       FU68XX_SYSTEM
      00000020H.2 PUBLIC    BIT      BIT       ?VHALFConfig?BIT
      01002FC2H   PUBLIC    CODE     ---       VHALFConfig
      00000020H.2 PUBLIC    BIT      BIT       ?_VREFConfig?BIT
      01002C2CH   PUBLIC    CODE     ---       _VREFConfig
      000000E2H   SFRSYM    DATA     BYTE      SV_USL
      000000ABH   SFRSYM    DATA     BYTE      TIM2_CNTRH
      000000B0H.4 SFRSYM    DATA     BIT       GP34
      000000A0H.5 SFRSYM    DATA     BIT       GP25
      00000090H.6 SFRSYM    DATA     BIT       GP16
      00000080H.7 SFRSYM    DATA     BIT       GP07
      00000088H.1 SFRSYM    DATA     BIT       IT01
      00000088H.3 SFRSYM    DATA     BIT       IT10
      000000F6H   SFRSYM    DATA     WORD      PI_UKMIN
      000000C2H   SFRSYM    DATA     WORD      MD_MA
      000000A3H   SFRSYM    DATA     BYTE      TIM3_CNTRH
      000000B0H.5 SFRSYM    DATA     BIT       GP35
      000000A0H.6 SFRSYM    DATA     BIT       GP26
      00000090H.7 SFRSYM    DATA     BIT       GP17
      00000080H   SFRSYM    DATA     BYTE      P0
      00000088H.4 SFRSYM    DATA     BIT       IT11
      000000CAH   SFRSYM    DATA     WORD      MD_MB
      00000093H   SFRSYM    DATA     BYTE      TIM4_CNTRH
      000000B0H.6 SFRSYM    DATA     BIT       GP36
      000000A0H.7 SFRSYM    DATA     BIT       GP27
      00000090H   SFRSYM    DATA     BYTE      P1
      000000D9H   SFRSYM    DATA     BYTE      EVT_FILT
      000000F4H   SFRSYM    DATA     WORD      PI_UKMAX
      0000008BH   SFRSYM    DATA     BYTE      TIM5_CNTRH
      000000B2H   SFRSYM    DATA     BYTE      TIM2_CMTRL
      000000B0H.7 SFRSYM    DATA     BIT       GP37
      000000A0H   SFRSYM    DATA     BYTE      P2
      000000AAH   SFRSYM    DATA     BYTE      TIM2_CNTRL
      000000B0H   SFRSYM    DATA     BYTE      P3
      000000A2H   SFRSYM    DATA     BYTE      TIM3_CNTRL
      000000D0H.6 SFRSYM    DATA     BIT       AC
      00000092H   SFRSYM    DATA     BYTE      TIM4_CNTRL
      0000008AH   SFRSYM    DATA     BYTE      TIM5_CNTRL
      000000B6H   SFRSYM    DATA     WORD      TIM0_CCR1
      000000A8H.7 SFRSYM    DATA     BIT       EA
      000000D5H   SFRSYM    DATA     BYTE      CMP_CR0
      000000BAH   SFRSYM    DATA     WORD      TIM0_CCR2
      000000D6H   SFRSYM    DATA     BYTE      CMP_CR1
      000000BCH   SFRSYM    DATA     WORD      TIM0_CCR3
      00000085H   SFRSYM    DATA     BYTE      PSCTL
      000000DAH   SFRSYM    DATA     BYTE      CMP_CR2
LX51 LINKER/LOCATER V4.66.1.0                                                         08/07/2017  15:30:51  PAGE 152


      000000BEH   SFRSYM    DATA     WORD      TIM0_CCR4
      000000B8H.2 SFRSYM    DATA     BIT       PX00
      000000EAH   SFRSYM    DATA     WORD      PI_EK
      000000F8H   SFRSYM    DATA     BIT       OISUH
      000000B8H.3 SFRSYM    DATA     BIT       PX01
      000000B8H.4 SFRSYM    DATA     BIT       PX10
      000000F8H.2 SFRSYM    DATA     BIT       OISVH
      000000B8H.5 SFRSYM    DATA     BIT       PX11
      000000F8H.4 SFRSYM    DATA     BIT       OISWH
      000000DCH   SFRSYM    DATA     WORD      LPF_K
      000000F2H   SFRSYM    DATA     WORD      PI_KI
      000000F8H.1 SFRSYM    DATA     BIT       OISUL
      000000A8H   SFRSYM    DATA     BYTE      IE
      000000F8H.3 SFRSYM    DATA     BIT       OISVL
      000000F8H.5 SFRSYM    DATA     BIT       OISWL
      000000D1H   SFRSYM    DATA     BYTE      P1IE
      00000098H.6 SFRSYM    DATA     BIT       MOD0
      000000D3H   SFRSYM    DATA     BYTE      P2IE
      000000D2H   SFRSYM    DATA     BYTE      P1IF
      000000F9H   SFRSYM    DATA     BYTE      PL_CR
      00000098H.7 SFRSYM    DATA     BIT       MOD1
      000000D4H   SFRSYM    DATA     BYTE      P2IF
      000000ACH   SFRSYM    DATA     WORD      TIM2_DR
      00000082H   SFRSYM    DATA     WORD      DP
      000000EEH   SFRSYM    DATA     WORD      PI_KP
      000000A4H   SFRSYM    DATA     WORD      TIM3_DR
      00000094H   SFRSYM    DATA     WORD      TIM4_DR
      0000008CH   SFRSYM    DATA     WORD      TIM5_DR
      000000F1H   SFRSYM    DATA     BYTE      OSC_CFG
      000000C1H   SFRSYM    DATA     BYTE      MD_MODE
      000000ECH   SFRSYM    DATA     WORD      PI_UK
      000000DEH   SFRSYM    DATA     WORD      LPF_X
      00000098H   SFRSYM    DATA     BIT       RI
      000000E6H   SFRSYM    DATA     WORD      LPF_Y
      000000C0H   SFRSYM    DATA     BIT       PTIM00
      000000D0H.7 SFRSYM    DATA     BIT       CY
      00000098H.1 SFRSYM    DATA     BIT       TI
      000000C0H.1 SFRSYM    DATA     BIT       PTIM01
      000000C0H.2 SFRSYM    DATA     BIT       PTIM10
      000000C0H.3 SFRSYM    DATA     BIT       PTIM11
      000000E1H   SFRSYM    DATA     BYTE      SV_CR
      00000098H   SFRSYM    DATA     BYTE      UT_CR
      00000099H   SFRSYM    DATA     BYTE      UT_DR
      000000F8H.6 SFRSYM    DATA     BIT       OIS4
      00000081H   SFRSYM    DATA     BYTE      SP
      000000D0H.2 SFRSYM    DATA     BIT       OV
      000000C4H   SFRSYM    DATA     BYTE      MD_DA0
      0000009AH   SFRSYM    DATA     WORD      UT_BAUD
      000000CCH   SFRSYM    DATA     BYTE      MD_DB0
      000000C5H   SFRSYM    DATA     BYTE      MD_DA1
      000000CDH   SFRSYM    DATA     BYTE      MD_DB1
      000000C6H   SFRSYM    DATA     BYTE      MD_DA2
      000000CEH   SFRSYM    DATA     BYTE      MD_DB2
      000000C7H   SFRSYM    DATA     BYTE      MD_DA3
      000000B4H   SFRSYM    DATA     WORD      TIM2_ADTR
      000000CFH   SFRSYM    DATA     BYTE      MD_DB3
      000000AFH   SFRSYM    DATA     BYTE      TIM2_ARRH
      000000A7H   SFRSYM    DATA     BYTE      TIM3_ARRH
      00000097H   SFRSYM    DATA     BYTE      TIM4_ARRH
      0000008FH   SFRSYM    DATA     BYTE      TIM5_ARRH
      000000AEH   SFRSYM    DATA     BYTE      TIM2_ARRL
      000000A6H   SFRSYM    DATA     BYTE      TIM3_ARRL
      00000087H   SFRSYM    DATA     BYTE      PCON
      000000E2H   SFRSYM    DATA     WORD      SV_US
      00000096H   SFRSYM    DATA     BYTE      TIM4_ARRL
LX51 LINKER/LOCATER V4.66.1.0                                                         08/07/2017  15:30:51  PAGE 153


      0000008EH   SFRSYM    DATA     BYTE      TIM5_ARRL
      000000B2H   SFRSYM    DATA     WORD      TIM2_CMTR
      00000088H   SFRSYM    DATA     BYTE      TCON
      000000AAH   SFRSYM    DATA     WORD      TIM2_CNTR
      000000A2H   SFRSYM    DATA     WORD      TIM3_CNTR
      00000092H   SFRSYM    DATA     WORD      TIM4_CNTR
      0000008AH   SFRSYM    DATA     WORD      TIM5_CNTR
      000000E5H   SFRSYM    DATA     BYTE      SV_ANGLEH
      000000D8H   SFRSYM    DATA     BIT       PUART0
      000000E4H   SFRSYM    DATA     BYTE      SV_ANGLEL
      000000C6H   SFRSYM    DATA     WORD      MD_DAH
      000000D8H.1 SFRSYM    DATA     BIT       PUART1
      000000D8H.2 SFRSYM    DATA     BIT       PI2C0
      00000088H.2 SFRSYM    DATA     BIT       IF0
      000000CEH   SFRSYM    DATA     WORD      MD_DBH
      000000D8H.3 SFRSYM    DATA     BIT       PI2C1
      000000F0H   SFRSYM    DATA     BYTE      B
      000000C4H   SFRSYM    DATA     WORD      MD_DAL
      000000A1H   SFRSYM    DATA     BYTE      TIM2_CR0
      000000CCH   SFRSYM    DATA     WORD      MD_DBL
      0000009CH   SFRSYM    DATA     BYTE      TIM3_CR0
      000000A9H   SFRSYM    DATA     BYTE      TIM2_CR1
      0000009EH   SFRSYM    DATA     BYTE      TIM4_CR0
      0000009DH   SFRSYM    DATA     BYTE      TIM3_CR1
      00000089H   SFRSYM    DATA     BYTE      TIM5_CR0
      0000009FH   SFRSYM    DATA     BYTE      TIM4_CR1
      000000F8H   SFRSYM    DATA     BYTE      DRV_OUT
      00000091H   SFRSYM    DATA     BYTE      TIM5_CR1
      000000E0H   SFRSYM    DATA     BYTE      ACC
      000000F7H   SFRSYM    DATA     BYTE      PI_UKMINH
      000000C3H   SFRSYM    DATA     BYTE      MD_MAH
      000000A8H.4 SFRSYM    DATA     BIT       ES0
      000000DBH   SFRSYM    DATA     BYTE      LVSR
      000000CBH   SFRSYM    DATA     BYTE      MD_MBH
      000000C0H.4 SFRSYM    DATA     BIT       PADC0
      000000B8H   SFRSYM    DATA     BYTE      IP0
      000000F5H   SFRSYM    DATA     BYTE      PI_UKMAXH
      000000C0H.5 SFRSYM    DATA     BIT       PADC1
      000000C0H   SFRSYM    DATA     BYTE      IP1
      000000C8H   SFRSYM    DATA     BYTE      IP2
      000000F6H   SFRSYM    DATA     BYTE      PI_UKMINL
      000000C2H   SFRSYM    DATA     BYTE      MD_MAL
      00000098H.2 SFRSYM    DATA     BIT       RB8
      000000D8H   SFRSYM    DATA     BYTE      IP3
      000000CAH   SFRSYM    DATA     BYTE      MD_MBL
      000000A8H   SFRSYM    DATA     BIT       EX0
      000000F4H   SFRSYM    DATA     BYTE      PI_UKMAXL
      00000098H.3 SFRSYM    DATA     BIT       TB8
      000000B7H   SFRSYM    DATA     BYTE      TIM0_CCR1H
      000000A8H.2 SFRSYM    DATA     BIT       EX1
      000000BBH   SFRSYM    DATA     BYTE      TIM0_CCR2H
      000000D0H   SFRSYM    DATA     BIT       P
      000000BDH   SFRSYM    DATA     BYTE      TIM0_CCR3H
      000000BFH   SFRSYM    DATA     BYTE      TIM0_CCR4H
      000000C8H.2 SFRSYM    DATA     BIT       PTIM230
      000000EBH   SFRSYM    DATA     BYTE      PI_EKH
      00000098H.5 SFRSYM    DATA     BIT       SM2
      000000B6H   SFRSYM    DATA     BYTE      TIM0_CCR1L
      000000B1H   SFRSYM    DATA     BYTE      TIM0_SR1
      000000C8H.3 SFRSYM    DATA     BIT       PTIM231
      000000BAH   SFRSYM    DATA     BYTE      TIM0_CCR2L
      000000BCH   SFRSYM    DATA     BYTE      TIM0_CCR3L
      000000BEH   SFRSYM    DATA     BYTE      TIM0_CCR4L
      000000D8H.6 SFRSYM    DATA     BIT       PMCD0
      000000C8H.4 SFRSYM    DATA     BIT       PTIM450
LX51 LINKER/LOCATER V4.66.1.0                                                         08/07/2017  15:30:51  PAGE 154


      000000D0H.3 SFRSYM    DATA     BIT       RS0
      000000DDH   SFRSYM    DATA     BYTE      LPF_KH
      000000F3H   SFRSYM    DATA     BYTE      PI_KIH
      000000EAH   SFRSYM    DATA     BYTE      PI_EKL
      000000E8H   SFRSYM    DATA     BYTE      FOC_SET0
      000000D8H.7 SFRSYM    DATA     BIT       PMCD1
      000000C8H.5 SFRSYM    DATA     BIT       PTIM451
      000000D0H.4 SFRSYM    DATA     BIT       RS1
      000000E9H   SFRSYM    DATA     BYTE      FOC_SET1
      000000B8H.6 SFRSYM    DATA     BIT       PFOC0
      000000DCH   SFRSYM    DATA     BYTE      LPF_KL
      000000F2H   SFRSYM    DATA     BYTE      PI_KIL
      000000B8H.7 SFRSYM    DATA     BIT       PFOC1
      000000ADH   SFRSYM    DATA     BYTE      TIM2_DRH
      000000B9H   SFRSYM    DATA     BYTE      TIM0_IER
      00000083H   SFRSYM    DATA     BYTE      DPH
      000000EFH   SFRSYM    DATA     BYTE      PI_KPH
      000000A5H   SFRSYM    DATA     BYTE      TIM3_DRH
      00000095H   SFRSYM    DATA     BYTE      TIM4_DRH
      0000008DH   SFRSYM    DATA     BYTE      TIM5_DRH
      000000ACH   SFRSYM    DATA     BYTE      TIM2_DRL
      00000082H   SFRSYM    DATA     BYTE      DPL
      000000EEH   SFRSYM    DATA     BYTE      PI_KPL
      000000A4H   SFRSYM    DATA     BYTE      TIM3_DRL
      000000F8H.7 SFRSYM    DATA     BIT       MOE
      000000C0H.6 SFRSYM    DATA     BIT       PCMP0
      000000EDH   SFRSYM    DATA     BYTE      PI_UKH
      00000094H   SFRSYM    DATA     BYTE      TIM4_DRL
      000000C0H.7 SFRSYM    DATA     BIT       PCMP1
      000000DFH   SFRSYM    DATA     BYTE      LPF_XH
      0000008CH   SFRSYM    DATA     BYTE      TIM5_DRL
      000000AEH   SFRSYM    DATA     WORD      TIM2_ARR
      000000A8H.5 SFRSYM    DATA     BIT       MCDIE
      000000C9H   SFRSYM    DATA     BYTE      RSTSRC
      000000E7H   SFRSYM    DATA     BYTE      LPF_YH
      000000A6H   SFRSYM    DATA     WORD      TIM3_ARR
      00000088H.6 SFRSYM    DATA     BIT       MCDIF
      00000098H.4 SFRSYM    DATA     BIT       REN
      00000096H   SFRSYM    DATA     WORD      TIM4_ARR
      000000ECH   SFRSYM    DATA     BYTE      PI_UKL
      000000D7H   SFRSYM    DATA     BYTE      CMP_SR
      0000008EH   SFRSYM    DATA     WORD      TIM5_ARR
      000000DEH   SFRSYM    DATA     BYTE      LPF_XL
      000000E6H   SFRSYM    DATA     BYTE      LPF_YL
      000000C8H   SFRSYM    DATA     BIT       PRTC0
      000000C8H.1 SFRSYM    DATA     BIT       PRTC1
      000000E8H.7 SFRSYM    DATA     BIT       FOCEN
      000000C8H.6 SFRSYM    DATA     BIT       PTSD0
      000000D8H.4 SFRSYM    DATA     BIT       PSPI0
      000000C8H.7 SFRSYM    DATA     BIT       PTSD1
      000000D8H.5 SFRSYM    DATA     BIT       PSPI1
      0000009BH   SFRSYM    DATA     BYTE      UT_BAUDH
      000000E4H   SFRSYM    DATA     WORD      SV_ANGLE
      000000B5H   SFRSYM    DATA     BYTE      TIM2_ADTRH
      0000009AH   SFRSYM    DATA     BYTE      UT_BAUDL
      000000FCH   SFRSYM    DATA     BYTE      P0_OE
      000000FDH   SFRSYM    DATA     BYTE      P1_OE
      000000D0H.5 SFRSYM    DATA     BIT       F0
      000000B4H   SFRSYM    DATA     BYTE      TIM2_ADTRL
      000000FEH   SFRSYM    DATA     BYTE      P2_OE
      000000D0H.1 SFRSYM    DATA     BIT       F1
      00000080H   SFRSYM    DATA     BIT       GP00
      000000FFH   SFRSYM    DATA     BYTE      P3_OE
      00000090H   SFRSYM    DATA     BIT       GP10
      00000080H.1 SFRSYM    DATA     BIT       GP01
LX51 LINKER/LOCATER V4.66.1.0                                                         08/07/2017  15:30:51  PAGE 155


      000000A8H.6 SFRSYM    DATA     BIT       RTCIE
      000000A0H   SFRSYM    DATA     BIT       GP20
      00000090H.1 SFRSYM    DATA     BIT       GP11
      00000080H.2 SFRSYM    DATA     BIT       GP02
      000000E3H   SFRSYM    DATA     BYTE      SV_USH
      000000B0H   SFRSYM    DATA     BIT       GP30
      000000A0H.1 SFRSYM    DATA     BIT       GP21
      00000090H.2 SFRSYM    DATA     BIT       GP12
      00000080H.3 SFRSYM    DATA     BIT       GP03
      000000B8H   SFRSYM    DATA     BIT       PLVW0
      000000A8H.1 SFRSYM    DATA     BIT       TSDIE
      000000D0H   SFRSYM    DATA     BYTE      PSW
      000000B0H.1 SFRSYM    DATA     BIT       GP31
      000000A0H.2 SFRSYM    DATA     BIT       GP22
      00000090H.3 SFRSYM    DATA     BIT       GP13
      00000080H.4 SFRSYM    DATA     BIT       GP04
      000000B8H.1 SFRSYM    DATA     BIT       PLVW1
      000000A8H.3 SFRSYM    DATA     BIT       SPIIE
      00000088H.5 SFRSYM    DATA     BIT       TSDIF
      000000B0H.2 SFRSYM    DATA     BIT       GP32
      000000A0H.3 SFRSYM    DATA     BIT       GP23
      00000090H.4 SFRSYM    DATA     BIT       GP14
      00000080H.5 SFRSYM    DATA     BIT       GP05
      00000084H   SFRSYM    DATA     BYTE      FLKEY
      000000B3H   SFRSYM    DATA     BYTE      TIM2_CMTRH
      000000B0H.3 SFRSYM    DATA     BIT       GP33
      000000A0H.4 SFRSYM    DATA     BIT       GP24
      00000090H.5 SFRSYM    DATA     BIT       GP15
      00000080H.6 SFRSYM    DATA     BIT       GP06
      00000088H   SFRSYM    DATA     BIT       IT00

      01002C2CH   BLOCK     CODE     ---       LVL=0
      00000007H   SYMBOL    DATA     BYTE      Value
      00000020H.2 SYMBOL    BIT      BIT       Status
      01002C2CH   LINE      CODE     ---       #101
      01002C2CH   LINE      CODE     ---       #102
      01002C2CH   LINE      CODE     ---       #103
      01002C3AH   LINE      CODE     ---       #104
      01002C3AH   LINE      CODE     ---       #105
      01002C3AH   LINE      CODE     ---       #106
      01002C40H   LINE      CODE     ---       #107
      01002C40H   LINE      CODE     ---       #108
      01002C42H   LINE      CODE     ---       #109
      01002C42H   LINE      CODE     ---       #110
      01002C48H   LINE      CODE     ---       #111
      01002C48H   LINE      CODE     ---       #112
      01002C4AH   LINE      CODE     ---       #113
      01002C4AH   LINE      CODE     ---       #114
      01002C51H   LINE      CODE     ---       #115
      01002C55H   LINE      CODE     ---       #116
      01002C57H   LINE      CODE     ---       #117
      01002C57H   LINE      CODE     ---       #118
      01002C5EH   LINE      CODE     ---       #119
      01002C62H   LINE      CODE     ---       #120
      01002C62H   LINE      CODE     ---       #121
      01002C62H   LINE      CODE     ---       #122
      01002C62H   LINE      CODE     ---       #123
      01002C62H   LINE      CODE     ---       #124
      01002C70H   LINE      CODE     ---       #125
      ---         BLOCKEND  ---      ---       LVL=0

      01002FC2H   BLOCK     CODE     ---       LVL=0
      00000020H.2 SYMBOL    BIT      BIT       Mode
      00000020H.3 SYMBOL    BIT      BIT       Status
      01002FC2H   LINE      CODE     ---       #136
LX51 LINKER/LOCATER V4.66.1.0                                                         08/07/2017  15:30:51  PAGE 156


      01002FC2H   LINE      CODE     ---       #137
      01002FC2H   LINE      CODE     ---       #138
      01002FD1H   LINE      CODE     ---       #139
      01002FDFH   LINE      CODE     ---       #140
      ---         BLOCKEND  ---      ---       LVL=0
      00000006H   SYMBOL    DATA     WORD      Value
      00000082H   SYMBOL    DATA     ---       FlashAddress
      00000082H   SYMBOL    DATA     ---       FlashAddress
      00000005H   SYMBOL    DATA     BYTE      FlashData

      ---         MODULE    ---      ---       FTECH_BLDCV2_3_1
      0100312FH   PUBLIC    CONST    ---       BEMF2SECTION
      01003127H   PUBLIC    CONST    ---       TIM1CRO_CCW
      0100311FH   PUBLIC    CONST    ---       TIM1CRO_CW
      01002D70H   PUBLIC    CODE     ---       Drv_BemfTim1RUapp
      01000A53H   PUBLIC    CODE     ---       Drv_BemfTim1PDapp
      01002656H   PUBLIC    CODE     ---       _Drv_BemfMaskAngle
      01001C12H   PUBLIC    CODE     ---       _Drv_BemfdelayAngle
      01001206H   PUBLIC    CODE     ---       Drv_SectionCheak
      01002FE0H   PUBLIC    CODE     ---       _Drv_BemfPhaseChoice
      000000E2H   SFRSYM    DATA     BYTE      SV_USL
      000000ABH   SFRSYM    DATA     BYTE      TIM2_CNTRH
      000000B0H.4 SFRSYM    DATA     BIT       GP34
      000000A0H.5 SFRSYM    DATA     BIT       GP25
      00000090H.6 SFRSYM    DATA     BIT       GP16
      00000080H.7 SFRSYM    DATA     BIT       GP07
      00000088H.1 SFRSYM    DATA     BIT       IT01
      00000088H.3 SFRSYM    DATA     BIT       IT10
      000000F6H   SFRSYM    DATA     WORD      PI_UKMIN
      000000C2H   SFRSYM    DATA     WORD      MD_MA
      000000A3H   SFRSYM    DATA     BYTE      TIM3_CNTRH
      000000B0H.5 SFRSYM    DATA     BIT       GP35
      000000A0H.6 SFRSYM    DATA     BIT       GP26
      00000090H.7 SFRSYM    DATA     BIT       GP17
      00000080H   SFRSYM    DATA     BYTE      P0
      00000088H.4 SFRSYM    DATA     BIT       IT11
      000000CAH   SFRSYM    DATA     WORD      MD_MB
      00000093H   SFRSYM    DATA     BYTE      TIM4_CNTRH
      000000B0H.6 SFRSYM    DATA     BIT       GP36
      000000A0H.7 SFRSYM    DATA     BIT       GP27
      00000090H   SFRSYM    DATA     BYTE      P1
      000000D9H   SFRSYM    DATA     BYTE      EVT_FILT
      000000F4H   SFRSYM    DATA     WORD      PI_UKMAX
      0000008BH   SFRSYM    DATA     BYTE      TIM5_CNTRH
      000000B2H   SFRSYM    DATA     BYTE      TIM2_CMTRL
      000000B0H.7 SFRSYM    DATA     BIT       GP37
      000000A0H   SFRSYM    DATA     BYTE      P2
      000000AAH   SFRSYM    DATA     BYTE      TIM2_CNTRL
      000000B0H   SFRSYM    DATA     BYTE      P3
      000000A2H   SFRSYM    DATA     BYTE      TIM3_CNTRL
      000000D0H.6 SFRSYM    DATA     BIT       AC
      00000092H   SFRSYM    DATA     BYTE      TIM4_CNTRL
      0000008AH   SFRSYM    DATA     BYTE      TIM5_CNTRL
      000000B6H   SFRSYM    DATA     WORD      TIM0_CCR1
      000000A8H.7 SFRSYM    DATA     BIT       EA
      000000D5H   SFRSYM    DATA     BYTE      CMP_CR0
      000000BAH   SFRSYM    DATA     WORD      TIM0_CCR2
      000000D6H   SFRSYM    DATA     BYTE      CMP_CR1
      000000BCH   SFRSYM    DATA     WORD      TIM0_CCR3
      00000085H   SFRSYM    DATA     BYTE      PSCTL
      000000DAH   SFRSYM    DATA     BYTE      CMP_CR2
      000000BEH   SFRSYM    DATA     WORD      TIM0_CCR4
      000000B8H.2 SFRSYM    DATA     BIT       PX00
      000000EAH   SFRSYM    DATA     WORD      PI_EK
      000000F8H   SFRSYM    DATA     BIT       OISUH
LX51 LINKER/LOCATER V4.66.1.0                                                         08/07/2017  15:30:51  PAGE 157


      000000B8H.3 SFRSYM    DATA     BIT       PX01
      000000B8H.4 SFRSYM    DATA     BIT       PX10
      000000F8H.2 SFRSYM    DATA     BIT       OISVH
      000000B8H.5 SFRSYM    DATA     BIT       PX11
      000000F8H.4 SFRSYM    DATA     BIT       OISWH
      000000DCH   SFRSYM    DATA     WORD      LPF_K
      000000F2H   SFRSYM    DATA     WORD      PI_KI
      000000F8H.1 SFRSYM    DATA     BIT       OISUL
      000000A8H   SFRSYM    DATA     BYTE      IE
      000000F8H.3 SFRSYM    DATA     BIT       OISVL
      000000F8H.5 SFRSYM    DATA     BIT       OISWL
      000000D1H   SFRSYM    DATA     BYTE      P1IE
      00000098H.6 SFRSYM    DATA     BIT       MOD0
      000000D3H   SFRSYM    DATA     BYTE      P2IE
      000000D2H   SFRSYM    DATA     BYTE      P1IF
      000000F9H   SFRSYM    DATA     BYTE      PL_CR
      00000098H.7 SFRSYM    DATA     BIT       MOD1
      000000D4H   SFRSYM    DATA     BYTE      P2IF
      000000ACH   SFRSYM    DATA     WORD      TIM2_DR
      00000082H   SFRSYM    DATA     WORD      DP
      000000EEH   SFRSYM    DATA     WORD      PI_KP
      000000A4H   SFRSYM    DATA     WORD      TIM3_DR
      00000094H   SFRSYM    DATA     WORD      TIM4_DR
      0000008CH   SFRSYM    DATA     WORD      TIM5_DR
      000000F1H   SFRSYM    DATA     BYTE      OSC_CFG
      000000C1H   SFRSYM    DATA     BYTE      MD_MODE
      000000ECH   SFRSYM    DATA     WORD      PI_UK
      000000DEH   SFRSYM    DATA     WORD      LPF_X
      00000098H   SFRSYM    DATA     BIT       RI
      000000E6H   SFRSYM    DATA     WORD      LPF_Y
      000000C0H   SFRSYM    DATA     BIT       PTIM00
      000000D0H.7 SFRSYM    DATA     BIT       CY
      00000098H.1 SFRSYM    DATA     BIT       TI
      000000C0H.1 SFRSYM    DATA     BIT       PTIM01
      000000C0H.2 SFRSYM    DATA     BIT       PTIM10
      000000C0H.3 SFRSYM    DATA     BIT       PTIM11
      000000E1H   SFRSYM    DATA     BYTE      SV_CR
      00000098H   SFRSYM    DATA     BYTE      UT_CR
      00000099H   SFRSYM    DATA     BYTE      UT_DR
      000000F8H.6 SFRSYM    DATA     BIT       OIS4
      00000081H   SFRSYM    DATA     BYTE      SP
      000000D0H.2 SFRSYM    DATA     BIT       OV
      000000C4H   SFRSYM    DATA     BYTE      MD_DA0
      0000009AH   SFRSYM    DATA     WORD      UT_BAUD
      000000CCH   SFRSYM    DATA     BYTE      MD_DB0
      000000C5H   SFRSYM    DATA     BYTE      MD_DA1
      000000CDH   SFRSYM    DATA     BYTE      MD_DB1
      000000C6H   SFRSYM    DATA     BYTE      MD_DA2
      000000CEH   SFRSYM    DATA     BYTE      MD_DB2
      000000C7H   SFRSYM    DATA     BYTE      MD_DA3
      000000B4H   SFRSYM    DATA     WORD      TIM2_ADTR
      000000CFH   SFRSYM    DATA     BYTE      MD_DB3
      000000AFH   SFRSYM    DATA     BYTE      TIM2_ARRH
      000000A7H   SFRSYM    DATA     BYTE      TIM3_ARRH
      00000097H   SFRSYM    DATA     BYTE      TIM4_ARRH
      0000008FH   SFRSYM    DATA     BYTE      TIM5_ARRH
      000000AEH   SFRSYM    DATA     BYTE      TIM2_ARRL
      000000A6H   SFRSYM    DATA     BYTE      TIM3_ARRL
      00000087H   SFRSYM    DATA     BYTE      PCON
      000000E2H   SFRSYM    DATA     WORD      SV_US
      00000096H   SFRSYM    DATA     BYTE      TIM4_ARRL
      0000008EH   SFRSYM    DATA     BYTE      TIM5_ARRL
      000000B2H   SFRSYM    DATA     WORD      TIM2_CMTR
      00000088H   SFRSYM    DATA     BYTE      TCON
      000000AAH   SFRSYM    DATA     WORD      TIM2_CNTR
LX51 LINKER/LOCATER V4.66.1.0                                                         08/07/2017  15:30:51  PAGE 158


      000000A2H   SFRSYM    DATA     WORD      TIM3_CNTR
      00000092H   SFRSYM    DATA     WORD      TIM4_CNTR
      0000008AH   SFRSYM    DATA     WORD      TIM5_CNTR
      000000E5H   SFRSYM    DATA     BYTE      SV_ANGLEH
      000000D8H   SFRSYM    DATA     BIT       PUART0
      000000E4H   SFRSYM    DATA     BYTE      SV_ANGLEL
      000000C6H   SFRSYM    DATA     WORD      MD_DAH
      000000D8H.1 SFRSYM    DATA     BIT       PUART1
      000000D8H.2 SFRSYM    DATA     BIT       PI2C0
      00000088H.2 SFRSYM    DATA     BIT       IF0
      000000CEH   SFRSYM    DATA     WORD      MD_DBH
      000000D8H.3 SFRSYM    DATA     BIT       PI2C1
      000000F0H   SFRSYM    DATA     BYTE      B
      000000C4H   SFRSYM    DATA     WORD      MD_DAL
      000000A1H   SFRSYM    DATA     BYTE      TIM2_CR0
      000000CCH   SFRSYM    DATA     WORD      MD_DBL
      0000009CH   SFRSYM    DATA     BYTE      TIM3_CR0
      000000A9H   SFRSYM    DATA     BYTE      TIM2_CR1
      0000009EH   SFRSYM    DATA     BYTE      TIM4_CR0
      0000009DH   SFRSYM    DATA     BYTE      TIM3_CR1
      00000089H   SFRSYM    DATA     BYTE      TIM5_CR0
      0000009FH   SFRSYM    DATA     BYTE      TIM4_CR1
      000000F8H   SFRSYM    DATA     BYTE      DRV_OUT
      00000091H   SFRSYM    DATA     BYTE      TIM5_CR1
      000000E0H   SFRSYM    DATA     BYTE      ACC
      000000F7H   SFRSYM    DATA     BYTE      PI_UKMINH
      000000C3H   SFRSYM    DATA     BYTE      MD_MAH
      000000A8H.4 SFRSYM    DATA     BIT       ES0
      000000DBH   SFRSYM    DATA     BYTE      LVSR
      000000CBH   SFRSYM    DATA     BYTE      MD_MBH
      000000C0H.4 SFRSYM    DATA     BIT       PADC0
      000000B8H   SFRSYM    DATA     BYTE      IP0
      000000F5H   SFRSYM    DATA     BYTE      PI_UKMAXH
      000000C0H.5 SFRSYM    DATA     BIT       PADC1
      000000C0H   SFRSYM    DATA     BYTE      IP1
      000000C8H   SFRSYM    DATA     BYTE      IP2
      000000F6H   SFRSYM    DATA     BYTE      PI_UKMINL
      000000C2H   SFRSYM    DATA     BYTE      MD_MAL
      00000098H.2 SFRSYM    DATA     BIT       RB8
      000000D8H   SFRSYM    DATA     BYTE      IP3
      000000CAH   SFRSYM    DATA     BYTE      MD_MBL
      000000A8H   SFRSYM    DATA     BIT       EX0
      000000F4H   SFRSYM    DATA     BYTE      PI_UKMAXL
      00000098H.3 SFRSYM    DATA     BIT       TB8
      000000B7H   SFRSYM    DATA     BYTE      TIM0_CCR1H
      000000A8H.2 SFRSYM    DATA     BIT       EX1
      000000BBH   SFRSYM    DATA     BYTE      TIM0_CCR2H
      000000D0H   SFRSYM    DATA     BIT       P
      000000BDH   SFRSYM    DATA     BYTE      TIM0_CCR3H
      000000BFH   SFRSYM    DATA     BYTE      TIM0_CCR4H
      000000C8H.2 SFRSYM    DATA     BIT       PTIM230
      000000EBH   SFRSYM    DATA     BYTE      PI_EKH
      00000098H.5 SFRSYM    DATA     BIT       SM2
      000000B6H   SFRSYM    DATA     BYTE      TIM0_CCR1L
      000000B1H   SFRSYM    DATA     BYTE      TIM0_SR1
      000000C8H.3 SFRSYM    DATA     BIT       PTIM231
      000000BAH   SFRSYM    DATA     BYTE      TIM0_CCR2L
      000000BCH   SFRSYM    DATA     BYTE      TIM0_CCR3L
      000000BEH   SFRSYM    DATA     BYTE      TIM0_CCR4L
      000000D8H.6 SFRSYM    DATA     BIT       PMCD0
      000000C8H.4 SFRSYM    DATA     BIT       PTIM450
      000000D0H.3 SFRSYM    DATA     BIT       RS0
      000000DDH   SFRSYM    DATA     BYTE      LPF_KH
      000000F3H   SFRSYM    DATA     BYTE      PI_KIH
      000000EAH   SFRSYM    DATA     BYTE      PI_EKL
LX51 LINKER/LOCATER V4.66.1.0                                                         08/07/2017  15:30:51  PAGE 159


      000000E8H   SFRSYM    DATA     BYTE      FOC_SET0
      000000D8H.7 SFRSYM    DATA     BIT       PMCD1
      000000C8H.5 SFRSYM    DATA     BIT       PTIM451
      000000D0H.4 SFRSYM    DATA     BIT       RS1
      000000E9H   SFRSYM    DATA     BYTE      FOC_SET1
      000000B8H.6 SFRSYM    DATA     BIT       PFOC0
      000000DCH   SFRSYM    DATA     BYTE      LPF_KL
      000000F2H   SFRSYM    DATA     BYTE      PI_KIL
      000000B8H.7 SFRSYM    DATA     BIT       PFOC1
      000000ADH   SFRSYM    DATA     BYTE      TIM2_DRH
      000000B9H   SFRSYM    DATA     BYTE      TIM0_IER
      00000083H   SFRSYM    DATA     BYTE      DPH
      000000EFH   SFRSYM    DATA     BYTE      PI_KPH
      000000A5H   SFRSYM    DATA     BYTE      TIM3_DRH
      00000095H   SFRSYM    DATA     BYTE      TIM4_DRH
      0000008DH   SFRSYM    DATA     BYTE      TIM5_DRH
      000000ACH   SFRSYM    DATA     BYTE      TIM2_DRL
      00000082H   SFRSYM    DATA     BYTE      DPL
      000000EEH   SFRSYM    DATA     BYTE      PI_KPL
      000000A4H   SFRSYM    DATA     BYTE      TIM3_DRL
      000000F8H.7 SFRSYM    DATA     BIT       MOE
      000000C0H.6 SFRSYM    DATA     BIT       PCMP0
      000000EDH   SFRSYM    DATA     BYTE      PI_UKH
      00000094H   SFRSYM    DATA     BYTE      TIM4_DRL
      000000C0H.7 SFRSYM    DATA     BIT       PCMP1
      000000DFH   SFRSYM    DATA     BYTE      LPF_XH
      0000008CH   SFRSYM    DATA     BYTE      TIM5_DRL
      000000AEH   SFRSYM    DATA     WORD      TIM2_ARR
      000000A8H.5 SFRSYM    DATA     BIT       MCDIE
      000000C9H   SFRSYM    DATA     BYTE      RSTSRC
      000000E7H   SFRSYM    DATA     BYTE      LPF_YH
      000000A6H   SFRSYM    DATA     WORD      TIM3_ARR
      00000088H.6 SFRSYM    DATA     BIT       MCDIF
      00000098H.4 SFRSYM    DATA     BIT       REN
      00000096H   SFRSYM    DATA     WORD      TIM4_ARR
      000000ECH   SFRSYM    DATA     BYTE      PI_UKL
      000000D7H   SFRSYM    DATA     BYTE      CMP_SR
      0000008EH   SFRSYM    DATA     WORD      TIM5_ARR
      000000DEH   SFRSYM    DATA     BYTE      LPF_XL
      000000E6H   SFRSYM    DATA     BYTE      LPF_YL
      000000C8H   SFRSYM    DATA     BIT       PRTC0
      000000C8H.1 SFRSYM    DATA     BIT       PRTC1
      000000E8H.7 SFRSYM    DATA     BIT       FOCEN
      000000C8H.6 SFRSYM    DATA     BIT       PTSD0
      000000D8H.4 SFRSYM    DATA     BIT       PSPI0
      000000C8H.7 SFRSYM    DATA     BIT       PTSD1
      000000D8H.5 SFRSYM    DATA     BIT       PSPI1
      0000009BH   SFRSYM    DATA     BYTE      UT_BAUDH
      000000E4H   SFRSYM    DATA     WORD      SV_ANGLE
      000000B5H   SFRSYM    DATA     BYTE      TIM2_ADTRH
      0000009AH   SFRSYM    DATA     BYTE      UT_BAUDL
      000000FCH   SFRSYM    DATA     BYTE      P0_OE
      000000FDH   SFRSYM    DATA     BYTE      P1_OE
      000000D0H.5 SFRSYM    DATA     BIT       F0
      000000B4H   SFRSYM    DATA     BYTE      TIM2_ADTRL
      000000FEH   SFRSYM    DATA     BYTE      P2_OE
      000000D0H.1 SFRSYM    DATA     BIT       F1
      00000080H   SFRSYM    DATA     BIT       GP00
      000000FFH   SFRSYM    DATA     BYTE      P3_OE
      00000090H   SFRSYM    DATA     BIT       GP10
      00000080H.1 SFRSYM    DATA     BIT       GP01
      000000A8H.6 SFRSYM    DATA     BIT       RTCIE
      000000A0H   SFRSYM    DATA     BIT       GP20
      00000090H.1 SFRSYM    DATA     BIT       GP11
      00000080H.2 SFRSYM    DATA     BIT       GP02
LX51 LINKER/LOCATER V4.66.1.0                                                         08/07/2017  15:30:51  PAGE 160


      000000E3H   SFRSYM    DATA     BYTE      SV_USH
      000000B0H   SFRSYM    DATA     BIT       GP30
      000000A0H.1 SFRSYM    DATA     BIT       GP21
      00000090H.2 SFRSYM    DATA     BIT       GP12
      00000080H.3 SFRSYM    DATA     BIT       GP03
      000000B8H   SFRSYM    DATA     BIT       PLVW0
      000000A8H.1 SFRSYM    DATA     BIT       TSDIE
      000000D0H   SFRSYM    DATA     BYTE      PSW
      000000B0H.1 SFRSYM    DATA     BIT       GP31
      000000A0H.2 SFRSYM    DATA     BIT       GP22
      00000090H.3 SFRSYM    DATA     BIT       GP13
      00000080H.4 SFRSYM    DATA     BIT       GP04
      000000B8H.1 SFRSYM    DATA     BIT       PLVW1
      000000A8H.3 SFRSYM    DATA     BIT       SPIIE
      00000088H.5 SFRSYM    DATA     BIT       TSDIF
      000000B0H.2 SFRSYM    DATA     BIT       GP32
      000000A0H.3 SFRSYM    DATA     BIT       GP23
      00000090H.4 SFRSYM    DATA     BIT       GP14
      00000080H.5 SFRSYM    DATA     BIT       GP05
      00000084H   SFRSYM    DATA     BYTE      FLKEY
      000000B3H   SFRSYM    DATA     BYTE      TIM2_CMTRH
      000000B0H.3 SFRSYM    DATA     BIT       GP33
      000000A0H.4 SFRSYM    DATA     BIT       GP24
      00000090H.5 SFRSYM    DATA     BIT       GP15
      00000080H.6 SFRSYM    DATA     BIT       GP06
      00000088H   SFRSYM    DATA     BIT       IT00
      00000007H   SYMBOL    DATA     BYTE      Step
      00000005H   SYMBOL    DATA     BYTE      u8temp

      01002FE0H   BLOCK     CODE     ---       LVL=0
      00000007H   SYMBOL    DATA     BYTE      Step
      01002FE0H   LINE      CODE     ---       #107
      01002FE0H   LINE      CODE     ---       #108
      01002FE0H   LINE      CODE     ---       #109
      01002FE7H   LINE      CODE     ---       #110
      01002FE7H   LINE      CODE     ---       #111
      01002FEBH   LINE      CODE     ---       #112
      01002FEDH   LINE      CODE     ---       #113
      01002FF4H   LINE      CODE     ---       #114
      01002FF4H   LINE      CODE     ---       #115
      01002FFDH   LINE      CODE     ---       #116
      01002FFDH   LINE      CODE     ---       #117
      ---         BLOCKEND  ---      ---       LVL=0

      01001206H   BLOCK     CODE     ---       LVL=0
      01001206H   BLOCK     CODE     NEAR LAB  LVL=1
      00000007H   SYMBOL    DATA     CHAR      Value
      ---         BLOCKEND  ---      ---       LVL=1
      01001206H   LINE      CODE     ---       #126
      01001206H   LINE      CODE     ---       #127
      01001206H   LINE      CODE     ---       #130
      0100120CH   LINE      CODE     ---       #132
      0100121AH   LINE      CODE     ---       #133
      0100121AH   LINE      CODE     ---       #134
      01001235H   LINE      CODE     ---       #135
      01001243H   LINE      CODE     ---       #136
      0100124AH   LINE      CODE     ---       #137
      0100124AH   LINE      CODE     ---       #138
      0100124EH   LINE      CODE     ---       #139
      01001250H   LINE      CODE     ---       #140
      01001258H   LINE      CODE     ---       #141
      01001258H   LINE      CODE     ---       #142
      0100125CH   LINE      CODE     ---       #143
      0100125CH   LINE      CODE     ---       #145
      01001269H   LINE      CODE     ---       #147
LX51 LINKER/LOCATER V4.66.1.0                                                         08/07/2017  15:30:51  PAGE 161


      0100126DH   LINE      CODE     ---       #148
      0100126DH   LINE      CODE     ---       #149
      01001274H   LINE      CODE     ---       #150
      01001274H   LINE      CODE     ---       #151
      01001276H   LINE      CODE     ---       #152
      0100127AH   LINE      CODE     ---       #153
      0100127AH   LINE      CODE     ---       #154
      01001284H   LINE      CODE     ---       #155
      0100128BH   LINE      CODE     ---       #156
      0100128DH   LINE      CODE     ---       #158
      0100128DH   LINE      CODE     ---       #159
      01001297H   LINE      CODE     ---       #160
      01001297H   LINE      CODE     ---       #162
      010012AEH   LINE      CODE     ---       #163
      010012AEH   LINE      CODE     ---       #164
      010012BBH   LINE      CODE     ---       #165
      010012BDH   LINE      CODE     ---       #166
      010012DDH   LINE      CODE     ---       #167
      010012DDH   LINE      CODE     ---       #168
      010012F0H   LINE      CODE     ---       #169
      010012F0H   LINE      CODE     ---       #172
      01001307H   LINE      CODE     ---       #173
      01001307H   LINE      CODE     ---       #174
      0100130DH   LINE      CODE     ---       #175
      0100130FH   LINE      CODE     ---       #176
      01001332H   LINE      CODE     ---       #177
      01001332H   LINE      CODE     ---       #178
      01001335H   LINE      CODE     ---       #179
      01001337H   LINE      CODE     ---       #181
      01001337H   LINE      CODE     ---       #182
      0100133AH   LINE      CODE     ---       #183
      0100133AH   LINE      CODE     ---       #185
      0100134BH   LINE      CODE     ---       #186
      0100134BH   LINE      CODE     ---       #187
      01001351H   LINE      CODE     ---       #188
      01001351H   LINE      CODE     ---       #189
      01001351H   LINE      CODE     ---       #190
      01001356H   LINE      CODE     ---       #191
      ---         BLOCKEND  ---      ---       LVL=0

      01001C12H   BLOCK     CODE     ---       LVL=0
      00000006H   SYMBOL    DATA     WORD      Angle
      01001C12H   LINE      CODE     ---       #199
      01001C12H   LINE      CODE     ---       #200
      01001C12H   LINE      CODE     ---       #201
      01001C19H   LINE      CODE     ---       #202
      01001C19H   LINE      CODE     ---       #203
      01001C21H   LINE      CODE     ---       #204
      01001C27H   LINE      CODE     ---       #206
      01001C37H   LINE      CODE     ---       #207
      01001C37H   LINE      CODE     ---       #208
      01001C41H   LINE      CODE     ---       #209
      01001C43H   LINE      CODE     ---       #210
      01001C4CH   LINE      CODE     ---       #211
      01001C4CH   LINE      CODE     ---       #212
      01001C55H   LINE      CODE     ---       #213
      01001C55H   LINE      CODE     ---       #214
      01001C6AH   LINE      CODE     ---       #215
      01001C6AH   LINE      CODE     ---       #216
      01001C6EH   LINE      CODE     ---       #217
      01001C70H   LINE      CODE     ---       #219
      01001C70H   LINE      CODE     ---       #220
      01001C7AH   LINE      CODE     ---       #221
      01001C7AH   LINE      CODE     ---       #223
      01001C82H   LINE      CODE     ---       #224
LX51 LINKER/LOCATER V4.66.1.0                                                         08/07/2017  15:30:51  PAGE 162


      01001C89H   LINE      CODE     ---       #226
      01001C90H   LINE      CODE     ---       #227
      01001C97H   LINE      CODE     ---       #228
      01001CA6H   LINE      CODE     ---       #229
      01001CB3H   LINE      CODE     ---       #230
      01001CB9H   LINE      CODE     ---       #231
      01001CBAH   LINE      CODE     ---       #233
      01001CBAH   LINE      CODE     ---       #234
      01001CC2H   LINE      CODE     ---       #235
      01001CC9H   LINE      CODE     ---       #236
      01001CD1H   LINE      CODE     ---       #238
      01001CDCH   LINE      CODE     ---       #240
      01001CE3H   LINE      CODE     ---       #241
      01001CE3H   LINE      CODE     ---       #242
      ---         BLOCKEND  ---      ---       LVL=0

      01002656H   BLOCK     CODE     ---       LVL=0
      00000006H   SYMBOL    DATA     WORD      Angle
      01002656H   BLOCK     CODE     NEAR LAB  LVL=1
      00000006H   SYMBOL    DATA     WORD      u16temp
      ---         BLOCKEND  ---      ---       LVL=1
      01002656H   LINE      CODE     ---       #251
      01002656H   LINE      CODE     ---       #252
      01002656H   LINE      CODE     ---       #255
      0100265DH   LINE      CODE     ---       #257
      01002661H   LINE      CODE     ---       #258
      01002661H   LINE      CODE     ---       #259
      01002669H   LINE      CODE     ---       #260
      0100266FH   LINE      CODE     ---       #270
      0100267EH   LINE      CODE     ---       #271
      0100268BH   LINE      CODE     ---       #273
      01002691H   LINE      CODE     ---       #274
      01002698H   LINE      CODE     ---       #275
      0100269FH   LINE      CODE     ---       #276
      010026A0H   LINE      CODE     ---       #278
      010026A0H   LINE      CODE     ---       #279
      010026A8H   LINE      CODE     ---       #285
      010026ABH   LINE      CODE     ---       #286
      010026B9H   LINE      CODE     ---       #287
      010026C1H   LINE      CODE     ---       #288
      010026C7H   LINE      CODE     ---       #289
      010026C7H   LINE      CODE     ---       #290
      ---         BLOCKEND  ---      ---       LVL=0

      01000A53H   BLOCK     CODE     ---       LVL=0
      01000A53H   LINE      CODE     ---       #299
      01000A53H   LINE      CODE     ---       #300
      01000A53H   LINE      CODE     ---       #301
      01000A5AH   LINE      CODE     ---       #302
      01000A5AH   LINE      CODE     ---       #303
      01000A63H   LINE      CODE     ---       #304
      01000A68H   LINE      CODE     ---       #305
      01000A6BH   LINE      CODE     ---       #306
      01000A7AH   LINE      CODE     ---       #307
      01000A7BH   LINE      CODE     ---       #308
      01000A86H   LINE      CODE     ---       #309
      01000A86H   LINE      CODE     ---       #310
      01000A96H   LINE      CODE     ---       #311
      01000A96H   LINE      CODE     ---       #312
      01000A9BH   LINE      CODE     ---       #313
      01000AAAH   LINE      CODE     ---       #315
      01000AB1H   LINE      CODE     ---       #316
      01000AB4H   LINE      CODE     ---       #317
      01000ABCH   LINE      CODE     ---       #318
      01000AC3H   LINE      CODE     ---       #320
LX51 LINKER/LOCATER V4.66.1.0                                                         08/07/2017  15:30:51  PAGE 163


      01000AFCH   LINE      CODE     ---       #321
      01000AFCH   LINE      CODE     ---       #322
      01000B02H   LINE      CODE     ---       #323
      01000B04H   LINE      CODE     ---       #325
      01000B04H   LINE      CODE     ---       #326
      01000B0FH   LINE      CODE     ---       #327
      01000B0FH   LINE      CODE     ---       #328
      01000B12H   LINE      CODE     ---       #329
      01000B12H   LINE      CODE     ---       #330
      01000B18H   LINE      CODE     ---       #332
      01000B2BH   LINE      CODE     ---       #333
      01000B2BH   LINE      CODE     ---       #334
      01000B32H   LINE      CODE     ---       #335
      01000B36H   LINE      CODE     ---       #336
      01000B3CH   LINE      CODE     ---       #337
      01000B4AH   LINE      CODE     ---       #338
      01000B58H   LINE      CODE     ---       #340
      01000B5DH   LINE      CODE     ---       #341
      01000B63H   LINE      CODE     ---       #342
      01000B76H   LINE      CODE     ---       #343
      01000B76H   LINE      CODE     ---       #344
      01000B7CH   LINE      CODE     ---       #345
      01000B7CH   LINE      CODE     ---       #346
      01000B7CH   LINE      CODE     ---       #347
      01000B7CH   LINE      CODE     ---       #348
      01000B89H   LINE      CODE     ---       #349
      01000BA2H   LINE      CODE     ---       #350
      01000BA2H   LINE      CODE     ---       #351
      01000BADH   LINE      CODE     ---       #352
      01000BADH   LINE      CODE     ---       #353
      01000BB1H   LINE      CODE     ---       #355
      01000BB8H   LINE      CODE     ---       #356
      01000BC3H   LINE      CODE     ---       #358
      01000BCAH   LINE      CODE     ---       #359
      01000BD1H   LINE      CODE     ---       #361
      01000BD8H   LINE      CODE     ---       #362
      01000BDFH   LINE      CODE     ---       #363
      01000BEEH   LINE      CODE     ---       #364
      01000BFBH   LINE      CODE     ---       #365
      01000C01H   LINE      CODE     ---       #366
      01000C07H   LINE      CODE     ---       #367
      01000C0EH   LINE      CODE     ---       #368
      01000C15H   LINE      CODE     ---       #370
      01000C23H   LINE      CODE     ---       #371
      01000C32H   LINE      CODE     ---       #372
      01000C3FH   LINE      CODE     ---       #374
      01000C45H   LINE      CODE     ---       #375
      01000C46H   LINE      CODE     ---       #376
      01000C4EH   LINE      CODE     ---       #377
      01000C4EH   LINE      CODE     ---       #378
      01000C54H   LINE      CODE     ---       #379
      01000C54H   LINE      CODE     ---       #380
      01000C55H   LINE      CODE     ---       #382
      01000C55H   LINE      CODE     ---       #383
      01000C5CH   LINE      CODE     ---       #384
      01000C63H   LINE      CODE     ---       #385
      01000C72H   LINE      CODE     ---       #386
      01000C7FH   LINE      CODE     ---       #387
      01000C85H   LINE      CODE     ---       #388
      01000C8BH   LINE      CODE     ---       #389
      01000C92H   LINE      CODE     ---       #390
      01000C99H   LINE      CODE     ---       #392
      01000C99H   LINE      CODE     ---       #393
      01000C99H   LINE      CODE     ---       #394
      01000C9AH   LINE      CODE     ---       #395
LX51 LINKER/LOCATER V4.66.1.0                                                         08/07/2017  15:30:51  PAGE 164


      01000CA1H   LINE      CODE     ---       #396
      01000CA1H   LINE      CODE     ---       #397
      01000CA6H   LINE      CODE     ---       #398
      01000CA9H   LINE      CODE     ---       #400
      01000CB0H   LINE      CODE     ---       #402
      01000CB3H   LINE      CODE     ---       #403
      01000CBEH   LINE      CODE     ---       #404
      01000CBEH   LINE      CODE     ---       #405
      ---         BLOCKEND  ---      ---       LVL=0

      01002D70H   BLOCK     CODE     ---       LVL=0
      01002D70H   LINE      CODE     ---       #414
      01002D70H   LINE      CODE     ---       #415
      01002D70H   LINE      CODE     ---       #416
      01002D77H   LINE      CODE     ---       #417
      01002D7EH   LINE      CODE     ---       #418
      01002D7EH   LINE      CODE     ---       #419
      01002D89H   LINE      CODE     ---       #420
      01002D89H   LINE      CODE     ---       #421
      01002D90H   LINE      CODE     ---       #422
      01002D90H   LINE      CODE     ---       #423
      01002D97H   LINE      CODE     ---       #425
      01002D9DH   LINE      CODE     ---       #426
      01002D9DH   LINE      CODE     ---       #427
      01002D9FH   LINE      CODE     ---       #428
      01002D9FH   LINE      CODE     ---       #430
      01002DA7H   LINE      CODE     ---       #431
      01002DADH   LINE      CODE     ---       #432
      01002DADH   LINE      CODE     ---       #433
      ---         BLOCKEND  ---      ---       LVL=0

      ---         MODULE    ---      ---       ?C?FPADD
      0100005DH   PUBLIC    CODE     ---       ?C?FPADD
      01000059H   PUBLIC    CODE     ---       ?C?FPSUB

      ---         MODULE    ---      ---       ?C?FPMUL
      0100014EH   PUBLIC    CODE     ---       ?C?FPMUL

      ---         MODULE    ---      ---       ?C?FPDIV
      01000257H   PUBLIC    CODE     ---       ?C?FPDIV

      ---         MODULE    ---      ---       ?C?FPCMP
      010002F6H   PUBLIC    CODE     ---       ?C?FPCMP
      010002F4H   PUBLIC    CODE     ---       ?C?FPCMP3

      ---         MODULE    ---      ---       ?C?FCAST
      01000377H   PUBLIC    CODE     ---       ?C?FCASTC
      01000372H   PUBLIC    CODE     ---       ?C?FCASTI
      0100036DH   PUBLIC    CODE     ---       ?C?FCASTL

      ---         MODULE    ---      ---       ?C?CASTF
      010003ABH   PUBLIC    CODE     ---       ?C?CASTF

      ---         MODULE    ---      ---       ?C?FPGETOPN
      010003E2H   PUBLIC    CODE     ---       ?C?FPGETOPN2
      01000417H   PUBLIC    CODE     ---       ?C?FPNANRESULT
      01000421H   PUBLIC    CODE     ---       ?C?FPOVERFLOW
      010003F9H   PUBLIC    CODE     ---       ?C?FPRESULT
      0100040DH   PUBLIC    CODE     ---       ?C?FPRESULT2
      0100041EH   PUBLIC    CODE     ---       ?C?FPUNDERFLOW

      ---         MODULE    ---      ---       ?C_STARTUP
      01000000H   PUBLIC    CODE     ---       ?C_STARTUP

      ---         MODULE    ---      ---       ?C?IILDX
LX51 LINKER/LOCATER V4.66.1.0                                                         08/07/2017  15:30:51  PAGE 165


      0100042CH   PUBLIC    CODE     ---       ?C?IILDX

      ---         MODULE    ---      ---       ?C?ILDPTR
      01000442H   PUBLIC    CODE     ---       ?C?ILDPTR

      ---         MODULE    ---      ---       ?C?ILDOPTR
      0100046DH   PUBLIC    CODE     ---       ?C?ILDOPTR

      ---         MODULE    ---      ---       ?C?ISTOPTR
      010004A5H   PUBLIC    CODE     ---       ?C?ISTOPTR

      ---         MODULE    ---      ---       ?C?LADD
      010004D2H   PUBLIC    CODE     ---       ?C?LADD

      ---         MODULE    ---      ---       ?C?LSUB
      010004DFH   PUBLIC    CODE     ---       ?C?LSUB

      ---         MODULE    ---      ---       ?C?ULDIV
      01000529H   PUBLIC    CODE     ---       ?C?ULDIV

      ---         MODULE    ---      ---       ?C?LNEG
      010005BBH   PUBLIC    CODE     ---       ?C?LNEG

      ---         MODULE    ---      ---       ?C?SLCMP
      010005C9H   PUBLIC    CODE     ---       ?C?SLCMP

      ---         MODULE    ---      ---       ?C?ULCMP
      010005DFH   PUBLIC    CODE     ---       ?C?ULCMP

      ---         MODULE    ---      ---       ?C?ULSHR
      010005F0H   PUBLIC    CODE     ---       ?C?ULSHR

      ---         MODULE    ---      ---       ?C?SLSHR
      01000603H   PUBLIC    CODE     ---       ?C?SLSHR

      ---         MODULE    ---      ---       ?C?LSHL
      01000617H   PUBLIC    CODE     ---       ?C?LSHL

      ---         MODULE    ---      ---       ?C?LLDXDATA
      0100062AH   PUBLIC    CODE     ---       ?C?LLDXDATA

      ---         MODULE    ---      ---       ?C?LLDXDATA0
      01000636H   PUBLIC    CODE     ---       ?C?LLDXDATA0

      ---         MODULE    ---      ---       ?C?LSTXDATA
      01000642H   PUBLIC    CODE     ---       ?C?LSTXDATA

      ---         MODULE    ---      ---       ?C?LSTKXDATA
      0100064EH   PUBLIC    CODE     ---       ?C?LSTKXDATA

      ---         MODULE    ---      ---       ?C?CCASE
      0100067FH   PUBLIC    CODE     ---       ?C?CCASE

      ---         MODULE    ---      ---       ?C?LIMUL
      010006A5H   PUBLIC    CODE     ---       ?C?LIMUL

      ---         MODULE    ---      ---       ?C_INIT
      01002521H   PUBLIC    CODE     ---       ?C_START



*** WARNING L15: MULTIPLE CALL TO FUNCTION
    NAME:    _FU68XX_PWM_UPDATE/MC_MOTORDRIVER_LAYER
    CALLER1: TIM45_ISR/INTERRUPT
    CALLER2: ?C_C51STARTUP
LX51 LINKER/LOCATER V4.66.1.0                                                         08/07/2017  15:30:51  PAGE 166



*** WARNING L25: DATA TYPES DIFFERENT
    SYMBOL:  Uc
    MODULE:  .\obj\MC_PwmIn.obj (MC_PWMIN)
   DEFINED:  .\obj\MC_UserInterface_layer.obj (MC_USERINTERFACE_LAYER)

Program Size: data=49.4 xdata=643 const=47 code=12561
LX51 RUN COMPLETE.  2 WARNING(S),  0 ERROR(S)
